
trickles-mod.o:     file format elf32-i386

Disassembly of section .text:

00000000 <htonl>:
       0:	8b 44 24 04          	mov    0x4(%esp,1),%eax
       4:	66 c1 c8 08          	ror    $0x8,%ax
       8:	c1 c8 10             	ror    $0x10,%eax
       b:	66 c1 c8 08          	ror    $0x8,%ax
       f:	c3                   	ret    

00000010 <htons>:
      10:	8b 44 24 04          	mov    0x4(%esp,1),%eax
      14:	25 ff ff 00 00       	and    $0xffff,%eax
      19:	66 c1 c8 08          	ror    $0x8,%ax
      1d:	c3                   	ret    
      1e:	90                   	nop    
      1f:	90                   	nop    

00000020 <free_trickles_msk>:
/* Two phase free: first phase disconnects socket from event list,
   sets to ALLOC_PROCESSING; second phase adds the socket to free
   list, sets to ALLOC_FREE and ready for reuse */
#ifndef USERTEST
static inline void free_trickles_msk(struct sock *sk, struct cminisock *msk) {
      20:	55                   	push   %ebp
      21:	89 e5                	mov    %esp,%ebp
      23:	83 ec 0c             	sub    $0xc,%esp
      26:	89 5d fc             	mov    %ebx,0xfffffffc(%ebp)
	if(!SIMULATION_MODE(sk)) {
      29:	8b 45 08             	mov    0x8(%ebp),%eax
      2c:	8b 5d 0c             	mov    0xc(%ebp),%ebx
      2f:	8b 80 a8 02 00 00    	mov    0x2a8(%eax),%eax
      35:	a9 01 00 00 00       	test   $0x1,%eax
      3a:	74 05                	je     41 <free_trickles_msk+0x21>
      3c:	83 e0 08             	and    $0x8,%eax
      3f:	74 16                	je     57 <free_trickles_msk+0x37>
		if(msk->ctl == ALLOC_FREE || msk->ctl == ALLOC_PROCESSING) {
      41:	8b 43 0c             	mov    0xc(%ebx),%eax
      44:	85 c0                	test   %eax,%eax
      46:	74 48                	je     90 <free_trickles_msk+0x70>
      48:	83 f8 03             	cmp    $0x3,%eax
      4b:	74 43                	je     90 <free_trickles_msk+0x70>
			printk("double free\n");
			BUG();
		}
		if(msk->ctl == ALLOC_READY && msk->prev != NULL) {
      4d:	48                   	dec    %eax
      4e:	74 10                	je     60 <free_trickles_msk+0x40>
			unlink((struct alloc_head *)msk);
		}
		msk->ctl = ALLOC_PROCESSING;
      50:	c7 43 0c 03 00 00 00 	movl   $0x3,0xc(%ebx)
	}
}
      57:	8b 5d fc             	mov    0xfffffffc(%ebp),%ebx
      5a:	89 ec                	mov    %ebp,%esp
      5c:	5d                   	pop    %ebp
      5d:	c3                   	ret    
      5e:	89 f6                	mov    %esi,%esi
      60:	8b 03                	mov    (%ebx),%eax
      62:	85 c0                	test   %eax,%eax
      64:	74 ea                	je     50 <free_trickles_msk+0x30>
		BUG();
	}
#endif

	elem->next->prev = elem->prev;
      66:	8b 53 04             	mov    0x4(%ebx),%edx
      69:	89 02                	mov    %eax,(%edx)
	elem->prev->next = elem->next;
      6b:	8b 03                	mov    (%ebx),%eax
	elem->prev = elem->next = NULL;
      6d:	c7 03 00 00 00 00    	movl   $0x0,(%ebx)
      73:	89 50 04             	mov    %edx,0x4(%eax)

	elem->list->len--;
      76:	8b 43 08             	mov    0x8(%ebx),%eax
      79:	c7 43 04 00 00 00 00 	movl   $0x0,0x4(%ebx)
      80:	ff 48 10             	decl   0x10(%eax)
	elem->list = NULL;
      83:	c7 43 08 00 00 00 00 	movl   $0x0,0x8(%ebx)
      8a:	eb c4                	jmp    50 <free_trickles_msk+0x30>
      8c:	8d 74 26 00          	lea    0x0(%esi,1),%esi
#ifndef USERTEST
static inline void free_trickles_msk(struct sock *sk, struct cminisock *msk) {
	if(!SIMULATION_MODE(sk)) {
		if(msk->ctl == ALLOC_FREE || msk->ctl == ALLOC_PROCESSING) {
			printk("double free\n");
      90:	c7 04 24 00 00 00 00 	movl   $0x0,(%esp,1)
      97:	e8 fc ff ff ff       	call   98 <free_trickles_msk+0x78>
			BUG();
      9c:	c7 44 24 04 0d 00 00 	movl   $0xd,0x4(%esp,1)
      a3:	00 
      a4:	c7 04 24 11 00 00 00 	movl   $0x11,(%esp,1)
      ab:	e8 fc ff ff ff       	call   ac <free_trickles_msk+0x8c>
      b0:	e8 fc ff ff ff       	call   b1 <free_trickles_msk+0x91>
      b5:	8b 43 0c             	mov    0xc(%ebx),%eax
      b8:	eb 93                	jmp    4d <free_trickles_msk+0x2d>
      ba:	8d b6 00 00 00 00    	lea    0x0(%esi),%esi

000000c0 <free_trickles_msk_finish>:
		}
		if(msk->ctl == ALLOC_READY && msk->prev != NULL) {
			unlink((struct alloc_head *)msk);
		}
		msk->ctl = ALLOC_PROCESSING;
	}
}

static inline void free_trickles_msk_finish(struct sock *sk, struct cminisock *msk) {
      c0:	55                   	push   %ebp
      c1:	89 e5                	mov    %esp,%ebp
      c3:	57                   	push   %edi
      c4:	56                   	push   %esi
      c5:	31 f6                	xor    %esi,%esi
      c7:	53                   	push   %ebx
      c8:	83 ec 10             	sub    $0x10,%esp
	struct tcp_opt *tp = &(sk->tp_pinfo.af_tcp);
      cb:	8b 45 08             	mov    0x8(%ebp),%eax
	struct alloc_head_list *head = &tp->cminisock_api_config.msk_freelist;
      ce:	8b 55 08             	mov    0x8(%ebp),%edx
      d1:	8b 7d 0c             	mov    0xc(%ebp),%edi
      d4:	05 bc 00 00 00       	add    $0xbc,%eax
      d9:	89 45 f0             	mov    %eax,0xfffffff0(%ebp)
      dc:	81 c2 90 02 00 00    	add    $0x290,%edx
      e2:	89 55 ec             	mov    %edx,0xffffffec(%ebp)
      e5:	8b 97 dc 00 00 00    	mov    0xdc(%edi),%edx
      eb:	39 d6                	cmp    %edx,%esi
      ed:	7d 2b                	jge    11a <free_trickles_msk_finish+0x5a>
      ef:	31 db                	xor    %ebx,%ebx
      f1:	eb 0d                	jmp    100 <free_trickles_msk_finish+0x40>
      f3:	90                   	nop    
      f4:	90                   	nop    
      f5:	90                   	nop    
      f6:	90                   	nop    
      f7:	90                   	nop    
      f8:	90                   	nop    
      f9:	90                   	nop    
      fa:	90                   	nop    
      fb:	90                   	nop    
      fc:	90                   	nop    
      fd:	90                   	nop    
      fe:	90                   	nop    
      ff:	90                   	nop    
     100:	8b 87 e0 00 00 00    	mov    0xe0(%edi),%eax
     106:	8b 44 18 18          	mov    0x18(%eax,%ebx,1),%eax
     10a:	85 c0                	test   %eax,%eax
     10c:	0f 85 6e 01 00 00    	jne    280 <free_trickles_msk_finish+0x1c0>
     112:	46                   	inc    %esi
     113:	83 c3 28             	add    $0x28,%ebx
     116:	39 d6                	cmp    %edx,%esi
     118:	7c e6                	jl     100 <free_trickles_msk_finish+0x40>
     11a:	8b 55 08             	mov    0x8(%ebp),%edx
     11d:	8b 82 a8 02 00 00    	mov    0x2a8(%edx),%eax
     123:	a9 01 00 00 00       	test   $0x1,%eax
     128:	74 05                	je     12f <free_trickles_msk_finish+0x6f>
     12a:	83 e0 08             	and    $0x8,%eax
     12d:	74 0e                	je     13d <free_trickles_msk_finish+0x7d>
     12f:	8b 87 e0 00 00 00    	mov    0xe0(%edi),%eax
     135:	85 c0                	test   %eax,%eax
     137:	0f 85 2d 01 00 00    	jne    26a <free_trickles_msk_finish+0x1aa>
     13d:	8b 87 80 00 00 00    	mov    0x80(%edi),%eax
     143:	85 c0                	test   %eax,%eax
     145:	0f 85 0b 01 00 00    	jne    256 <free_trickles_msk_finish+0x196>
     14b:	8b 87 88 00 00 00    	mov    0x88(%edi),%eax
     151:	85 c0                	test   %eax,%eax
     153:	0f 85 e9 00 00 00    	jne    242 <free_trickles_msk_finish+0x182>

	free_minisock(sk,msk);
	if(!SIMULATION_MODE(sk)) {
     159:	8b 55 08             	mov    0x8(%ebp),%edx
     15c:	8b 82 a8 02 00 00    	mov    0x2a8(%edx),%eax
     162:	a9 01 00 00 00       	test   $0x1,%eax
     167:	74 09                	je     172 <free_trickles_msk_finish+0xb2>
     169:	83 e0 08             	and    $0x8,%eax
     16c:	0f 84 89 00 00 00    	je     1fb <free_trickles_msk_finish+0x13b>
		if(msk->ctl != ALLOC_PROCESSING && msk->ctl != ALLOC_HALFFREE) {
     172:	8b 47 0c             	mov    0xc(%edi),%eax
     175:	83 e8 03             	sub    $0x3,%eax
     178:	83 f8 01             	cmp    $0x1,%eax
     17b:	77 57                	ja     1d4 <free_trickles_msk_finish+0x114>
	if(elem->list) {
		BUG();
	}
#endif
	if(head->next == elem /* || elem->prev != NULL || elem->next != NULL */) {
     17d:	8b 45 ec             	mov    0xffffffec(%ebp),%eax
     180:	39 78 04             	cmp    %edi,0x4(%eax)
     183:	74 28                	je     1ad <free_trickles_msk_finish+0xed>
		BUG();
		show_stack(NULL);	
	}
	elem->next = head->next;
     185:	8b 55 ec             	mov    0xffffffec(%ebp),%edx
     188:	8b 42 04             	mov    0x4(%edx),%eax
     18b:	89 47 04             	mov    %eax,0x4(%edi)
	head->next->prev = elem;
     18e:	8b 42 04             	mov    0x4(%edx),%eax
     191:	89 38                	mov    %edi,(%eax)

	elem->prev = (struct alloc_head*)head;
     193:	89 17                	mov    %edx,(%edi)
	head->next = elem;
     195:	89 7a 04             	mov    %edi,0x4(%edx)

	elem->list = head;
     198:	89 57 08             	mov    %edx,0x8(%edi)
	head->len++;
     19b:	ff 42 10             	incl   0x10(%edx)
			printk("free_rstcp_msk_finish without corresponding free_rstcp_msk\n");
			BUG();
		}
		insert_head(head, (struct alloc_head *)msk);
		msk->ctl = ALLOC_FREE;
     19e:	c7 47 0c 00 00 00 00 	movl   $0x0,0xc(%edi)
	} else {
		if(msk == tp->t.responseMSK) {
		} else {
			// overflow
			unlink((struct alloc_head*)msk);
			kfree(msk);
		}
		tp->t.responseCount--;
	}
	
}
     1a5:	83 c4 10             	add    $0x10,%esp
     1a8:	5b                   	pop    %ebx
     1a9:	5e                   	pop    %esi
     1aa:	5f                   	pop    %edi
     1ab:	5d                   	pop    %ebp
     1ac:	c3                   	ret    
		BUG();
	}
#endif
	if(head->next == elem /* || elem->prev != NULL || elem->next != NULL */) {
		BUG();
     1ad:	c7 44 24 04 0d 00 00 	movl   $0xd,0x4(%esp,1)
     1b4:	00 
     1b5:	c7 04 24 11 00 00 00 	movl   $0x11,(%esp,1)
     1bc:	e8 fc ff ff ff       	call   1bd <free_trickles_msk_finish+0xfd>
     1c1:	e8 fc ff ff ff       	call   1c2 <free_trickles_msk_finish+0x102>
		show_stack(NULL);	
     1c6:	c7 04 24 00 00 00 00 	movl   $0x0,(%esp,1)
     1cd:	e8 fc ff ff ff       	call   1ce <free_trickles_msk_finish+0x10e>
     1d2:	eb b1                	jmp    185 <free_trickles_msk_finish+0xc5>

	free_minisock(sk,msk);
	if(!SIMULATION_MODE(sk)) {
		if(msk->ctl != ALLOC_PROCESSING && msk->ctl != ALLOC_HALFFREE) {
			printk("free_rstcp_msk_finish without corresponding free_rstcp_msk\n");
     1d4:	c7 04 24 00 00 00 00 	movl   $0x0,(%esp,1)
     1db:	e8 fc ff ff ff       	call   1dc <free_trickles_msk_finish+0x11c>
			BUG();
     1e0:	c7 44 24 04 0d 00 00 	movl   $0xd,0x4(%esp,1)
     1e7:	00 
     1e8:	c7 04 24 11 00 00 00 	movl   $0x11,(%esp,1)
     1ef:	e8 fc ff ff ff       	call   1f0 <free_trickles_msk_finish+0x130>
     1f4:	e8 fc ff ff ff       	call   1f5 <free_trickles_msk_finish+0x135>
     1f9:	eb 82                	jmp    17d <free_trickles_msk_finish+0xbd>
		}
		insert_head(head, (struct alloc_head *)msk);
		msk->ctl = ALLOC_FREE;
	} else {
		if(msk == tp->t.responseMSK) {
     1fb:	8b 45 f0             	mov    0xfffffff0(%ebp),%eax
     1fe:	3b b8 3c 0b 00 00    	cmp    0xb3c(%eax),%edi
     204:	74 2e                	je     234 <free_trickles_msk_finish+0x174>
		BUG();
	}
#endif

	elem->next->prev = elem->prev;
     206:	8b 57 04             	mov    0x4(%edi),%edx
     209:	8b 07                	mov    (%edi),%eax
     20b:	89 02                	mov    %eax,(%edx)
	elem->prev->next = elem->next;
     20d:	8b 07                	mov    (%edi),%eax
	elem->prev = elem->next = NULL;
     20f:	c7 07 00 00 00 00    	movl   $0x0,(%edi)
     215:	89 50 04             	mov    %edx,0x4(%eax)

	elem->list->len--;
     218:	8b 47 08             	mov    0x8(%edi),%eax
     21b:	c7 47 04 00 00 00 00 	movl   $0x0,0x4(%edi)
     222:	ff 48 10             	decl   0x10(%eax)
	elem->list = NULL;
     225:	c7 47 08 00 00 00 00 	movl   $0x0,0x8(%edi)
		if(msk == tp->t.responseMSK) {
		} else {
			// overflow
			unlink((struct alloc_head*)msk);
			kfree(msk);
     22c:	89 3c 24             	mov    %edi,(%esp,1)
     22f:	e8 fc ff ff ff       	call   230 <free_trickles_msk_finish+0x170>
		}
		tp->t.responseCount--;
     234:	8b 55 f0             	mov    0xfffffff0(%ebp),%edx
     237:	ff 8a 54 0b 00 00    	decl   0xb54(%edx)
     23d:	e9 63 ff ff ff       	jmp    1a5 <free_trickles_msk_finish+0xe5>
     242:	89 44 24 04          	mov    %eax,0x4(%esp,1)
     246:	8b 45 08             	mov    0x8(%ebp),%eax
     249:	89 04 24             	mov    %eax,(%esp,1)
     24c:	e8 fc ff ff ff       	call   24d <free_trickles_msk_finish+0x18d>
     251:	e9 03 ff ff ff       	jmp    159 <free_trickles_msk_finish+0x99>
     256:	89 44 24 04          	mov    %eax,0x4(%esp,1)
     25a:	8b 55 08             	mov    0x8(%ebp),%edx
     25d:	89 14 24             	mov    %edx,(%esp,1)
     260:	e8 fc ff ff ff       	call   261 <free_trickles_msk_finish+0x1a1>
     265:	e9 e1 fe ff ff       	jmp    14b <free_trickles_msk_finish+0x8b>
     26a:	89 44 24 04          	mov    %eax,0x4(%esp,1)
     26e:	8b 45 08             	mov    0x8(%ebp),%eax
     271:	89 04 24             	mov    %eax,(%esp,1)
     274:	e8 fc ff ff ff       	call   275 <free_trickles_msk_finish+0x1b5>
     279:	e9 bf fe ff ff       	jmp    13d <free_trickles_msk_finish+0x7d>
     27e:	89 f6                	mov    %esi,%esi
     280:	89 04 24             	mov    %eax,(%esp,1)
     283:	e8 fc ff ff ff       	call   284 <free_trickles_msk_finish+0x1c4>
     288:	8b 97 dc 00 00 00    	mov    0xdc(%edi),%edx
     28e:	e9 7f fe ff ff       	jmp    112 <free_trickles_msk_finish+0x52>
     293:	8d b6 00 00 00 00    	lea    0x0(%esi),%esi
     299:	8d bc 27 00 00 00 00 	lea    0x0(%edi,1),%edi

000002a0 <unmarshallContinuationServer>:
  do{					\
    memcpy(dcont->mac, scont->mac, HMACLEN);	\
  } while(0)

UNMARSHALL_CONTINUATION(Server, SERVER_COMPUTE_MAC);
     2a0:	55                   	push   %ebp
     2a1:	89 e5                	mov    %esp,%ebp
     2a3:	31 d2                	xor    %edx,%edx
     2a5:	57                   	push   %edi
     2a6:	56                   	push   %esi
     2a7:	53                   	push   %ebx
     2a8:	83 ec 40             	sub    $0x40,%esp
     2ab:	8b 45 08             	mov    0x8(%ebp),%eax
     2ae:	8b 58 0c             	mov    0xc(%eax),%ebx
     2b1:	8b 83 a8 02 00 00    	mov    0x2a8(%ebx),%eax
     2b7:	a9 01 00 00 00       	test   $0x1,%eax
     2bc:	74 05                	je     2c3 <unmarshallContinuationServer+0x23>
     2be:	83 e0 08             	and    $0x8,%eax
     2c1:	74 05                	je     2c8 <unmarshallContinuationServer+0x28>
     2c3:	ba 01 00 00 00       	mov    $0x1,%edx
     2c8:	85 d2                	test   %edx,%edx
     2ca:	0f 85 03 01 00 00    	jne    3d3 <unmarshallContinuationServer+0x133>
     2d0:	8b 55 10             	mov    0x10(%ebp),%edx
     2d3:	8b 4d 0c             	mov    0xc(%ebp),%ecx
     2d6:	0f b6 02             	movzbl (%edx),%eax
     2d9:	89 41 38             	mov    %eax,0x38(%ecx)
	__arch__swab24s(addr);
}

static __inline__ __const__ __u32 __fswab32(__u32 x)
{
     2dc:	8b 42 01             	mov    0x1(%edx),%eax

static __inline__ __const__ __u32 ___arch__swab32(__u32 x)
{
#ifdef CONFIG_X86_BSWAP
	__asm__("bswap %0" : "=r" (x) : "0" (x));
     2df:	0f c8                	bswap  %eax
	__arch__swab24s(addr);
}

static __inline__ __const__ __u32 __fswab32(__u32 x)
{
     2e1:	89 41 34             	mov    %eax,0x34(%ecx)
  do{					\
    memcpy(dcont->mac, scont->mac, HMACLEN);	\
  } while(0)

UNMARSHALL_CONTINUATION(Server, SERVER_COMPUTE_MAC);
     2e4:	8b 42 09             	mov    0x9(%edx),%eax
     2e7:	89 41 3c             	mov    %eax,0x3c(%ecx)
     2ea:	8b 42 0d             	mov    0xd(%edx),%eax
     2ed:	89 41 40             	mov    %eax,0x40(%ecx)
     2f0:	8b 42 25             	mov    0x25(%edx),%eax
     2f3:	89 41 44             	mov    %eax,0x44(%ecx)
	__arch__swab24s(addr);
}

static __inline__ __const__ __u32 __fswab32(__u32 x)
{
     2f6:	8b 42 25             	mov    0x25(%edx),%eax

static __inline__ __const__ __u32 ___arch__swab32(__u32 x)
{
#ifdef CONFIG_X86_BSWAP
	__asm__("bswap %0" : "=r" (x) : "0" (x));
     2f9:	0f c8                	bswap  %eax
	__arch__swab24s(addr);
}

static __inline__ __const__ __u32 __fswab32(__u32 x)
{
     2fb:	89 41 4c             	mov    %eax,0x4c(%ecx)
  do{					\
    memcpy(dcont->mac, scont->mac, HMACLEN);	\
  } while(0)

UNMARSHALL_CONTINUATION(Server, SERVER_COMPUTE_MAC);
     2fe:	8b 42 11             	mov    0x11(%edx),%eax
     301:	89 41 50             	mov    %eax,0x50(%ecx)
     304:	8b 42 29             	mov    0x29(%edx),%eax
     307:	89 41 48             	mov    %eax,0x48(%ecx)
	__arch__swab24s(addr);
}

static __inline__ __const__ __u32 __fswab32(__u32 x)
{
     30a:	8b 42 29             	mov    0x29(%edx),%eax

static __inline__ __const__ __u32 ___arch__swab32(__u32 x)
{
#ifdef CONFIG_X86_BSWAP
	__asm__("bswap %0" : "=r" (x) : "0" (x));
     30d:	0f c8                	bswap  %eax
	__arch__swab24s(addr);
}

static __inline__ __const__ __u32 __fswab32(__u32 x)
{
     30f:	89 41 54             	mov    %eax,0x54(%ecx)
  do{					\
    memcpy(dcont->mac, scont->mac, HMACLEN);	\
  } while(0)

UNMARSHALL_CONTINUATION(Server, SERVER_COMPUTE_MAC);
     312:	0f b6 42 2d          	movzbl 0x2d(%edx),%eax
     316:	89 41 58             	mov    %eax,0x58(%ecx)
     319:	0f b6 42 05          	movzbl 0x5(%edx),%eax
     31d:	89 41 5c             	mov    %eax,0x5c(%ecx)
	__arch__swab24s(addr);
}

static __inline__ __const__ __u32 __fswab32(__u32 x)
{
     320:	8b 42 2e             	mov    0x2e(%edx),%eax

static __inline__ __const__ __u32 ___arch__swab32(__u32 x)
{
#ifdef CONFIG_X86_BSWAP
	__asm__("bswap %0" : "=r" (x) : "0" (x));
     323:	0f c8                	bswap  %eax
	__arch__swab24s(addr);
}

static __inline__ __const__ __u32 __fswab32(__u32 x)
{
     325:	89 41 60             	mov    %eax,0x60(%ecx)
     328:	8b 42 32             	mov    0x32(%edx),%eax

static __inline__ __const__ __u32 ___arch__swab32(__u32 x)
{
#ifdef CONFIG_X86_BSWAP
	__asm__("bswap %0" : "=r" (x) : "0" (x));
     32b:	0f c8                	bswap  %eax
	__arch__swab24s(addr);
}

static __inline__ __const__ __u32 __fswab32(__u32 x)
{
     32d:	89 41 64             	mov    %eax,0x64(%ecx)
     330:	8b 42 36             	mov    0x36(%edx),%eax

static __inline__ __const__ __u32 ___arch__swab32(__u32 x)
{
#ifdef CONFIG_X86_BSWAP
	__asm__("bswap %0" : "=r" (x) : "0" (x));
     333:	0f c8                	bswap  %eax
	__arch__swab24s(addr);
}

static __inline__ __const__ __u32 __fswab32(__u32 x)
{
     335:	89 41 68             	mov    %eax,0x68(%ecx)
     338:	8b 42 3a             	mov    0x3a(%edx),%eax

static __inline__ __const__ __u32 ___arch__swab32(__u32 x)
{
#ifdef CONFIG_X86_BSWAP
	__asm__("bswap %0" : "=r" (x) : "0" (x));
     33b:	0f c8                	bswap  %eax
	__arch__swab24s(addr);
}

static __inline__ __const__ __u32 __fswab32(__u32 x)
{
     33d:	89 41 6c             	mov    %eax,0x6c(%ecx)
     340:	8b 42 3e             	mov    0x3e(%edx),%eax

static __inline__ __const__ __u32 ___arch__swab32(__u32 x)
{
#ifdef CONFIG_X86_BSWAP
	__asm__("bswap %0" : "=r" (x) : "0" (x));
     343:	0f c8                	bswap  %eax
	__arch__swab24s(addr);
}

static __inline__ __const__ __u32 __fswab32(__u32 x)
{
     345:	89 41 70             	mov    %eax,0x70(%ecx)
  do{					\
    memcpy(dcont->mac, scont->mac, HMACLEN);	\
  } while(0)

UNMARSHALL_CONTINUATION(Server, SERVER_COMPUTE_MAC);
     348:	31 d2                	xor    %edx,%edx
     34a:	8b 75 08             	mov    0x8(%ebp),%esi
     34d:	8b 46 0c             	mov    0xc(%esi),%eax
     350:	8b 80 a8 02 00 00    	mov    0x2a8(%eax),%eax
     356:	a9 01 00 00 00       	test   $0x1,%eax
     35b:	74 05                	je     362 <unmarshallContinuationServer+0xc2>
     35d:	83 e0 08             	and    $0x8,%eax
     360:	74 05                	je     367 <unmarshallContinuationServer+0xc7>
     362:	ba 01 00 00 00       	mov    $0x1,%edx
     367:	85 d2                	test   %edx,%edx
     369:	75 39                	jne    3a4 <unmarshallContinuationServer+0x104>
     36b:	8b 4d 0c             	mov    0xc(%ebp),%ecx
     36e:	31 db                	xor    %ebx,%ebx
     370:	89 99 dc 00 00 00    	mov    %ebx,0xdc(%ecx)
     376:	8b 75 10             	mov    0x10(%ebp),%esi
     379:	8b 46 42             	mov    0x42(%esi),%eax
     37c:	8b 56 46             	mov    0x46(%esi),%edx
     37f:	89 41 74             	mov    %eax,0x74(%ecx)
     382:	31 c0                	xor    %eax,%eax
     384:	89 51 78             	mov    %edx,0x78(%ecx)
     387:	31 d2                	xor    %edx,%edx
     389:	89 91 c0 00 00 00    	mov    %edx,0xc0(%ecx)
     38f:	89 81 c4 00 00 00    	mov    %eax,0xc4(%ecx)
     395:	b9 01 00 00 00       	mov    $0x1,%ecx
     39a:	83 c4 40             	add    $0x40,%esp
     39d:	89 c8                	mov    %ecx,%eax
     39f:	5b                   	pop    %ebx
     3a0:	5e                   	pop    %esi
     3a1:	5f                   	pop    %edi
     3a2:	5d                   	pop    %ebp
     3a3:	c3                   	ret    
     3a4:	8b 7d 08             	mov    0x8(%ebp),%edi
     3a7:	8b 55 0c             	mov    0xc(%ebp),%edx
     3aa:	8b 47 24             	mov    0x24(%edi),%eax
     3ad:	8b 40 10             	mov    0x10(%eax),%eax
     3b0:	89 42 14             	mov    %eax,0x14(%edx)
     3b3:	8b 47 24             	mov    0x24(%edi),%eax
     3b6:	8b 40 0c             	mov    0xc(%eax),%eax
     3b9:	89 42 18             	mov    %eax,0x18(%edx)
     3bc:	8b 47 20             	mov    0x20(%edi),%eax
     3bf:	0f b7 40 02          	movzwl 0x2(%eax),%eax
     3c3:	66 89 42 1c          	mov    %ax,0x1c(%edx)
     3c7:	8b 47 20             	mov    0x20(%edi),%eax
     3ca:	0f b7 00             	movzwl (%eax),%eax
     3cd:	66 89 42 1e          	mov    %ax,0x1e(%edx)
     3d1:	eb 98                	jmp    36b <unmarshallContinuationServer+0xcb>
     3d3:	8b 55 10             	mov    0x10(%ebp),%edx
     3d6:	8d 7d e4             	lea    0xffffffe4(%ebp),%edi
     3d9:	8b 75 08             	mov    0x8(%ebp),%esi
     3dc:	8b 42 01             	mov    0x1(%edx),%eax
     3df:	89 45 c4             	mov    %eax,0xffffffc4(%ebp)
     3e2:	0f b6 02             	movzbl (%edx),%eax
     3e5:	88 45 c8             	mov    %al,0xffffffc8(%ebp)
     3e8:	0f b6 42 05          	movzbl 0x5(%edx),%eax
     3ec:	88 45 c9             	mov    %al,0xffffffc9(%ebp)
     3ef:	8b 4e 24             	mov    0x24(%esi),%ecx
     3f2:	8b 41 10             	mov    0x10(%ecx),%eax
     3f5:	89 45 ca             	mov    %eax,0xffffffca(%ebp)
     3f8:	8b 56 20             	mov    0x20(%esi),%edx
     3fb:	89 fe                	mov    %edi,%esi
     3fd:	0f b7 42 02          	movzwl 0x2(%edx),%eax
     401:	66 89 45 ce          	mov    %ax,0xffffffce(%ebp)
     405:	8b 41 0c             	mov    0xc(%ecx),%eax
     408:	89 45 d0             	mov    %eax,0xffffffd0(%ebp)
     40b:	0f b7 02             	movzwl (%edx),%eax
     40e:	8d 55 c4             	lea    0xffffffc4(%ebp),%edx
     411:	89 7c 24 0c          	mov    %edi,0xc(%esp,1)
     415:	89 54 24 04          	mov    %edx,0x4(%esp,1)
     419:	89 1c 24             	mov    %ebx,(%esp,1)
     41c:	66 89 45 d4          	mov    %ax,0xffffffd4(%ebp)
     420:	8b 45 10             	mov    0x10(%ebp),%eax
     423:	89 44 24 08          	mov    %eax,0x8(%esp,1)
     427:	e8 fc ff ff ff       	call   428 <unmarshallContinuationServer+0x188>
     42c:	8b 45 10             	mov    0x10(%ebp),%eax
     42f:	b9 10 00 00 00       	mov    $0x10,%ecx
     434:	fc                   	cld    
     435:	83 c0 15             	add    $0x15,%eax
     438:	89 c7                	mov    %eax,%edi
     43a:	f3 a6                	repz cmpsb %es:(%edi),%ds:(%esi)
     43c:	0f 97 c2             	seta   %dl
     43f:	0f 92 c0             	setb   %al
     442:	31 c9                	xor    %ecx,%ecx
     444:	38 c2                	cmp    %al,%dl
     446:	0f 85 4e ff ff ff    	jne    39a <unmarshallContinuationServer+0xfa>
     44c:	e9 7f fe ff ff       	jmp    2d0 <unmarshallContinuationServer+0x30>
     451:	eb 0d                	jmp    460 <unmarshallContinuationClient>
     453:	90                   	nop    
     454:	90                   	nop    
     455:	90                   	nop    
     456:	90                   	nop    
     457:	90                   	nop    
     458:	90                   	nop    
     459:	90                   	nop    
     45a:	90                   	nop    
     45b:	90                   	nop    
     45c:	90                   	nop    
     45d:	90                   	nop    
     45e:	90                   	nop    
     45f:	90                   	nop    

00000460 <unmarshallContinuationClient>:
UNMARSHALL_CONTINUATION(Client, CLIENT_COMPUTE_MAC);
     460:	55                   	push   %ebp
     461:	89 e5                	mov    %esp,%ebp
     463:	57                   	push   %edi
     464:	56                   	push   %esi
     465:	53                   	push   %ebx
     466:	83 ec 0c             	sub    $0xc,%esp
     469:	8b 75 10             	mov    0x10(%ebp),%esi
     46c:	c7 44 24 08 10 00 00 	movl   $0x10,0x8(%esp,1)
     473:	00 
     474:	8b 5d 0c             	mov    0xc(%ebp),%ebx
     477:	8b 7d 08             	mov    0x8(%ebp),%edi
     47a:	8d 46 15             	lea    0x15(%esi),%eax
     47d:	89 44 24 04          	mov    %eax,0x4(%esp,1)
     481:	8d 83 8c 00 00 00    	lea    0x8c(%ebx),%eax
     487:	89 04 24             	mov    %eax,(%esp,1)
     48a:	e8 e1 7d 00 00       	call   8270 <__constant_memcpy>
     48f:	0f b6 06             	movzbl (%esi),%eax
     492:	31 d2                	xor    %edx,%edx
     494:	89 43 38             	mov    %eax,0x38(%ebx)
	__arch__swab24s(addr);
}

static __inline__ __const__ __u32 __fswab32(__u32 x)
{
     497:	8b 46 01             	mov    0x1(%esi),%eax

static __inline__ __const__ __u32 ___arch__swab32(__u32 x)
{
#ifdef CONFIG_X86_BSWAP
	__asm__("bswap %0" : "=r" (x) : "0" (x));
     49a:	0f c8                	bswap  %eax
	__arch__swab24s(addr);
}

static __inline__ __const__ __u32 __fswab32(__u32 x)
{
     49c:	89 43 34             	mov    %eax,0x34(%ebx)
    memcpy(dcont->mac, scont->mac, HMACLEN);	\
  } while(0)

UNMARSHALL_CONTINUATION(Server, SERVER_COMPUTE_MAC);
UNMARSHALL_CONTINUATION(Client, CLIENT_COMPUTE_MAC);
     49f:	8b 46 09             	mov    0x9(%esi),%eax
     4a2:	89 43 3c             	mov    %eax,0x3c(%ebx)
     4a5:	8b 46 0d             	mov    0xd(%esi),%eax
     4a8:	89 43 40             	mov    %eax,0x40(%ebx)
     4ab:	8b 46 25             	mov    0x25(%esi),%eax
     4ae:	89 43 44             	mov    %eax,0x44(%ebx)
	__arch__swab24s(addr);
}

static __inline__ __const__ __u32 __fswab32(__u32 x)
{
     4b1:	8b 46 25             	mov    0x25(%esi),%eax

static __inline__ __const__ __u32 ___arch__swab32(__u32 x)
{
#ifdef CONFIG_X86_BSWAP
	__asm__("bswap %0" : "=r" (x) : "0" (x));
     4b4:	0f c8                	bswap  %eax
	__arch__swab24s(addr);
}

static __inline__ __const__ __u32 __fswab32(__u32 x)
{
     4b6:	89 43 4c             	mov    %eax,0x4c(%ebx)
    memcpy(dcont->mac, scont->mac, HMACLEN);	\
  } while(0)

UNMARSHALL_CONTINUATION(Server, SERVER_COMPUTE_MAC);
UNMARSHALL_CONTINUATION(Client, CLIENT_COMPUTE_MAC);
     4b9:	8b 46 11             	mov    0x11(%esi),%eax
     4bc:	89 43 50             	mov    %eax,0x50(%ebx)
     4bf:	8b 46 29             	mov    0x29(%esi),%eax
     4c2:	89 43 48             	mov    %eax,0x48(%ebx)
	__arch__swab24s(addr);
}

static __inline__ __const__ __u32 __fswab32(__u32 x)
{
     4c5:	8b 46 29             	mov    0x29(%esi),%eax

static __inline__ __const__ __u32 ___arch__swab32(__u32 x)
{
#ifdef CONFIG_X86_BSWAP
	__asm__("bswap %0" : "=r" (x) : "0" (x));
     4c8:	0f c8                	bswap  %eax
	__arch__swab24s(addr);
}

static __inline__ __const__ __u32 __fswab32(__u32 x)
{
     4ca:	89 43 54             	mov    %eax,0x54(%ebx)
    memcpy(dcont->mac, scont->mac, HMACLEN);	\
  } while(0)

UNMARSHALL_CONTINUATION(Server, SERVER_COMPUTE_MAC);
UNMARSHALL_CONTINUATION(Client, CLIENT_COMPUTE_MAC);
     4cd:	0f b6 46 2d          	movzbl 0x2d(%esi),%eax
     4d1:	89 43 58             	mov    %eax,0x58(%ebx)
     4d4:	0f b6 46 05          	movzbl 0x5(%esi),%eax
     4d8:	89 43 5c             	mov    %eax,0x5c(%ebx)
	__arch__swab24s(addr);
}

static __inline__ __const__ __u32 __fswab32(__u32 x)
{
     4db:	8b 46 2e             	mov    0x2e(%esi),%eax

static __inline__ __const__ __u32 ___arch__swab32(__u32 x)
{
#ifdef CONFIG_X86_BSWAP
	__asm__("bswap %0" : "=r" (x) : "0" (x));
     4de:	0f c8                	bswap  %eax
	__arch__swab24s(addr);
}

static __inline__ __const__ __u32 __fswab32(__u32 x)
{
     4e0:	89 43 60             	mov    %eax,0x60(%ebx)
     4e3:	8b 46 32             	mov    0x32(%esi),%eax

static __inline__ __const__ __u32 ___arch__swab32(__u32 x)
{
#ifdef CONFIG_X86_BSWAP
	__asm__("bswap %0" : "=r" (x) : "0" (x));
     4e6:	0f c8                	bswap  %eax
	__arch__swab24s(addr);
}

static __inline__ __const__ __u32 __fswab32(__u32 x)
{
     4e8:	89 43 64             	mov    %eax,0x64(%ebx)
     4eb:	8b 46 36             	mov    0x36(%esi),%eax

static __inline__ __const__ __u32 ___arch__swab32(__u32 x)
{
#ifdef CONFIG_X86_BSWAP
	__asm__("bswap %0" : "=r" (x) : "0" (x));
     4ee:	0f c8                	bswap  %eax
	__arch__swab24s(addr);
}

static __inline__ __const__ __u32 __fswab32(__u32 x)
{
     4f0:	89 43 68             	mov    %eax,0x68(%ebx)
     4f3:	8b 46 3a             	mov    0x3a(%esi),%eax

static __inline__ __const__ __u32 ___arch__swab32(__u32 x)
{
#ifdef CONFIG_X86_BSWAP
	__asm__("bswap %0" : "=r" (x) : "0" (x));
     4f6:	0f c8                	bswap  %eax
	__arch__swab24s(addr);
}

static __inline__ __const__ __u32 __fswab32(__u32 x)
{
     4f8:	89 43 6c             	mov    %eax,0x6c(%ebx)
     4fb:	8b 46 3e             	mov    0x3e(%esi),%eax

static __inline__ __const__ __u32 ___arch__swab32(__u32 x)
{
#ifdef CONFIG_X86_BSWAP
	__asm__("bswap %0" : "=r" (x) : "0" (x));
     4fe:	0f c8                	bswap  %eax
	__arch__swab24s(addr);
}

static __inline__ __const__ __u32 __fswab32(__u32 x)
{
     500:	89 43 70             	mov    %eax,0x70(%ebx)
    memcpy(dcont->mac, scont->mac, HMACLEN);	\
  } while(0)

UNMARSHALL_CONTINUATION(Server, SERVER_COMPUTE_MAC);
UNMARSHALL_CONTINUATION(Client, CLIENT_COMPUTE_MAC);
     503:	8b 47 0c             	mov    0xc(%edi),%eax
     506:	8b 80 a8 02 00 00    	mov    0x2a8(%eax),%eax
     50c:	a9 01 00 00 00       	test   $0x1,%eax
     511:	74 05                	je     518 <unmarshallContinuationClient+0xb8>
     513:	83 e0 08             	and    $0x8,%eax
     516:	74 05                	je     51d <unmarshallContinuationClient+0xbd>
     518:	ba 01 00 00 00       	mov    $0x1,%edx
     51d:	85 d2                	test   %edx,%edx
     51f:	75 31                	jne    552 <unmarshallContinuationClient+0xf2>
     521:	31 c0                	xor    %eax,%eax
     523:	31 ff                	xor    %edi,%edi
     525:	89 83 dc 00 00 00    	mov    %eax,0xdc(%ebx)
     52b:	8b 46 42             	mov    0x42(%esi),%eax
     52e:	8b 56 46             	mov    0x46(%esi),%edx
     531:	31 f6                	xor    %esi,%esi
     533:	89 bb c0 00 00 00    	mov    %edi,0xc0(%ebx)
     539:	89 b3 c4 00 00 00    	mov    %esi,0xc4(%ebx)
     53f:	89 43 74             	mov    %eax,0x74(%ebx)
     542:	b8 01 00 00 00       	mov    $0x1,%eax
     547:	89 53 78             	mov    %edx,0x78(%ebx)
     54a:	83 c4 0c             	add    $0xc,%esp
     54d:	5b                   	pop    %ebx
     54e:	5e                   	pop    %esi
     54f:	5f                   	pop    %edi
     550:	5d                   	pop    %ebp
     551:	c3                   	ret    
     552:	8b 47 24             	mov    0x24(%edi),%eax
     555:	8b 40 10             	mov    0x10(%eax),%eax
     558:	89 43 14             	mov    %eax,0x14(%ebx)
     55b:	8b 47 24             	mov    0x24(%edi),%eax
     55e:	8b 40 0c             	mov    0xc(%eax),%eax
     561:	89 43 18             	mov    %eax,0x18(%ebx)
     564:	8b 47 20             	mov    0x20(%edi),%eax
     567:	0f b7 40 02          	movzwl 0x2(%eax),%eax
     56b:	66 89 43 1c          	mov    %ax,0x1c(%ebx)
     56f:	8b 47 20             	mov    0x20(%edi),%eax
     572:	0f b7 00             	movzwl (%eax),%eax
     575:	66 89 43 1e          	mov    %ax,0x1e(%ebx)
     579:	eb a6                	jmp    521 <unmarshallContinuationClient+0xc1>
     57b:	90                   	nop    
     57c:	8d 74 26 00          	lea    0x0(%esi,1),%esi

00000580 <kmalloc_ConversionRequest>:
static int numConversionRequests = 0;

static int sendAckHelper(struct sock *sk, CONTINUATION_TYPE *cont, enum TrickleRequestType type);

struct ConversionRequest *kmalloc_ConversionRequest(int gfp) {
     580:	55                   	push   %ebp
     581:	89 e5                	mov    %esp,%ebp
     583:	83 ec 08             	sub    $0x8,%esp
	numConversionRequests++;
	return kmalloc(sizeof(struct ConversionRequest), gfp);
     586:	c7 04 24 68 00 00 00 	movl   $0x68,(%esp,1)
     58d:	8b 45 08             	mov    0x8(%ebp),%eax
     590:	ff 05 48 00 00 00    	incl   0x48
     596:	89 44 24 04          	mov    %eax,0x4(%esp,1)
     59a:	e8 fc ff ff ff       	call   59b <kmalloc_ConversionRequest+0x1b>
}
     59f:	89 ec                	mov    %ebp,%esp
     5a1:	5d                   	pop    %ebp
     5a2:	c3                   	ret    
     5a3:	8d b6 00 00 00 00    	lea    0x0(%esi),%esi
     5a9:	8d bc 27 00 00 00 00 	lea    0x0(%edi,1),%edi

000005b0 <kmalloc_ContinuationRequest>:

int numContinuationRequests = 0;

struct ContinuationRequest *kmalloc_ContinuationRequest(int gfp) {
     5b0:	55                   	push   %ebp
     5b1:	89 e5                	mov    %esp,%ebp
     5b3:	83 ec 08             	sub    $0x8,%esp
	numContinuationRequests++;
	return kmalloc(sizeof(struct ContinuationRequest), gfp);
     5b6:	c7 04 24 5c 00 00 00 	movl   $0x5c,(%esp,1)
     5bd:	8b 45 08             	mov    0x8(%ebp),%eax
     5c0:	ff 05 00 00 00 00    	incl   0x0
     5c6:	89 44 24 04          	mov    %eax,0x4(%esp,1)
     5ca:	e8 fc ff ff ff       	call   5cb <kmalloc_ContinuationRequest+0x1b>
}
     5cf:	89 ec                	mov    %ebp,%esp
     5d1:	5d                   	pop    %ebp
     5d2:	c3                   	ret    
     5d3:	8d b6 00 00 00 00    	lea    0x0(%esi),%esi
     5d9:	8d bc 27 00 00 00 00 	lea    0x0(%edi,1),%edi

000005e0 <trickles_add_clientsock>:

#ifdef USE_FLOATINGPOINT
// FSAVE/FRESTORE areas to support use of FPU in bottom half
static char fpu_user_save[NR_CPUS][512];
static char fpu_kernel_save[NR_CPUS][512];

// Based on code from asm-i386/xor.h
#define FPU_SAVE(X)							\
  do {									\
	if (!(current->flags & PF_USEDFPU)) {				\
		__asm__ __volatile__ (" clts;\n");			\
	} else 								\
  		__asm__ __volatile__ ("fsave %0; fwait": "=m"((X)[0]));	\
  } while (0)

#define FPU_RESTORE(X)							\
  do {									\
	if (!(current->flags & PF_USEDFPU)) {				\
		stts();							\
	} else 								\
		__asm__ __volatile__ ("frstor %0": : "m"((X)[0]));	\
  } while (0)
#endif // USE_FLOATINGPOINT

#ifndef USERTEST
struct proto trickles_client_prot;

spinlock_t trickles_sockets_head_lock = SPIN_LOCK_UNLOCKED;
struct sock trickles_sockets_head;

void trickles_add_clientsock(struct sock *sk) {
     5e0:	55                   	push   %ebp
     5e1:	89 e5                	mov    %esp,%ebp
     5e3:	8b 4d 08             	mov    0x8(%ebp),%ecx
	struct tcp_opt *tp = &sk->tp_pinfo.af_tcp;
	struct tcp_opt *htp = &trickles_sockets_head.tp_pinfo.af_tcp;
	spin_lock(&trickles_sockets_head_lock);
	tp->t.dnext = htp->t.dnext;
     5e6:	a1 d0 0a 00 00       	mov    0xad0,%eax
     5eb:	8d 91 bc 00 00 00    	lea    0xbc(%ecx),%edx
     5f1:	89 82 14 0a 00 00    	mov    %eax,0xa14(%edx)
	htp->t.dnext = sk;
	tp->t.dprev = &trickles_sockets_head;
     5f7:	b8 00 00 00 00       	mov    $0x0,%eax
     5fc:	89 0d d0 0a 00 00    	mov    %ecx,0xad0
     602:	89 82 10 0a 00 00    	mov    %eax,0xa10(%edx)
	tp->t.dnext->tp_pinfo.af_tcp.t.dprev = sk;
     608:	8b 82 14 0a 00 00    	mov    0xa14(%edx),%eax
     60e:	89 88 cc 0a 00 00    	mov    %ecx,0xacc(%eax)
	spin_unlock(&trickles_sockets_head_lock);
}
     614:	5d                   	pop    %ebp
     615:	c3                   	ret    
     616:	8d 76 00             	lea    0x0(%esi),%esi
     619:	8d bc 27 00 00 00 00 	lea    0x0(%edi,1),%edi

00000620 <trickles_del_clientsock>:

void trickles_del_clientsock(struct sock *sk) {
     620:	55                   	push   %ebp
     621:	89 e5                	mov    %esp,%ebp
     623:	83 ec 10             	sub    $0x10,%esp
     626:	89 75 fc             	mov    %esi,0xfffffffc(%ebp)
     629:	8b 75 08             	mov    0x8(%ebp),%esi
     62c:	89 5d f8             	mov    %ebx,0xfffffff8(%ebp)
	struct tcp_opt *tp = &sk->tp_pinfo.af_tcp;
     62f:	8d 9e bc 00 00 00    	lea    0xbc(%esi),%ebx
	if(tp->t.dprev == NULL) {
     635:	8b 83 10 0a 00 00    	mov    0xa10(%ebx),%eax
     63b:	85 c0                	test   %eax,%eax
     63d:	75 37                	jne    676 <trickles_del_clientsock+0x56>
		BUG_TRAP(tp->t.dnext != NULL);
     63f:	8b 83 14 0a 00 00    	mov    0xa14(%ebx),%eax
     645:	85 c0                	test   %eax,%eax
     647:	74 17                	je     660 <trickles_del_clientsock+0x40>
		printk("Socket not on clientsock list\n");
     649:	c7 45 08 40 00 00 00 	movl   $0x40,0x8(%ebp)
     650:	8b 5d f8             	mov    0xfffffff8(%ebp),%ebx
     653:	8b 75 fc             	mov    0xfffffffc(%ebp),%esi
     656:	89 ec                	mov    %ebp,%esp
     658:	5d                   	pop    %ebp
     659:	e9 fc ff ff ff       	jmp    65a <trickles_del_clientsock+0x3a>
     65e:	89 f6                	mov    %esi,%esi
     660:	c7 44 24 04 d6 00 00 	movl   $0xd6,0x4(%esp,1)
     667:	00 
     668:	c7 04 24 60 00 00 00 	movl   $0x60,(%esp,1)
     66f:	e8 fc ff ff ff       	call   670 <trickles_del_clientsock+0x50>
     674:	eb d3                	jmp    649 <trickles_del_clientsock+0x29>
		return;
	}
	spin_lock(&trickles_sockets_head_lock);
	BUG_TRAP(tp->t.dprev->tp_pinfo.af_tcp.t.dnext == sk);
     676:	39 b0 d0 0a 00 00    	cmp    %esi,0xad0(%eax)
     67c:	74 14                	je     692 <trickles_del_clientsock+0x72>
     67e:	c7 44 24 04 db 00 00 	movl   $0xdb,0x4(%esp,1)
     685:	00 
     686:	c7 04 24 c0 00 00 00 	movl   $0xc0,(%esp,1)
     68d:	e8 fc ff ff ff       	call   68e <trickles_del_clientsock+0x6e>
	BUG_TRAP(tp->t.dnext->tp_pinfo.af_tcp.t.dprev == sk);
     692:	8b 83 14 0a 00 00    	mov    0xa14(%ebx),%eax
     698:	39 b0 cc 0a 00 00    	cmp    %esi,0xacc(%eax)
     69e:	74 1a                	je     6ba <trickles_del_clientsock+0x9a>
     6a0:	c7 44 24 04 dc 00 00 	movl   $0xdc,0x4(%esp,1)
     6a7:	00 
     6a8:	c7 04 24 20 01 00 00 	movl   $0x120,(%esp,1)
     6af:	e8 fc ff ff ff       	call   6b0 <trickles_del_clientsock+0x90>
     6b4:	8b 83 14 0a 00 00    	mov    0xa14(%ebx),%eax
	tp->t.dprev->tp_pinfo.af_tcp.t.dnext = tp->t.dnext;
     6ba:	8b 93 10 0a 00 00    	mov    0xa10(%ebx),%edx
     6c0:	89 82 d0 0a 00 00    	mov    %eax,0xad0(%edx)
	tp->t.dnext->tp_pinfo.af_tcp.t.dprev = tp->t.dprev;
     6c6:	8b 83 14 0a 00 00    	mov    0xa14(%ebx),%eax
     6cc:	89 90 cc 0a 00 00    	mov    %edx,0xacc(%eax)

	tp->t.dprev = tp->t.dnext = NULL;
     6d2:	31 c0                	xor    %eax,%eax
     6d4:	89 83 14 0a 00 00    	mov    %eax,0xa14(%ebx)
     6da:	31 c0                	xor    %eax,%eax
     6dc:	89 83 10 0a 00 00    	mov    %eax,0xa10(%ebx)
	spin_unlock(&trickles_sockets_head_lock);
}
     6e2:	8b 5d f8             	mov    0xfffffff8(%ebp),%ebx
     6e5:	8b 75 fc             	mov    0xfffffffc(%ebp),%esi
     6e8:	89 ec                	mov    %ebp,%esp
     6ea:	5d                   	pop    %ebp
     6eb:	c3                   	ret    
     6ec:	8d 74 26 00          	lea    0x0(%esi,1),%esi

000006f0 <hmac_setup>:
#endif

#define SKB_CONTAINS(SKB, SEQ) \
	((TCP_SKB_CB(SKB)->seq <= (SEQ)) && (TCP_SKB_CB(SKB)->end_seq > (SEQ)))

static inline void *kmalloc_dup(void *src, int len, unsigned gfp) {
	char *ptr = kmalloc(len, gfp);
	if(ptr == NULL) {
		printk("out of memory in kmalloc_dup\n");
		return NULL;
	}
	memcpy(ptr, src, len);
	return ptr;
}

#define requestReleasedData(X) // XXX Deprecated!

/* Simple random number generator */

static unsigned long rand;

static inline unsigned char random(void) {
  /* See "Numerical Recipes in C", second edition, p. 284 */
  rand = rand * 1664525L + 1013904223L;
  return (unsigned char) (rand >> 24);
}

/*
 * Crypto support
 */

const int generateHMAC = 1;
const int generateNonces = 1;

// hack to give gcc more information about constants
#define generateHMAC (1)
#define generateNonces (1)


// Debugging control 
int enableDataRecovery = 1;
int serverDebugLevel = 0;
int debugDrops = 0;
int debugTransitions = 0;

#define PRINT_TRANSITION(SK, S)						\
({ struct sock *_sk = (SK);						\
   struct tcp_opt *_tp = &_sk->tp_pinfo.af_tcp;				\
   printk("%p: %s data rcv_nxt = %d t.rcv_nxt = %d\n", _sk, (S), _tp->rcv_nxt, _tp->t.rcv_nxt); })

int debugProofDrops = 1;
int clientDebugLevel = 0;
//#define SPEW_PARTIAL
int disableSevereErrors = 1;
int printOverlap = 0;
int disableTimeout = 0;

#ifdef OPENSSL_HMAC

void hmac_setup(HMAC_CTX *ctx, char *key, int len) {
     6f0:	55                   	push   %ebp
     6f1:	89 e5                	mov    %esp,%ebp
     6f3:	57                   	push   %edi
     6f4:	56                   	push   %esi
     6f5:	53                   	push   %ebx
     6f6:	83 ec 50             	sub    $0x50,%esp
     6f9:	8b 5d 10             	mov    0x10(%ebp),%ebx
     6fc:	8b 75 0c             	mov    0xc(%ebp),%esi
  BUG_TRAP(len <= HMAC_BLOCKSIZE);
     6ff:	83 fb 40             	cmp    $0x40,%ebx
     702:	0f 8f b7 00 00 00    	jg     7bf <hmac_setup+0xcf>
  memset(ctx->key, 0, HMAC_BLOCKSIZE);
     708:	c7 44 24 08 40 00 00 	movl   $0x40,0x8(%esp,1)
     70f:	00 
     710:	8b 45 08             	mov    0x8(%ebp),%eax
     713:	c7 44 24 04 00 00 00 	movl   $0x0,0x4(%esp,1)
     71a:	00 
     71b:	89 04 24             	mov    %eax,(%esp,1)
     71e:	e8 5d 7c 00 00       	call   8380 <__constant_c_and_count_memset>

static inline void * __memcpy(void * to, const void * from, size_t n)
{
int d0, d1, d2;
__asm__ __volatile__(
     723:	89 d9                	mov    %ebx,%ecx
     725:	8b 7d 08             	mov    0x8(%ebp),%edi
     728:	c1 e9 02             	shr    $0x2,%ecx
     72b:	f3 a5                	repz movsl %ds:(%esi),%es:(%edi)
     72d:	f6 c3 02             	test   $0x2,%bl
     730:	74 02                	je     734 <hmac_setup+0x44>
     732:	66 a5                	movsw  %ds:(%esi),%es:(%edi)
     734:	f6 c3 01             	test   $0x1,%bl
     737:	74 01                	je     73a <hmac_setup+0x4a>
     739:	a4                   	movsb  %ds:(%esi),%es:(%edi)
  memcpy(ctx->key, key, len);

  int i;
  char pad[HMAC_BLOCKSIZE];

  for (i=0; i<HMAC_BLOCKSIZE; i++)
     73a:	31 d2                	xor    %edx,%edx
     73c:	8d 74 26 00          	lea    0x0(%esi,1),%esi
    pad[i]=0x36^ctx->key[i];
     740:	8b 4d 08             	mov    0x8(%ebp),%ecx
     743:	0f b6 04 0a          	movzbl (%edx,%ecx,1),%eax
     747:	34 36                	xor    $0x36,%al
     749:	88 44 2a b4          	mov    %al,0xffffffb4(%edx,%ebp,1)
     74d:	42                   	inc    %edx
     74e:	83 fa 3f             	cmp    $0x3f,%edx
     751:	7e ed                	jle    740 <hmac_setup+0x50>
  DIGEST_Init(&ctx->in_ctx);
     753:	89 cb                	mov    %ecx,%ebx
     755:	83 c3 40             	add    $0x40,%ebx
  DIGEST_Update(&ctx->in_ctx, pad, HMAC_BLOCKSIZE);
     758:	8d 75 b4             	lea    0xffffffb4(%ebp),%esi
     75b:	89 1c 24             	mov    %ebx,(%esp,1)
     75e:	e8 fc ff ff ff       	call   75f <hmac_setup+0x6f>
     763:	c7 44 24 08 40 00 00 	movl   $0x40,0x8(%esp,1)
     76a:	00 
     76b:	89 74 24 04          	mov    %esi,0x4(%esp,1)
     76f:	89 1c 24             	mov    %ebx,(%esp,1)
     772:	e8 fc ff ff ff       	call   773 <hmac_setup+0x83>

  for (i=0; i<HMAC_BLOCKSIZE; i++)
     777:	31 d2                	xor    %edx,%edx
     779:	8d b4 26 00 00 00 00 	lea    0x0(%esi,1),%esi
    pad[i]=0x5c^ctx->key[i];
     780:	8b 7d 08             	mov    0x8(%ebp),%edi
     783:	0f b6 04 3a          	movzbl (%edx,%edi,1),%eax
     787:	34 5c                	xor    $0x5c,%al
     789:	88 44 2a b4          	mov    %al,0xffffffb4(%edx,%ebp,1)
     78d:	42                   	inc    %edx
     78e:	83 fa 3f             	cmp    $0x3f,%edx
     791:	7e ed                	jle    780 <hmac_setup+0x90>
  DIGEST_Init(&ctx->out_ctx);
     793:	89 fb                	mov    %edi,%ebx
     795:	81 c3 9c 00 00 00    	add    $0x9c,%ebx
     79b:	89 1c 24             	mov    %ebx,(%esp,1)
     79e:	e8 fc ff ff ff       	call   79f <hmac_setup+0xaf>
  DIGEST_Update(&ctx->out_ctx, pad, HMAC_BLOCKSIZE);
     7a3:	89 74 24 04          	mov    %esi,0x4(%esp,1)
     7a7:	89 1c 24             	mov    %ebx,(%esp,1)
     7aa:	c7 44 24 08 40 00 00 	movl   $0x40,0x8(%esp,1)
     7b1:	00 
     7b2:	e8 fc ff ff ff       	call   7b3 <hmac_setup+0xc3>
}
     7b7:	83 c4 50             	add    $0x50,%esp
     7ba:	5b                   	pop    %ebx
     7bb:	5e                   	pop    %esi
     7bc:	5f                   	pop    %edi
     7bd:	5d                   	pop    %ebp
     7be:	c3                   	ret    
     7bf:	c7 44 24 04 1f 01 00 	movl   $0x11f,0x4(%esp,1)
     7c6:	00 
     7c7:	c7 04 24 80 01 00 00 	movl   $0x180,(%esp,1)
     7ce:	e8 fc ff ff ff       	call   7cf <hmac_setup+0xdf>
     7d3:	e9 30 ff ff ff       	jmp    708 <hmac_setup+0x18>
     7d8:	90                   	nop    
     7d9:	8d b4 26 00 00 00 00 	lea    0x0(%esi,1),%esi

000007e0 <hmac_init>:

void hmac_init(HMAC_CTX *ctx) {
     7e0:	55                   	push   %ebp
  ctx->digest_ctx = ctx->in_ctx;
     7e1:	fc                   	cld    
     7e2:	89 e5                	mov    %esp,%ebp
     7e4:	83 ec 08             	sub    $0x8,%esp
     7e7:	89 34 24             	mov    %esi,(%esp,1)
     7ea:	8b 75 08             	mov    0x8(%ebp),%esi
     7ed:	b9 17 00 00 00       	mov    $0x17,%ecx
     7f2:	89 7c 24 04          	mov    %edi,0x4(%esp,1)
     7f6:	8d be f8 00 00 00    	lea    0xf8(%esi),%edi
     7fc:	83 c6 40             	add    $0x40,%esi
     7ff:	f3 a5                	repz movsl %ds:(%esi),%es:(%edi)
}
     801:	8b 34 24             	mov    (%esp,1),%esi
     804:	8b 7c 24 04          	mov    0x4(%esp,1),%edi
     808:	89 ec                	mov    %ebp,%esp
     80a:	5d                   	pop    %ebp
     80b:	c3                   	ret    
     80c:	8d 74 26 00          	lea    0x0(%esi,1),%esi

00000810 <hmac_update>:

void hmac_update(HMAC_CTX *ctx, char *data, int len) {
     810:	55                   	push   %ebp
     811:	89 e5                	mov    %esp,%ebp
  DIGEST_Update(&ctx->digest_ctx, data, len);
     813:	8b 45 08             	mov    0x8(%ebp),%eax
     816:	05 f8 00 00 00       	add    $0xf8,%eax
     81b:	89 45 08             	mov    %eax,0x8(%ebp)
     81e:	5d                   	pop    %ebp
     81f:	e9 fc ff ff ff       	jmp    820 <hmac_update+0x10>
     824:	8d b6 00 00 00 00    	lea    0x0(%esi),%esi
     82a:	8d bf 00 00 00 00    	lea    0x0(%edi),%edi

00000830 <hmac_final>:
}

void hmac_final(HMAC_CTX *ctx, char *output) {
     830:	55                   	push   %ebp
     831:	89 e5                	mov    %esp,%ebp
     833:	83 ec 5c             	sub    $0x5c,%esp
     836:	89 75 f8             	mov    %esi,0xfffffff8(%ebp)
     839:	8b 75 08             	mov    0x8(%ebp),%esi
     83c:	89 5d f4             	mov    %ebx,0xfffffff4(%ebp)
  char buf[HMAC_BLOCKSIZE];
  DIGEST_Final(buf, &ctx->digest_ctx);
     83f:	8d 5d b4             	lea    0xffffffb4(%ebp),%ebx
     842:	8d 86 f8 00 00 00    	lea    0xf8(%esi),%eax
     848:	89 7d fc             	mov    %edi,0xfffffffc(%ebp)
  ctx->digest_ctx = ctx->out_ctx;
     84b:	81 c6 9c 00 00 00    	add    $0x9c,%esi
     851:	89 45 b0             	mov    %eax,0xffffffb0(%ebp)
     854:	89 44 24 04          	mov    %eax,0x4(%esp,1)
     858:	89 1c 24             	mov    %ebx,(%esp,1)
     85b:	e8 fc ff ff ff       	call   85c <hmac_final+0x2c>
     860:	fc                   	cld    
     861:	8b 7d b0             	mov    0xffffffb0(%ebp),%edi
     864:	b9 17 00 00 00       	mov    $0x17,%ecx
     869:	f3 a5                	repz movsl %ds:(%esi),%es:(%edi)
  DIGEST_Update(&ctx->digest_ctx, buf, HMACLEN);
     86b:	89 5c 24 04          	mov    %ebx,0x4(%esp,1)
     86f:	c7 44 24 08 10 00 00 	movl   $0x10,0x8(%esp,1)
     876:	00 
     877:	8b 45 b0             	mov    0xffffffb0(%ebp),%eax
     87a:	89 04 24             	mov    %eax,(%esp,1)
     87d:	e8 fc ff ff ff       	call   87e <hmac_final+0x4e>
  DIGEST_Final(output, &ctx->digest_ctx);
     882:	8b 45 b0             	mov    0xffffffb0(%ebp),%eax
     885:	89 44 24 04          	mov    %eax,0x4(%esp,1)
     889:	8b 45 0c             	mov    0xc(%ebp),%eax
     88c:	89 04 24             	mov    %eax,(%esp,1)
     88f:	e8 fc ff ff ff       	call   890 <hmac_final+0x60>
}
     894:	8b 5d f4             	mov    0xfffffff4(%ebp),%ebx
     897:	8b 75 f8             	mov    0xfffffff8(%ebp),%esi
     89a:	8b 7d fc             	mov    0xfffffffc(%ebp),%edi
     89d:	89 ec                	mov    %ebp,%esp
     89f:	5d                   	pop    %ebp
     8a0:	c3                   	ret    
     8a1:	eb 0d                	jmp    8b0 <computeMAC>
     8a3:	90                   	nop    
     8a4:	90                   	nop    
     8a5:	90                   	nop    
     8a6:	90                   	nop    
     8a7:	90                   	nop    
     8a8:	90                   	nop    
     8a9:	90                   	nop    
     8aa:	90                   	nop    
     8ab:	90                   	nop    
     8ac:	90                   	nop    
     8ad:	90                   	nop    
     8ae:	90                   	nop    
     8af:	90                   	nop    

000008b0 <computeMAC>:

#endif // OPENSSL_HMAC

/* NONCE uses AES */

void computeMAC(struct sock *sk, PseudoHeader *phdr, const WireContinuation *cont, char *dest) {
     8b0:	55                   	push   %ebp
     8b1:	89 e5                	mov    %esp,%ebp
     8b3:	83 ec 14             	sub    $0x14,%esp
     8b6:	89 75 fc             	mov    %esi,0xfffffffc(%ebp)
	struct tcp_opt *tp = &(sk->tp_pinfo.af_tcp);
     8b9:	8b 45 08             	mov    0x8(%ebp),%eax
     8bc:	8b 75 0c             	mov    0xc(%ebp),%esi
     8bf:	89 5d f8             	mov    %ebx,0xfffffff8(%ebp)
     8c2:	05 bc 00 00 00       	add    $0xbc,%eax
	if(generateHMAC) {
#ifdef OPENSSL_HMAC
		HMAC_CTX *ctx = tp->t.hmacCTX;
     8c7:	8b 98 0c 0b 00 00    	mov    0xb0c(%eax),%ebx
#ifdef DISABLE_SADDR_HMAC
		phdr->serverAddr = 0;
     8cd:	c7 46 06 00 00 00 00 	movl   $0x0,0x6(%esi)
#endif
		hmac_init(ctx);
     8d4:	89 1c 24             	mov    %ebx,(%esp,1)
     8d7:	e8 fc ff ff ff       	call   8d8 <computeMAC+0x28>
		hmac_update(ctx, (char*)phdr, HMAC_PHEADER_LEN);
     8dc:	89 74 24 04          	mov    %esi,0x4(%esp,1)
     8e0:	89 1c 24             	mov    %ebx,(%esp,1)
     8e3:	c7 44 24 08 12 00 00 	movl   $0x12,0x8(%esp,1)
     8ea:	00 
     8eb:	e8 fc ff ff ff       	call   8ec <computeMAC+0x3c>
		hmac_update(ctx, (char*)cont->hmac_start, WIRECONT_MAC_LEN);
     8f0:	8b 45 10             	mov    0x10(%ebp),%eax
     8f3:	89 1c 24             	mov    %ebx,(%esp,1)
     8f6:	c7 44 24 08 25 00 00 	movl   $0x25,0x8(%esp,1)
     8fd:	00 
     8fe:	83 c0 25             	add    $0x25,%eax
     901:	89 44 24 04          	mov    %eax,0x4(%esp,1)
     905:	e8 fc ff ff ff       	call   906 <computeMAC+0x56>
		hmac_final(ctx, dest);
     90a:	8b 45 14             	mov    0x14(%ebp),%eax
     90d:	89 1c 24             	mov    %ebx,(%esp,1)
     910:	89 44 24 04          	mov    %eax,0x4(%esp,1)
     914:	e8 fc ff ff ff       	call   915 <computeMAC+0x65>
#if 0
		printk("Hmac input\n");
		int position = hexdump((char*)phdr, HMAC_PHEADER_LEN);
		hexdump_helper((char*)cont->hmac_start, 
			       WIRECONT_MAC_LEN, position);
		printk("\n");
		printk("Hmac output\n");
		hexdump((char*)dest, HMACLEN);
		printk("\n");
#endif
#else
#error "not implemented"
		// improve parallelism by making local copy
		hmac_sha(tp->t.hmacKey, HMACLEN, 
			 (char*)cont->hmac_start - HMAC_PHEADER_LEN, WIRECONT_MAC_LEN,
			 dest, HMACLEN);
#endif
	} else {
		memset(dest, 0, HMACLEN);
	}
}
     919:	8b 5d f8             	mov    0xfffffff8(%ebp),%ebx
     91c:	8b 75 fc             	mov    0xfffffffc(%ebp),%esi
     91f:	89 ec                	mov    %ebp,%esp
     921:	5d                   	pop    %ebp
     922:	c3                   	ret    
     923:	8d b6 00 00 00 00    	lea    0x0(%esi),%esi
     929:	8d bc 27 00 00 00 00 	lea    0x0(%edi,1),%edi

00000930 <generateRangeNonce>:
#define NUM_NONCES_PER_BLOCK (NONCE_BLOCKSIZE / sizeof(__u32))

static inline 
__u32 generateCryptoRangeNonceHelper(aes_encrypt_ctx *ctx, __u64 seqNumLeft, __u64 seqNumRight) {
	int i;
	__u64 nums[2] = {seqNumLeft, seqNumRight+1};
	__u64 oldNum = -1;
	__u32 nonce = 0;
	char nonce_out[NONCE_BLOCKSIZE];

	for(i=0; i < 2; i++) {
		__u64 number = nums[i] / NUM_NONCES_PER_BLOCK;
		int offset = nums[i] % NUM_NONCES_PER_BLOCK;
		char nonce_in[NONCE_BLOCKSIZE];
		if(i > 0 && oldNum == number) {
			goto skip_generation;
		}
		memset(nonce_in, 0, NONCE_BLOCKSIZE);
		*((__u64*)nonce_in) = number;
		aes_encrypt(nonce_in, nonce_out, ctx);
	skip_generation:
		nonce ^= ((__u32*)nonce_out)[offset];
		oldNum = number;
	}
	return nonce;
}

__u32 generateRangeNonce(struct sock *sk, __u64 seqNumLeft, __u64 seqNumRight) {
     930:	55                   	push   %ebp
     931:	89 e5                	mov    %esp,%ebp
     933:	57                   	push   %edi
     934:	56                   	push   %esi
     935:	53                   	push   %ebx
     936:	83 ec 58             	sub    $0x58,%esp
     939:	8b 45 0c             	mov    0xc(%ebp),%eax
     93c:	8b 55 10             	mov    0x10(%ebp),%edx
     93f:	8b 5d 08             	mov    0x8(%ebp),%ebx
     942:	8b 75 14             	mov    0x14(%ebp),%esi
     945:	89 45 bc             	mov    %eax,0xffffffbc(%ebp)
     948:	8b 7d 18             	mov    0x18(%ebp),%edi
     94b:	89 55 c0             	mov    %edx,0xffffffc0(%ebp)
	if(SIMULATION_MODE(sk)) {
     94e:	8b 83 a8 02 00 00    	mov    0x2a8(%ebx),%eax
     954:	a9 01 00 00 00       	test   $0x1,%eax
     959:	74 0b                	je     966 <generateRangeNonce+0x36>
     95b:	a9 08 00 00 00       	test   $0x8,%eax
     960:	0f 84 11 01 00 00    	je     a77 <generateRangeNonce+0x147>
		BUG_TRAP(!SIMULATION_MODE(sk));
	}
	struct tcp_opt *tp = &(sk->tp_pinfo.af_tcp);
	int myGenerateNonces = generateNonces && !SIMULATION_MODE(sk);
     966:	31 d2                	xor    %edx,%edx
     968:	a9 01 00 00 00       	test   $0x1,%eax
     96d:	8d 8b bc 00 00 00    	lea    0xbc(%ebx),%ecx
     973:	74 05                	je     97a <generateRangeNonce+0x4a>
     975:	83 e0 08             	and    $0x8,%eax
     978:	74 05                	je     97f <generateRangeNonce+0x4f>
     97a:	ba 01 00 00 00       	mov    $0x1,%edx
	if(myGenerateNonces) {
     97f:	85 d2                	test   %edx,%edx
     981:	0f 84 ce 00 00 00    	je     a55 <generateRangeNonce+0x125>
     987:	8b 89 20 0b 00 00    	mov    0xb20(%ecx),%ecx
     98d:	83 c6 01             	add    $0x1,%esi
     990:	c7 45 ac ff ff ff ff 	movl   $0xffffffff,0xffffffac(%ebp)
     997:	8b 45 bc             	mov    0xffffffbc(%ebp),%eax
     99a:	83 d7 00             	adc    $0x0,%edi
     99d:	8b 55 c0             	mov    0xffffffc0(%ebp),%edx
     9a0:	89 4d b8             	mov    %ecx,0xffffffb8(%ebp)
     9a3:	89 45 e4             	mov    %eax,0xffffffe4(%ebp)
     9a6:	89 55 e8             	mov    %edx,0xffffffe8(%ebp)
     9a9:	89 75 ec             	mov    %esi,0xffffffec(%ebp)
     9ac:	89 7d f0             	mov    %edi,0xfffffff0(%ebp)
     9af:	c7 45 b0 ff ff ff ff 	movl   $0xffffffff,0xffffffb0(%ebp)
     9b6:	c7 45 a8 00 00 00 00 	movl   $0x0,0xffffffa8(%ebp)
     9bd:	c7 45 b4 00 00 00 00 	movl   $0x0,0xffffffb4(%ebp)
     9c4:	8b 55 b4             	mov    0xffffffb4(%ebp),%edx
     9c7:	8b 4c d5 e4          	mov    0xffffffe4(%ebp,%edx,8),%ecx
     9cb:	8b 5c d5 e8          	mov    0xffffffe8(%ebp,%edx,8),%ebx
     9cf:	89 ce                	mov    %ecx,%esi
     9d1:	89 c8                	mov    %ecx,%eax
     9d3:	8b 4d b4             	mov    0xffffffb4(%ebp),%ecx
     9d6:	0f ac de 02          	shrd   $0x2,%ebx,%esi
     9da:	89 df                	mov    %ebx,%edi
     9dc:	83 e0 03             	and    $0x3,%eax
     9df:	c1 ef 02             	shr    $0x2,%edi
     9e2:	85 c9                	test   %ecx,%ecx
     9e4:	89 c3                	mov    %eax,%ebx
     9e6:	7e 0e                	jle    9f6 <generateRangeNonce+0xc6>
     9e8:	8b 55 b0             	mov    0xffffffb0(%ebp),%edx
     9eb:	8b 45 ac             	mov    0xffffffac(%ebp),%eax
     9ee:	31 fa                	xor    %edi,%edx
     9f0:	31 f0                	xor    %esi,%eax
     9f2:	09 c2                	or     %eax,%edx
     9f4:	74 3a                	je     a30 <generateRangeNonce+0x100>
     9f6:	c7 44 24 08 10 00 00 	movl   $0x10,0x8(%esp,1)
     9fd:	00 
     9fe:	8d 45 c4             	lea    0xffffffc4(%ebp),%eax
     a01:	c7 44 24 04 00 00 00 	movl   $0x0,0x4(%esp,1)
     a08:	00 
     a09:	89 04 24             	mov    %eax,(%esp,1)
     a0c:	e8 6f 79 00 00       	call   8380 <__constant_c_and_count_memset>
     a11:	8b 55 b8             	mov    0xffffffb8(%ebp),%edx
     a14:	8d 45 d4             	lea    0xffffffd4(%ebp),%eax
     a17:	89 75 c4             	mov    %esi,0xffffffc4(%ebp)
     a1a:	89 7d c8             	mov    %edi,0xffffffc8(%ebp)
     a1d:	89 54 24 08          	mov    %edx,0x8(%esp,1)
     a21:	8d 55 c4             	lea    0xffffffc4(%ebp),%edx
     a24:	89 44 24 04          	mov    %eax,0x4(%esp,1)
     a28:	89 14 24             	mov    %edx,(%esp,1)
     a2b:	e8 fc ff ff ff       	call   a2c <generateRangeNonce+0xfc>
     a30:	8b 44 9d d4          	mov    0xffffffd4(%ebp,%ebx,4),%eax
     a34:	89 75 ac             	mov    %esi,0xffffffac(%ebp)
     a37:	ff 45 b4             	incl   0xffffffb4(%ebp)
     a3a:	31 45 a8             	xor    %eax,0xffffffa8(%ebp)
     a3d:	89 7d b0             	mov    %edi,0xffffffb0(%ebp)
     a40:	83 7d b4 01          	cmpl   $0x1,0xffffffb4(%ebp)
     a44:	8b 45 a8             	mov    0xffffffa8(%ebp),%eax
     a47:	0f 8e 77 ff ff ff    	jle    9c4 <generateRangeNonce+0x94>
		return generateCryptoRangeNonceHelper(tp->t.nonceCTX, seqNumLeft, seqNumRight);
	} else {
		int i;
		__u64 nums[2] = {seqNumLeft, seqNumRight+1};
		__u32 nonce = 0;
		for(i=0; i < 2; i++) {
			nonce ^= nums[i];
		}
		return nonce;
	}
}
     a4d:	83 c4 58             	add    $0x58,%esp
     a50:	5b                   	pop    %ebx
     a51:	5e                   	pop    %esi
     a52:	5f                   	pop    %edi
     a53:	5d                   	pop    %ebp
     a54:	c3                   	ret    
     a55:	8b 45 bc             	mov    0xffffffbc(%ebp),%eax
     a58:	83 c6 01             	add    $0x1,%esi
     a5b:	8b 55 c0             	mov    0xffffffc0(%ebp),%edx
     a5e:	89 75 cc             	mov    %esi,0xffffffcc(%ebp)
     a61:	89 45 c4             	mov    %eax,0xffffffc4(%ebp)
     a64:	8b 45 cc             	mov    0xffffffcc(%ebp),%eax
     a67:	89 55 c8             	mov    %edx,0xffffffc8(%ebp)
     a6a:	8b 55 c4             	mov    0xffffffc4(%ebp),%edx
     a6d:	83 d7 00             	adc    $0x0,%edi
     a70:	89 7d d0             	mov    %edi,0xffffffd0(%ebp)
     a73:	31 d0                	xor    %edx,%eax
     a75:	eb d6                	jmp    a4d <generateRangeNonce+0x11d>
     a77:	c7 44 24 04 83 01 00 	movl   $0x183,0x4(%esp,1)
     a7e:	00 
     a7f:	c7 04 24 e0 01 00 00 	movl   $0x1e0,(%esp,1)
     a86:	e8 fc ff ff ff       	call   a87 <generateRangeNonce+0x157>
     a8b:	8b 83 a8 02 00 00    	mov    0x2a8(%ebx),%eax
     a91:	e9 d0 fe ff ff       	jmp    966 <generateRangeNonce+0x36>
     a96:	8d 76 00             	lea    0x0(%esi),%esi
     a99:	8d bc 27 00 00 00 00 	lea    0x0(%edi,1),%edi

00000aa0 <generateSingleNonce>:

static inline
__u32 generateCryptoSingleNonceHelper(aes_encrypt_ctx *ctx, __u64 seqNum, struct NonceCtx *prevCtx) {
	__u64 number = seqNum / NUM_NONCES_PER_BLOCK;
	int offset = seqNum % NUM_NONCES_PER_BLOCK;
	char nonce_in[NONCE_BLOCKSIZE];
	char nonce_out_data[NONCE_BLOCKSIZE], *nonce_out = nonce_out_data;
	memset(nonce_in, 0, NONCE_BLOCKSIZE);
	__u32 nonce;

	if(prevCtx) {
		nonce_out = prevCtx->prevBlock;
		if(prevCtx->new) {
			prevCtx->prevNumber = number;
			prevCtx->new = 0;
		} else if(prevCtx->prevNumber == number) {
			goto skipGeneration;
		} else {
			prevCtx->prevNumber = number;
		}
	}
	*((__u64*)nonce_in) = number;

	aes_encrypt(nonce_in, nonce_out, ctx);
 skipGeneration:
	nonce = ((__u32*)nonce_out)[offset];
	if(offset == NUM_NONCES_PER_BLOCK-1) {
		number += 1;
		*((__u64*)nonce_in) = number;
		aes_encrypt(nonce_in, nonce_out, ctx);
		nonce ^= ((__u32*)nonce_out)[0];
		if(prevCtx) {
			prevCtx->prevNumber = number;
		}
	} else {
		nonce ^= ((__u32*)nonce_out)[offset + 1];
	}
	return nonce;
}

__u32 generateSingleNonce(struct sock *sk, __u64 seqNum, struct NonceCtx *prevCtx) {
     aa0:	55                   	push   %ebp
     aa1:	89 e5                	mov    %esp,%ebp
     aa3:	83 ec 20             	sub    $0x20,%esp
     aa6:	89 5d f4             	mov    %ebx,0xfffffff4(%ebp)
     aa9:	8b 45 14             	mov    0x14(%ebp),%eax
     aac:	8b 5d 08             	mov    0x8(%ebp),%ebx
     aaf:	89 75 f8             	mov    %esi,0xfffffff8(%ebp)
     ab2:	8b 75 0c             	mov    0xc(%ebp),%esi
     ab5:	89 7d fc             	mov    %edi,0xfffffffc(%ebp)
     ab8:	8b 7d 10             	mov    0x10(%ebp),%edi
     abb:	89 45 f0             	mov    %eax,0xfffffff0(%ebp)
	BUG_TRAP(!SIMULATION_MODE(sk));
     abe:	8b 83 a8 02 00 00    	mov    0x2a8(%ebx),%eax
     ac4:	a9 01 00 00 00       	test   $0x1,%eax
     ac9:	74 07                	je     ad2 <generateSingleNonce+0x32>
     acb:	a9 08 00 00 00       	test   $0x8,%eax
     ad0:	74 55                	je     b27 <generateSingleNonce+0x87>
	struct tcp_opt *tp = &(sk->tp_pinfo.af_tcp);
	int myGenerateNonces = generateNonces && !SIMULATION_MODE(sk);
     ad2:	31 d2                	xor    %edx,%edx
     ad4:	a9 01 00 00 00       	test   $0x1,%eax
     ad9:	8d 8b bc 00 00 00    	lea    0xbc(%ebx),%ecx
     adf:	74 05                	je     ae6 <generateSingleNonce+0x46>
     ae1:	83 e0 08             	and    $0x8,%eax
     ae4:	74 05                	je     aeb <generateSingleNonce+0x4b>
     ae6:	ba 01 00 00 00       	mov    $0x1,%edx

	if(myGenerateNonces) {
     aeb:	85 d2                	test   %edx,%edx
     aed:	75 12                	jne    b01 <generateSingleNonce+0x61>
		return generateCryptoSingleNonceHelper(tp->t.nonceCTX, seqNum, prevCtx);
	} else {
		return seqNum ^ (seqNum+1);
     aef:	8d 46 01             	lea    0x1(%esi),%eax
	}
}
     af2:	8b 5d f4             	mov    0xfffffff4(%ebp),%ebx
     af5:	31 f0                	xor    %esi,%eax
     af7:	8b 7d fc             	mov    0xfffffffc(%ebp),%edi
     afa:	8b 75 f8             	mov    0xfffffff8(%ebp),%esi
     afd:	89 ec                	mov    %ebp,%esp
     aff:	5d                   	pop    %ebp
     b00:	c3                   	ret    
     b01:	89 75 0c             	mov    %esi,0xc(%ebp)
     b04:	8b 45 f0             	mov    0xfffffff0(%ebp),%eax
     b07:	8b 5d f4             	mov    0xfffffff4(%ebp),%ebx
     b0a:	89 7d 10             	mov    %edi,0x10(%ebp)
     b0d:	8b 75 f8             	mov    0xfffffff8(%ebp),%esi
     b10:	89 45 14             	mov    %eax,0x14(%ebp)
     b13:	8b 81 20 0b 00 00    	mov    0xb20(%ecx),%eax
     b19:	8b 7d fc             	mov    0xfffffffc(%ebp),%edi
     b1c:	89 45 08             	mov    %eax,0x8(%ebp)
     b1f:	89 ec                	mov    %ebp,%esp
     b21:	5d                   	pop    %ebp
     b22:	e9 99 7a 00 00       	jmp    85c0 <generateCryptoSingleNonceHelper>
     b27:	c7 44 24 04 bc 01 00 	movl   $0x1bc,0x4(%esp,1)
     b2e:	00 
     b2f:	c7 04 24 e0 01 00 00 	movl   $0x1e0,(%esp,1)
     b36:	e8 fc ff ff ff       	call   b37 <generateSingleNonce+0x97>
     b3b:	8b 83 a8 02 00 00    	mov    0x2a8(%ebx),%eax
     b41:	eb 8f                	jmp    ad2 <generateSingleNonce+0x32>
     b43:	8d b6 00 00 00 00    	lea    0x0(%esi),%esi
     b49:	8d bc 27 00 00 00 00 	lea    0x0(%edi,1),%edi

00000b50 <__tcp_checksum_complete_user>:

#ifndef USERTEST

/* begin functions copied from tcp_input.c */
static int __tcp_checksum_complete_user(struct sock *sk, struct sk_buff *skb)
{
     b50:	55                   	push   %ebp
     b51:	89 e5                	mov    %esp,%ebp
     b53:	83 ec 14             	sub    $0x14,%esp
     b56:	89 5d fc             	mov    %ebx,0xfffffffc(%ebp)
     b59:	8b 5d 0c             	mov    0xc(%ebp),%ebx
        int result;

	if(skb->ip_summed == CHECKSUM_HW) {
     b5c:	80 7b 7f 01          	cmpb   $0x1,0x7f(%ebx)
     b60:	0f 84 aa 00 00 00    	je     c10 <__tcp_checksum_complete_user+0xc0>
		skb->ip_summed = CHECKSUM_UNNECESSARY;
		if(!tcp_v4_check(skb->h.th, skb->len, skb->nh.iph->saddr, skb->nh.iph->daddr,
				 skb->csum))
			return 0;
		printk("hw tcp checksum failed\n");
		return -1;
	}
        if (sk->lock.users) {
     b66:	8b 45 08             	mov    0x8(%ebp),%eax
     b69:	8b 40 2c             	mov    0x2c(%eax),%eax
     b6c:	85 c0                	test   %eax,%eax
     b6e:	74 63                	je     bd3 <__tcp_checksum_complete_user+0x83>
                local_bh_enable();
     b70:	ba 08 00 00 00       	mov    $0x8,%edx
     b75:	a1 08 00 00 00       	mov    0x8,%eax
     b7a:	48                   	dec    %eax
     b7b:	85 c0                	test   %eax,%eax
     b7d:	a3 08 00 00 00       	mov    %eax,0x8
     b82:	75 0a                	jne    b8e <__tcp_checksum_complete_user+0x3e>
     b84:	83 7a f8 00          	cmpl   $0x0,0xfffffff8(%edx)
     b88:	0f 85 37 8b 00 00    	jne    96c5 <.text.lock.tmalloc>
 *	Fold a partial checksum
 */

static inline unsigned int csum_fold(unsigned int sum)
{
     b8e:	8b 43 78             	mov    0x78(%ebx),%eax
     b91:	89 44 24 0c          	mov    %eax,0xc(%esp,1)
     b95:	8b 43 70             	mov    0x70(%ebx),%eax
     b98:	c7 44 24 04 00 00 00 	movl   $0x0,0x4(%esp,1)
     b9f:	00 
     ba0:	89 1c 24             	mov    %ebx,(%esp,1)
     ba3:	89 44 24 08          	mov    %eax,0x8(%esp,1)
     ba7:	e8 fc ff ff ff       	call   ba8 <__tcp_checksum_complete_user+0x58>
                result = __tcp_checksum_complete(skb);
                local_bh_disable();
     bac:	ff 05 08 00 00 00    	incl   0x8
 */

static inline unsigned int csum_fold(unsigned int sum)
{
	__asm__(
     bb2:	89 c2                	mov    %eax,%edx
     bb4:	c1 e0 10             	shl    $0x10,%eax
     bb7:	81 e2 00 00 ff ff    	and    $0xffff0000,%edx
     bbd:	01 c2                	add    %eax,%edx
     bbf:	81 d2 ff ff 00 00    	adc    $0xffff,%edx
     bc5:	f7 d2                	not    %edx
     bc7:	c1 ea 10             	shr    $0x10,%edx
        } else {
                result = __tcp_checksum_complete(skb);
        }
        return result;
}
     bca:	8b 5d fc             	mov    0xfffffffc(%ebp),%ebx
     bcd:	89 ec                	mov    %ebp,%esp
     bcf:	89 d0                	mov    %edx,%eax
     bd1:	5d                   	pop    %ebp
     bd2:	c3                   	ret    
 *	Fold a partial checksum
 */

static inline unsigned int csum_fold(unsigned int sum)
{
     bd3:	8b 43 78             	mov    0x78(%ebx),%eax
     bd6:	89 44 24 0c          	mov    %eax,0xc(%esp,1)
     bda:	8b 43 70             	mov    0x70(%ebx),%eax
     bdd:	c7 44 24 04 00 00 00 	movl   $0x0,0x4(%esp,1)
     be4:	00 
     be5:	89 1c 24             	mov    %ebx,(%esp,1)
     be8:	89 44 24 08          	mov    %eax,0x8(%esp,1)
     bec:	e8 fc ff ff ff       	call   bed <__tcp_checksum_complete_user+0x9d>
	__asm__(
     bf1:	89 c2                	mov    %eax,%edx
     bf3:	c1 e0 10             	shl    $0x10,%eax
     bf6:	81 e2 00 00 ff ff    	and    $0xffff0000,%edx
     bfc:	01 c2                	add    %eax,%edx
     bfe:	81 d2 ff ff 00 00    	adc    $0xffff,%edx
     c04:	f7 d2                	not    %edx
     c06:	c1 ea 10             	shr    $0x10,%edx
     c09:	eb bf                	jmp    bca <__tcp_checksum_complete_user+0x7a>
     c0b:	90                   	nop    
     c0c:	8d 74 26 00          	lea    0x0(%esi,1),%esi
						   unsigned long daddr,
						   unsigned short len,
						   unsigned short proto,
						   unsigned int sum)
{
     c10:	0f b7 43 70          	movzwl 0x70(%ebx),%eax
/* gcc should generate this for open coded C now too. May be worth switching to 
   it because inline assembly cannot be scheduled. -AK */
static __inline__ __const__ __u16 ___arch__swab16(__u16 x)
{
	__asm__("xchgb %b0,%h0"		/* swap bytes		*/
     c14:	86 c4                	xchg   %al,%ah
#endif /* OPTIMIZE */


static __inline__ __const__ __u16 __fswab16(__u16 x)
{
     c16:	c1 e0 10             	shl    $0x10,%eax
     c19:	05 00 06 00 00       	add    $0x600,%eax
     c1e:	c6 43 7f 02          	movb   $0x2,0x7f(%ebx)
 */
static __inline__ u16 tcp_v4_check(struct tcphdr *th, int len,
				   unsigned long saddr, unsigned long daddr, 
				   unsigned long base)
{
     c22:	8b 4b 24             	mov    0x24(%ebx),%ecx
     c25:	8b 53 78             	mov    0x78(%ebx),%edx
#endif /* OPTIMIZE */


static __inline__ __const__ __u16 __fswab16(__u16 x)
{
     c28:	03 51 10             	add    0x10(%ecx),%edx
     c2b:	13 51 0c             	adc    0xc(%ecx),%edx
     c2e:	11 c2                	adc    %eax,%edx
     c30:	83 d2 00             	adc    $0x0,%edx
 */

static inline unsigned int csum_fold(unsigned int sum)
{
	__asm__(
     c33:	89 d0                	mov    %edx,%eax
     c35:	c1 e2 10             	shl    $0x10,%edx
     c38:	25 00 00 ff ff       	and    $0xffff0000,%eax
     c3d:	01 d0                	add    %edx,%eax
     c3f:	15 ff ff 00 00       	adc    $0xffff,%eax
     c44:	f7 d0                	not    %eax
		"addl %1, %0		;\n"
		"adcl $0xffff, %0	;\n"
		: "=r" (sum)
		: "r" (sum << 16), "0" (sum & 0xffff0000)
	);
	return (~sum) >> 16;
}

static inline unsigned long csum_tcpudp_nofold(unsigned long saddr,
						   unsigned long daddr,
						   unsigned short len,
						   unsigned short proto,
						   unsigned int sum)
{
    __asm__(
	"addl %1, %0	;\n"
	"adcl %2, %0	;\n"
	"adcl %3, %0	;\n"
	"adcl $0, %0	;\n"
	: "=r" (sum)
	: "g" (daddr), "g"(saddr), "g"((ntohs(len)<<16)+proto*256), "0"(sum));
    return sum;
}

/*
 * computes the checksum of the TCP/UDP pseudo-header
 * returns a 16-bit checksum, already complemented
 */
static inline unsigned short int csum_tcpudp_magic(unsigned long saddr,
						   unsigned long daddr,
						   unsigned short len,
						   unsigned short proto,
						   unsigned int sum)
{
     c46:	c1 e8 10             	shr    $0x10,%eax
 */
static __inline__ u16 tcp_v4_check(struct tcphdr *th, int len,
				   unsigned long saddr, unsigned long daddr, 
				   unsigned long base)
{
     c49:	31 d2                	xor    %edx,%edx
     c4b:	66 85 c0             	test   %ax,%ax
     c4e:	0f 84 76 ff ff ff    	je     bca <__tcp_checksum_complete_user+0x7a>
     c54:	c7 04 24 2c 00 00 00 	movl   $0x2c,(%esp,1)
     c5b:	e8 fc ff ff ff       	call   c5c <__tcp_checksum_complete_user+0x10c>
     c60:	ba ff ff ff ff       	mov    $0xffffffff,%edx
     c65:	e9 60 ff ff ff       	jmp    bca <__tcp_checksum_complete_user+0x7a>
     c6a:	8d b6 00 00 00 00    	lea    0x0(%esi),%esi

00000c70 <update_rx_stats>:

static __inline__ int
tcp_checksum_complete_user(struct sock *sk, struct sk_buff *skb)
{
	csum_complete_user_count++;
        return skb->ip_summed != CHECKSUM_UNNECESSARY &&
                __tcp_checksum_complete_user(sk, skb);
}

/* end functions copied from tcp_input.c */

static void update_rx_stats(struct sk_buff *in_skb) {
	numRxPackets++;
     c70:	83 05 00 00 00 00 01 	addl   $0x1,0x0
     c77:	55                   	push   %ebp
     c78:	89 e5                	mov    %esp,%ebp
     c7a:	8b 55 08             	mov    0x8(%ebp),%edx
     c7d:	83 15 04 00 00 00 00 	adcl   $0x0,0x4
	numRxBytes += in_skb->h.th->doff * 4 + in_skb->len;
}
     c84:	5d                   	pop    %ebp
     c85:	8b 42 20             	mov    0x20(%edx),%eax
     c88:	8b 52 70             	mov    0x70(%edx),%edx
     c8b:	0f b6 40 0c          	movzbl 0xc(%eax),%eax
     c8f:	c0 e8 04             	shr    $0x4,%al
     c92:	83 e0 0f             	and    $0xf,%eax
     c95:	8d 04 82             	lea    (%edx,%eax,4),%eax
     c98:	31 d2                	xor    %edx,%edx
     c9a:	01 05 00 00 00 00    	add    %eax,0x0
     ca0:	11 15 04 00 00 00    	adc    %edx,0x4
     ca6:	c3                   	ret    
     ca7:	89 f6                	mov    %esi,%esi
     ca9:	8d bc 27 00 00 00 00 	lea    0x0(%edi,1),%edi

00000cb0 <trickles_rcv_impl>:

static int trickles_rcv_impl(struct sock *sk, struct sk_buff *in_skb) {
     cb0:	55                   	push   %ebp
     cb1:	89 e5                	mov    %esp,%ebp
     cb3:	57                   	push   %edi
     cb4:	56                   	push   %esi
     cb5:	53                   	push   %ebx
     cb6:	31 db                	xor    %ebx,%ebx
     cb8:	83 ec 0c             	sub    $0xc,%esp
     cbb:	ff 05 10 00 00 00    	incl   0x10
	struct tcp_opt *tp = &sk->tp_pinfo.af_tcp;
     cc1:	8b 45 08             	mov    0x8(%ebp),%eax
     cc4:	8b 55 0c             	mov    0xc(%ebp),%edx
     cc7:	05 bc 00 00 00       	add    $0xbc,%eax
     ccc:	89 45 f0             	mov    %eax,0xfffffff0(%ebp)
     ccf:	80 7a 7f 02          	cmpb   $0x2,0x7f(%edx)
     cd3:	74 19                	je     cee <trickles_rcv_impl+0x3e>
     cd5:	89 54 24 04          	mov    %edx,0x4(%esp,1)
     cd9:	8b 4d 08             	mov    0x8(%ebp),%ecx
     cdc:	89 0c 24             	mov    %ecx,(%esp,1)
     cdf:	e8 6c fe ff ff       	call   b50 <__tcp_checksum_complete_user>
     ce4:	85 c0                	test   %eax,%eax
     ce6:	b8 01 00 00 00       	mov    $0x1,%eax
     ceb:	0f 45 d8             	cmovne %eax,%ebx
     cee:	85 db                	test   %ebx,%ebx
     cf0:	0f 85 a5 02 00 00    	jne    f9b <trickles_rcv_impl+0x2eb>
	return skb->data;
}

static inline char *__skb_pull(struct sk_buff *skb, unsigned int len)
{
     cf6:	8b 55 0c             	mov    0xc(%ebp),%edx
	skb->len-=len;
     cf9:	8b 4d 0c             	mov    0xc(%ebp),%ecx
     cfc:	8b 42 20             	mov    0x20(%edx),%eax
     cff:	0f b6 40 0c          	movzbl 0xc(%eax),%eax
     d03:	c0 e8 04             	shr    $0x4,%al
     d06:	83 e0 0f             	and    $0xf,%eax
     d09:	8d 14 85 00 00 00 00 	lea    0x0(,%eax,4),%edx
     d10:	8b 41 70             	mov    0x70(%ecx),%eax
     d13:	29 d0                	sub    %edx,%eax
	if (skb->len < skb->data_len)
     d15:	3b 41 74             	cmp    0x74(%ecx),%eax
     d18:	89 41 70             	mov    %eax,0x70(%ecx)
     d1b:	0f 82 8b 02 00 00    	jb     fac <trickles_rcv_impl+0x2fc>
     d21:	8b 45 0c             	mov    0xc(%ebp),%eax
     d24:	01 90 94 00 00 00    	add    %edx,0x94(%eax)

	if (tcp_checksum_complete_user(sk, in_skb))
		goto csum_error;
	__skb_pull(in_skb, in_skb->h.th->doff * 4);

	in_skb->ip_summed = CHECKSUM_UNNECESSARY;
     d2a:	c6 40 7f 02          	movb   $0x2,0x7f(%eax)
	in_skb->sk = sk;
     d2e:	8b 55 08             	mov    0x8(%ebp),%edx
     d31:	89 50 0c             	mov    %edx,0xc(%eax)

	//local_irq_save(flags); // 0502 - see if disabling/enabling interrupts resolves race condition

	if(sk->tp_pinfo.af_tcp.trickles_opt & TCP_TRICKLES_RSERVER) {
     d34:	f6 82 a8 02 00 00 08 	testb  $0x8,0x2a8(%edx)
     d3b:	0f 84 25 02 00 00    	je     f66 <trickles_rcv_impl+0x2b6>
		int result;
		// First process prequeue overflow
		struct sk_buff *pre_skb;
		while (can_alloc_trickles_msk(sk) && 
     d41:	8d ba 90 02 00 00    	lea    0x290(%edx),%edi
static inline 
int can_alloc_trickles_msk(struct sock *sk) {
	struct tcp_opt *tp = &(sk->tp_pinfo.af_tcp);
	struct alloc_head_list *head = &tp->cminisock_api_config.msk_freelist;
	struct cminisock *curr = 
     d47:	8b 47 04             	mov    0x4(%edi),%eax
		(struct cminisock *)head->next;
	while((struct alloc_head_list*)curr != head && curr->ctl == ALLOC_PROCESSING) {
     d4a:	39 f8                	cmp    %edi,%eax
     d4c:	74 0a                	je     d58 <trickles_rcv_impl+0xa8>
     d4e:	83 78 0c 03          	cmpl   $0x3,0xc(%eax)
     d52:	0f 84 f8 01 00 00    	je     f50 <trickles_rcv_impl+0x2a0>
     d58:	39 f8                	cmp    %edi,%eax
     d5a:	0f 84 cd 00 00 00    	je     e2d <trickles_rcv_impl+0x17d>
{
	struct sk_buff *next, *prev, *result;

	prev = (struct sk_buff *) list;
	next = prev->next;
     d60:	8b 4d f0             	mov    0xfffffff0(%ebp),%ecx
	result = NULL;
     d63:	31 db                	xor    %ebx,%ebx
     d65:	8b 75 f0             	mov    0xfffffff0(%ebp),%esi
     d68:	8b 81 24 0b 00 00    	mov    0xb24(%ecx),%eax
     d6e:	81 c6 24 0b 00 00    	add    $0xb24,%esi
	if (next != prev) {
     d74:	39 f0                	cmp    %esi,%eax
     d76:	74 24                	je     d9c <trickles_rcv_impl+0xec>
		result = next;
     d78:	89 c3                	mov    %eax,%ebx
		next = next->next;
     d7a:	8b 00                	mov    (%eax),%eax
		list->qlen--;
     d7c:	ff 4e 08             	decl   0x8(%esi)
		next->prev = prev;
		prev->next = next;
		result->next = NULL;
		result->prev = NULL;
		result->list = NULL;
     d7f:	c7 43 08 00 00 00 00 	movl   $0x0,0x8(%ebx)
     d86:	89 70 04             	mov    %esi,0x4(%eax)
     d89:	89 81 24 0b 00 00    	mov    %eax,0xb24(%ecx)
     d8f:	c7 43 04 00 00 00 00 	movl   $0x0,0x4(%ebx)
     d96:	c7 03 00 00 00 00    	movl   $0x0,(%ebx)
     d9c:	85 db                	test   %ebx,%ebx
     d9e:	0f 84 89 00 00 00    	je     e2d <trickles_rcv_impl+0x17d>
		       ((pre_skb = __skb_dequeue(&tp->t.prequeueOverflow))
			!= NULL)) {
			update_rx_stats(pre_skb);
     da4:	89 1c 24             	mov    %ebx,(%esp,1)
     da7:	e8 c4 fe ff ff       	call   c70 <update_rx_stats>
			result = server_rcv_impl(sk, pre_skb);
     dac:	8b 45 08             	mov    0x8(%ebp),%eax
     daf:	89 5c 24 04          	mov    %ebx,0x4(%esp,1)
     db3:	89 04 24             	mov    %eax,(%esp,1)
     db6:	e8 fc ff ff ff       	call   db7 <trickles_rcv_impl+0x107>
			if(result == 0 || result == -EINVAL) {
     dbb:	85 c0                	test   %eax,%eax
     dbd:	74 05                	je     dc4 <trickles_rcv_impl+0x114>
     dbf:	83 f8 ea             	cmp    $0xffffffea,%eax
     dc2:	75 0d                	jne    dd1 <trickles_rcv_impl+0x121>
				__kfree_skb(pre_skb);
     dc4:	89 1c 24             	mov    %ebx,(%esp,1)
     dc7:	e8 fc ff ff ff       	call   dc8 <trickles_rcv_impl+0x118>
     dcc:	e9 76 ff ff ff       	jmp    d47 <trickles_rcv_impl+0x97>
			} else {
				BUG_TRAP(result == -ENOMEM);
     dd1:	83 f8 f4             	cmp    $0xfffffff4,%eax
     dd4:	74 14                	je     dea <trickles_rcv_impl+0x13a>
     dd6:	c7 44 24 04 07 02 00 	movl   $0x207,0x4(%esp,1)
     ddd:	00 
     dde:	c7 04 24 40 02 00 00 	movl   $0x240,(%esp,1)
     de5:	e8 fc ff ff ff       	call   de6 <trickles_rcv_impl+0x136>
				RECORD_NOMEM();
     dea:	ff 05 14 00 00 00    	incl   0x14
static inline void __skb_queue_head(struct sk_buff_head *list, struct sk_buff *newsk)
{
	struct sk_buff *prev, *next;

	newsk->list = list;
     df0:	89 73 08             	mov    %esi,0x8(%ebx)
	list->qlen++;
     df3:	ff 46 08             	incl   0x8(%esi)
	prev = (struct sk_buff *)list;
	next = prev->next;
     df6:	8b 55 f0             	mov    0xfffffff0(%ebp),%edx
	newsk->next = next;
	newsk->prev = prev;
     df9:	89 73 04             	mov    %esi,0x4(%ebx)
     dfc:	8b 82 24 0b 00 00    	mov    0xb24(%edx),%eax
     e02:	89 03                	mov    %eax,(%ebx)
	next->prev = newsk;
     e04:	89 58 04             	mov    %ebx,0x4(%eax)
	prev->next = newsk;
}


/**
 *	skb_queue_head - queue a buffer at the list head
 *	@list: list to use
 *	@newsk: buffer to queue
 *
 *	Queue a buffer at the start of the list. This function takes the
 *	list lock and can be used safely with other locking &sk_buff functions
 *	safely.
 *
 *	A buffer cannot be placed on two lists at the same time.
 */	

static inline void skb_queue_head(struct sk_buff_head *list, struct sk_buff *newsk)
{
	unsigned long flags;

	spin_lock_irqsave(&list->lock, flags);
	__skb_queue_head(list, newsk);
	spin_unlock_irqrestore(&list->lock, flags);
}

/**
 *	__skb_queue_tail - queue a buffer at the list tail
 *	@list: list to use
 *	@newsk: buffer to queue
 *
 *	Queue a buffer at the end of a list. This function takes no locks
 *	and you must therefore hold required locks before calling it.
 *
 *	A buffer cannot be placed on two lists at the same time.
 */	
 

static inline void __skb_queue_tail(struct sk_buff_head *list, struct sk_buff *newsk)
{
	struct sk_buff *prev, *next;

	newsk->list = list;
	list->qlen++;
	next = (struct sk_buff *)list;
	prev = next->prev;
     e07:	8b 46 04             	mov    0x4(%esi),%eax
     e0a:	89 9a 24 0b 00 00    	mov    %ebx,0xb24(%edx)
     e10:	8b 4d 0c             	mov    0xc(%ebp),%ecx
     e13:	89 71 08             	mov    %esi,0x8(%ecx)
     e16:	ff 46 08             	incl   0x8(%esi)
	newsk->next = next;
     e19:	89 31                	mov    %esi,(%ecx)
	newsk->prev = prev;
     e1b:	89 41 04             	mov    %eax,0x4(%ecx)
	next->prev = newsk;
	prev->next = newsk;
     e1e:	89 08                	mov    %ecx,(%eax)
     e20:	89 4e 04             	mov    %ecx,0x4(%esi)
				__skb_queue_head(&tp->t.prequeueOverflow, pre_skb);
				__skb_queue_tail(&tp->t.prequeueOverflow, in_skb);
				return 0;
			}
		}
		if(can_alloc_trickles_msk(sk)) {
			goto process_first;
		} else {
			// XXX should defer until later
			if(tp->t.prequeueOverflow.qlen < 20000) {
				__skb_queue_tail(&tp->t.prequeueOverflow, in_skb);
				return 0;
			} else {
				return -1;
			}
		}
		// optimization: process the rest of the prequeue before restoring FPU context
#ifndef USERTEST
		while (can_alloc_trickles_msk(sk) && 
		       ((in_skb = __skb_dequeue(&tp->ucopy.prequeue))
			!= NULL)) {
#endif
		process_first:
			update_rx_stats(in_skb);
			result = server_rcv_impl(sk, in_skb);
			if(result == 0 || result == -EINVAL) {
				__kfree_skb(in_skb);
			} else {
				BUG_TRAP(result == -ENOMEM);
				RECORD_NOMEM();
				__skb_queue_tail(&tp->ucopy.prequeue, in_skb);
				break;
			}
#ifndef USERTEST
		}
#endif
		//local_irq_restore(flags);
		return 0;
	} else {
		int result;

		update_rx_stats(in_skb);
		result = client_rcv_impl(sk, in_skb);
		if(result) {
			__kfree_skb(in_skb);
		}
		//local_irq_restore(flags);
		return 0;
     e23:	31 c0                	xor    %eax,%eax
	}
 csum_error:
	printk("CSUM error!\n");
	// irq not disabled 
	return -1;
}
     e25:	83 c4 0c             	add    $0xc,%esp
     e28:	5b                   	pop    %ebx
     e29:	5e                   	pop    %esi
     e2a:	5f                   	pop    %edi
     e2b:	5d                   	pop    %ebp
     e2c:	c3                   	ret    
static inline 
int can_alloc_trickles_msk(struct sock *sk) {
	struct tcp_opt *tp = &(sk->tp_pinfo.af_tcp);
	struct alloc_head_list *head = &tp->cminisock_api_config.msk_freelist;
	struct cminisock *curr = 
     e2d:	8b 47 04             	mov    0x4(%edi),%eax
		(struct cminisock *)head->next;
	while((struct alloc_head_list*)curr != head && curr->ctl == ALLOC_PROCESSING) {
     e30:	39 f8                	cmp    %edi,%eax
     e32:	74 0a                	je     e3e <trickles_rcv_impl+0x18e>
     e34:	83 78 0c 03          	cmpl   $0x3,0xc(%eax)
     e38:	0f 84 f9 00 00 00    	je     f37 <trickles_rcv_impl+0x287>
     e3e:	39 f8                	cmp    %edi,%eax
     e40:	75 36                	jne    e78 <trickles_rcv_impl+0x1c8>
     e42:	8b 45 f0             	mov    0xfffffff0(%ebp),%eax
     e45:	81 b8 2c 0b 00 00 1f 	cmpl   $0x4e1f,0xb2c(%eax)
     e4c:	4e 00 00 
     e4f:	77 20                	ja     e71 <trickles_rcv_impl+0x1c1>
 */	
 

static inline void __skb_queue_tail(struct sk_buff_head *list, struct sk_buff *newsk)
{
     e51:	05 24 0b 00 00       	add    $0xb24,%eax
	struct sk_buff *prev, *next;

	newsk->list = list;
     e56:	8b 55 0c             	mov    0xc(%ebp),%edx
     e59:	89 42 08             	mov    %eax,0x8(%edx)
	list->qlen++;
	next = (struct sk_buff *)list;
	prev = next->prev;
     e5c:	8b 50 04             	mov    0x4(%eax),%edx
     e5f:	ff 40 08             	incl   0x8(%eax)
	newsk->next = next;
     e62:	8b 4d 0c             	mov    0xc(%ebp),%ecx
     e65:	89 01                	mov    %eax,(%ecx)
	newsk->prev = prev;
     e67:	89 51 04             	mov    %edx,0x4(%ecx)
	next->prev = newsk;
	prev->next = newsk;
     e6a:	89 0a                	mov    %ecx,(%edx)
     e6c:	89 48 04             	mov    %ecx,0x4(%eax)
     e6f:	eb b2                	jmp    e23 <trickles_rcv_impl+0x173>
     e71:	b8 ff ff ff ff       	mov    $0xffffffff,%eax
     e76:	eb ad                	jmp    e25 <trickles_rcv_impl+0x175>
     e78:	8b 4d 0c             	mov    0xc(%ebp),%ecx
     e7b:	89 0c 24             	mov    %ecx,(%esp,1)
     e7e:	e8 ed fd ff ff       	call   c70 <update_rx_stats>
     e83:	8b 45 0c             	mov    0xc(%ebp),%eax
     e86:	8b 55 08             	mov    0x8(%ebp),%edx
     e89:	89 44 24 04          	mov    %eax,0x4(%esp,1)
     e8d:	89 14 24             	mov    %edx,(%esp,1)
     e90:	e8 fc ff ff ff       	call   e91 <trickles_rcv_impl+0x1e1>
     e95:	85 c0                	test   %eax,%eax
     e97:	74 05                	je     e9e <trickles_rcv_impl+0x1ee>
     e99:	83 f8 ea             	cmp    $0xffffffea,%eax
     e9c:	75 6f                	jne    f0d <trickles_rcv_impl+0x25d>
     e9e:	8b 4d 0c             	mov    0xc(%ebp),%ecx
     ea1:	89 0c 24             	mov    %ecx,(%esp,1)
     ea4:	e8 fc ff ff ff       	call   ea5 <trickles_rcv_impl+0x1f5>
static inline 
int can_alloc_trickles_msk(struct sock *sk) {
	struct tcp_opt *tp = &(sk->tp_pinfo.af_tcp);
	struct alloc_head_list *head = &tp->cminisock_api_config.msk_freelist;
	struct cminisock *curr = 
     ea9:	8b 47 04             	mov    0x4(%edi),%eax
     eac:	8d 74 26 00          	lea    0x0(%esi,1),%esi
     eb0:	39 f8                	cmp    %edi,%eax
     eb2:	74 0b                	je     ebf <trickles_rcv_impl+0x20f>
     eb4:	83 78 0c 03          	cmpl   $0x3,0xc(%eax)
     eb8:	75 05                	jne    ebf <trickles_rcv_impl+0x20f>
		(struct cminisock *)head->next;
	while((struct alloc_head_list*)curr != head && curr->ctl == ALLOC_PROCESSING) {
		//printk("alloc_head loop\n");
		curr = curr->next;
     eba:	8b 40 04             	mov    0x4(%eax),%eax
     ebd:	eb f1                	jmp    eb0 <trickles_rcv_impl+0x200>
     ebf:	39 f8                	cmp    %edi,%eax
     ec1:	0f 84 5c ff ff ff    	je     e23 <trickles_rcv_impl+0x173>
{
	struct sk_buff *next, *prev, *result;

	prev = (struct sk_buff *) list;
	next = prev->next;
     ec7:	8b 4d f0             	mov    0xfffffff0(%ebp),%ecx
     eca:	8b 55 f0             	mov    0xfffffff0(%ebp),%edx
     ecd:	8b 41 34             	mov    0x34(%ecx),%eax
	result = NULL;
     ed0:	31 c9                	xor    %ecx,%ecx
     ed2:	83 c2 34             	add    $0x34,%edx
	if (next != prev) {
     ed5:	39 d0                	cmp    %edx,%eax
     ed7:	74 24                	je     efd <trickles_rcv_impl+0x24d>
		result = next;
     ed9:	89 c1                	mov    %eax,%ecx
		next = next->next;
     edb:	8b 00                	mov    (%eax),%eax
		list->qlen--;
     edd:	ff 4a 08             	decl   0x8(%edx)
		next->prev = prev;
     ee0:	89 50 04             	mov    %edx,0x4(%eax)
		prev->next = next;
     ee3:	8b 55 f0             	mov    0xfffffff0(%ebp),%edx
		result->next = NULL;
		result->prev = NULL;
     ee6:	c7 41 04 00 00 00 00 	movl   $0x0,0x4(%ecx)
		result->list = NULL;
     eed:	c7 41 08 00 00 00 00 	movl   $0x0,0x8(%ecx)
     ef4:	89 42 34             	mov    %eax,0x34(%edx)
     ef7:	c7 01 00 00 00 00    	movl   $0x0,(%ecx)
     efd:	89 4d 0c             	mov    %ecx,0xc(%ebp)
     f00:	85 c9                	test   %ecx,%ecx
     f02:	0f 85 70 ff ff ff    	jne    e78 <trickles_rcv_impl+0x1c8>
     f08:	e9 16 ff ff ff       	jmp    e23 <trickles_rcv_impl+0x173>
     f0d:	83 f8 f4             	cmp    $0xfffffff4,%eax
     f10:	74 14                	je     f26 <trickles_rcv_impl+0x276>
     f12:	c7 44 24 04 25 02 00 	movl   $0x225,0x4(%esp,1)
     f19:	00 
     f1a:	c7 04 24 40 02 00 00 	movl   $0x240,(%esp,1)
     f21:	e8 fc ff ff ff       	call   f22 <trickles_rcv_impl+0x272>
     f26:	ff 05 14 00 00 00    	incl   0x14
 */	
 

static inline void __skb_queue_tail(struct sk_buff_head *list, struct sk_buff *newsk)
{
     f2c:	8b 45 f0             	mov    0xfffffff0(%ebp),%eax
     f2f:	83 c0 34             	add    $0x34,%eax
     f32:	e9 1f ff ff ff       	jmp    e56 <trickles_rcv_impl+0x1a6>
	struct cminisock *curr = 
		(struct cminisock *)head->next;
	while((struct alloc_head_list*)curr != head && curr->ctl == ALLOC_PROCESSING) {
		//printk("alloc_head loop\n");
		curr = curr->next;
     f37:	8b 40 04             	mov    0x4(%eax),%eax
     f3a:	39 f8                	cmp    %edi,%eax
     f3c:	0f 84 fc fe ff ff    	je     e3e <trickles_rcv_impl+0x18e>
     f42:	83 78 0c 03          	cmpl   $0x3,0xc(%eax)
     f46:	74 ef                	je     f37 <trickles_rcv_impl+0x287>
     f48:	e9 f1 fe ff ff       	jmp    e3e <trickles_rcv_impl+0x18e>
     f4d:	8d 76 00             	lea    0x0(%esi),%esi
     f50:	8b 40 04             	mov    0x4(%eax),%eax
     f53:	39 f8                	cmp    %edi,%eax
     f55:	0f 84 fd fd ff ff    	je     d58 <trickles_rcv_impl+0xa8>
     f5b:	83 78 0c 03          	cmpl   $0x3,0xc(%eax)
     f5f:	74 ef                	je     f50 <trickles_rcv_impl+0x2a0>
     f61:	e9 f2 fd ff ff       	jmp    d58 <trickles_rcv_impl+0xa8>
     f66:	8b 45 0c             	mov    0xc(%ebp),%eax
     f69:	89 04 24             	mov    %eax,(%esp,1)
     f6c:	e8 ff fc ff ff       	call   c70 <update_rx_stats>
     f71:	8b 55 0c             	mov    0xc(%ebp),%edx
     f74:	8b 4d 08             	mov    0x8(%ebp),%ecx
     f77:	89 54 24 04          	mov    %edx,0x4(%esp,1)
     f7b:	89 0c 24             	mov    %ecx,(%esp,1)
     f7e:	e8 fc ff ff ff       	call   f7f <trickles_rcv_impl+0x2cf>
     f83:	85 c0                	test   %eax,%eax
     f85:	0f 84 98 fe ff ff    	je     e23 <trickles_rcv_impl+0x173>
     f8b:	8b 45 0c             	mov    0xc(%ebp),%eax
     f8e:	89 04 24             	mov    %eax,(%esp,1)
     f91:	e8 fc ff ff ff       	call   f92 <trickles_rcv_impl+0x2e2>
     f96:	e9 88 fe ff ff       	jmp    e23 <trickles_rcv_impl+0x173>
     f9b:	c7 04 24 44 00 00 00 	movl   $0x44,(%esp,1)
     fa2:	e8 fc ff ff ff       	call   fa3 <trickles_rcv_impl+0x2f3>
     fa7:	e9 c5 fe ff ff       	jmp    e71 <trickles_rcv_impl+0x1c1>
static inline char *__skb_pull(struct sk_buff *skb, unsigned int len)
{
	skb->len-=len;
	if (skb->len < skb->data_len)
		out_of_line_bug();
     fac:	c7 04 24 4c 03 00 00 	movl   $0x34c,(%esp,1)
     fb3:	e8 fc ff ff ff       	call   fb4 <trickles_rcv_impl+0x304>
     fb8:	90                   	nop    
     fb9:	8d b4 26 00 00 00 00 	lea    0x0(%esi,1),%esi

00000fc0 <resetClientTimer>:

#endif // USERTEST

/* 
 * 
 * Client handling 
 *
 */

static int findAckables(struct sock *sk, int skip, struct sk_buff **skip_skb);
static void requestSlowStart(struct sock *sk);
static inline void client_inseq(struct sock *sk, struct sk_buff *in_skb, int noCont);

#define MIN_SS_TIMEOUT (HZ/20)
//#define MIN_SS_TIMEOUT (HZ)
//#define MAX_SS_TIMEOUT (HZ/2)
#define MAX_SS_TIMEOUT (2*HZ)

/* slow start moderation */
void resetClientTimer(struct sock *sk) {
     fc0:	55                   	push   %ebp
     fc1:	89 e5                	mov    %esp,%ebp
     fc3:	83 ec 14             	sub    $0x14,%esp
     fc6:	89 7d fc             	mov    %edi,0xfffffffc(%ebp)
	struct tcp_opt *tp = &sk->tp_pinfo.af_tcp;
     fc9:	8b 7d 08             	mov    0x8(%ebp),%edi
     fcc:	89 75 f8             	mov    %esi,0xfffffff8(%ebp)
	unsigned long expiration = jiffies;
     fcf:	8b 35 00 00 00 00    	mov    0x0,%esi
     fd5:	81 c7 bc 00 00 00    	add    $0xbc,%edi
     fdb:	89 5d f4             	mov    %ebx,0xfffffff4(%ebp)

	if(tp->t.state == TRICKLES_CLIENT_SYNACK) {
     fde:	83 bf cc 02 00 00 04 	cmpl   $0x4,0x2cc(%edi)
     fe5:	74 79                	je     1060 <resetClientTimer+0xa0>
		expiration += 2 * HZ;
	} else {
		int timeout = MAX(tp->t.delay, MIN_SS_TIMEOUT);
     fe7:	8b 87 d4 02 00 00    	mov    0x2d4(%edi),%eax
     fed:	bb 05 00 00 00       	mov    $0x5,%ebx
     ff2:	39 c3                	cmp    %eax,%ebx
     ff4:	0f 4c d8             	cmovl  %eax,%ebx
     ff7:	a1 0c f0 04 00       	mov    0x4f00c,%eax
     ffc:	69 c0 0d 66 19 00    	imul   $0x19660d,%eax,%eax
    1002:	05 5f f3 6e 3c       	add    $0x3c6ef35f,%eax
    1007:	89 c1                	mov    %eax,%ecx
    1009:	c1 e9 18             	shr    $0x18,%ecx
    100c:	a3 0c f0 04 00       	mov    %eax,0x4f00c
    1011:	66 0f b6 d1          	movzbw %cl,%dx
    1015:	8d 04 d2             	lea    (%edx,%edx,8),%eax
    1018:	8d 04 42             	lea    (%edx,%eax,2),%eax
    101b:	8d 04 c0             	lea    (%eax,%eax,8),%eax
    101e:	c1 e8 08             	shr    $0x8,%eax
    1021:	d0 e8                	shr    %al
    1023:	88 c2                	mov    %al,%dl
    1025:	00 d2                	add    %dl,%dl
    1027:	00 c2                	add    %al,%dl
    1029:	28 d1                	sub    %dl,%cl
    102b:	0f b6 c1             	movzbl %cl,%eax
    102e:	01 c3                	add    %eax,%ebx
#ifdef RANDOMIZE_SLOWSTART_TIMER
		timeout += random() % ((HZ * 30) / 1000);
#endif
		expiration += timeout;
    1030:	01 de                	add    %ebx,%esi
	}
	// todo: change timeout to measured connection rtt
	if(!mod_timer(&tp->t.slowstart_timer, expiration)) {
    1032:	89 74 24 04          	mov    %esi,0x4(%esp,1)
    1036:	8d 87 34 0a 00 00    	lea    0xa34(%edi),%eax
    103c:	89 04 24             	mov    %eax,(%esp,1)
    103f:	e8 fc ff ff ff       	call   1040 <resetClientTimer+0x80>
    1044:	85 c0                	test   %eax,%eax
    1046:	75 06                	jne    104e <resetClientTimer+0x8e>
 * useful range of an atomic_t is only 24 bits.
 */ 
static __inline__ void atomic_inc(atomic_t *v)
{
	__asm__ __volatile__(
    1048:	8b 45 08             	mov    0x8(%ebp),%eax
    104b:	ff 40 28             	incl   0x28(%eax)
		sock_hold(sk);
	}
}
    104e:	8b 5d f4             	mov    0xfffffff4(%ebp),%ebx
    1051:	8b 75 f8             	mov    0xfffffff8(%ebp),%esi
    1054:	8b 7d fc             	mov    0xfffffffc(%ebp),%edi
    1057:	89 ec                	mov    %ebp,%esp
    1059:	5d                   	pop    %ebp
    105a:	c3                   	ret    
    105b:	90                   	nop    
    105c:	8d 74 26 00          	lea    0x0(%esi,1),%esi
    1060:	81 c6 c8 00 00 00    	add    $0xc8,%esi
    1066:	eb ca                	jmp    1032 <resetClientTimer+0x72>
    1068:	90                   	nop    
    1069:	8d b4 26 00 00 00 00 	lea    0x0(%esi,1),%esi

00001070 <slow_start_timer>:

static void enterRecoveryState(struct sock *sk, int isSlowStart);
struct UC_Continuation *
findUCContinuation(struct sock *sk, unsigned start, unsigned end);

void slow_start_timer(unsigned long data) {
    1070:	55                   	push   %ebp
    1071:	89 e5                	mov    %esp,%ebp
    1073:	57                   	push   %edi
	static int totalNum;
	struct sock *sk = (struct sock *)data;
	struct tcp_opt *tp = &sk->tp_pinfo.af_tcp;
	int numAcks = 0;
	int backedOff = 0;

#ifdef JAM_NORMAL
	if(tp->t.state == TRICKLES_CLIENT_NORMAL) {
		GEN_JAM("NORMAL");
		return;
	}
#endif

#ifdef JAM_SLOWSTART
	if(tp->t.state == TRICKLES_CLIENT_SLOWSTART) {
		if(trickles_ratelimit()) printk("slow_start_timer: Jammed on slow start\n");
		return;
	}
#endif

	totalNum ++;
	if(0 && (clientDebugLevel >= 1 || ( 1 && totalNum % 10000 == 0) || usertest)) {
		printk("Slow start timer @ %lu, rtt = %u, total = %d, numDataRequestMappings = %d, numContinuations = %d, numConversionRequests = %d, numContinuationRequests = %d, tp->rcv_nxt = %u, tp->t.rcv_nxt = %u, sk = %p\n", jiffies, tp->t.rtt, totalNum, numDataRequestMappings, numContinuations, numConversionRequests, numContinuationRequests, tp->rcv_nxt, tp->t.rcv_nxt, sk);
	}
	tp->t.in_flight = 0;
    1074:	31 ff                	xor    %edi,%edi
    1076:	56                   	push   %esi
    1077:	53                   	push   %ebx
    1078:	83 ec 34             	sub    $0x34,%esp
    107b:	c7 45 f0 00 00 00 00 	movl   $0x0,0xfffffff0(%ebp)
    1082:	8b 5d 08             	mov    0x8(%ebp),%ebx
    1085:	ff 05 30 e2 04 00    	incl   0x4e230
    108b:	8d b3 bc 00 00 00    	lea    0xbc(%ebx),%esi
    1091:	89 be fc 02 00 00    	mov    %edi,0x2fc(%esi)
#ifndef USERTEST
	bh_lock_sock(sk);
#if 0 // 0419 - no interaction between user and kernel except on copied_seq. 
	// XXX Removing this check MAY cause a race condition on tp->copied_seq!!!
	if (sk->lock.users) {
		/* Try again later */
		// 0419 trying to fix slow start's interaction with userspace
		tp->t.timerState |= TRICKLES_NEED_SLOWSTART;
		printk("need slowstart 1\n");
		if (!mod_timer(&tp->t.slowstart_timer, jiffies + (HZ/20)))
			sock_hold(sk);
		goto out_unlock;
	}
#endif
	if (sk->state == TCP_CLOSE)
    1097:	0f b6 43 20          	movzbl 0x20(%ebx),%eax
    109b:	3c 07                	cmp    $0x7,%al
    109d:	0f 84 bd 00 00 00    	je     1160 <slow_start_timer+0xf0>
		goto out_unlock;
#endif // USERTEST

	int haveRequests = !empty(&tp->t.sentRequests) || !empty(&tp->t.queuedRequests);
    10a3:	c7 45 ec 00 00 00 00 	movl   $0x0,0xffffffec(%ebp)
#ifdef __KERNEL__
#define VALID_MSK_CTL(X) ((X)->ctl == ALLOC_READY || \
                          (X)->ctl == ALLOC_HALFFREE)

static inline int empty(struct alloc_head_list *head) {
    10aa:	8d 83 24 0b 00 00    	lea    0xb24(%ebx),%eax
    10b0:	39 40 04             	cmp    %eax,0x4(%eax)
    10b3:	75 0b                	jne    10c0 <slow_start_timer+0x50>
    10b5:	8d 83 38 0b 00 00    	lea    0xb38(%ebx),%eax
    10bb:	39 40 04             	cmp    %eax,0x4(%eax)
    10be:	74 07                	je     10c7 <slow_start_timer+0x57>
    10c0:	c7 45 ec 01 00 00 00 	movl   $0x1,0xffffffec(%ebp)
	//printk("Slow start timer(%p), snd_una = %d, write_seq = %d\n", sk, tp->t.snd_una, tp->t.write_seq);


	// First, try to send out any pending acks
	if((numAcks = trickles_send_ack_impl(sk, 0)) == 0) {
    10c7:	c7 44 24 04 00 00 00 	movl   $0x0,0x4(%esp,1)
    10ce:	00 
    10cf:	89 1c 24             	mov    %ebx,(%esp,1)
    10d2:	e8 fc ff ff ff       	call   10d3 <slow_start_timer+0x63>
    10d7:	85 c0                	test   %eax,%eax
    10d9:	89 c7                	mov    %eax,%edi
    10db:	75 4d                	jne    112a <slow_start_timer+0xba>
		if(tp->t.timerState & TRICKLES_ENABLE_DATA_TIMEOUT 
    10dd:	f6 86 d8 02 00 00 01 	testb  $0x1,0x2d8(%esi)
    10e4:	0f 84 c8 01 00 00    	je     12b2 <slow_start_timer+0x242>
		   || findUCContinuation(sk, tp->t.byteReqNext, tp->t.byteReqNext)
		   || haveRequests) {
			//#define STRICT_BUFFER_CHECK
#ifdef STRICT_BUFFER_CHECK // 0419 - fixing extraneous slowstarts with blocked client
			// NOTE!!! POSSIBLE RACE CONDITION WITH USERSPACE SINCE WE DON'T CHECK USER LOCK
			int haveRcvBuf = tp->rcv_nxt < tp->copied_seq + sk->rcvbuf;
			if(!IS_SEND_UCONTREQ_STATE(tp) ||  
			   !empty(&tp->t.sentRequests) ||   // requests we can use
			   !empty(&tp->t.queuedRequests) || //  "" "" 
			   (haveRcvBuf && // have space in buffer, and usable continuation
			    findUCContinuation(sk, tp->rcv_nxt, tp->rcv_nxt))) {
#else
			if(!IS_SEND_UCONTREQ_STATE(tp) || haveRequests ||
    10ea:	8b 86 cc 02 00 00    	mov    0x2cc(%esi),%eax
    10f0:	48                   	dec    %eax
    10f1:	83 f8 02             	cmp    $0x2,%eax
    10f4:	77 0b                	ja     1101 <slow_start_timer+0x91>
    10f6:	8b 55 ec             	mov    0xffffffec(%ebp),%edx
    10f9:	85 d2                	test   %edx,%edx
    10fb:	0f 84 c8 00 00 00    	je     11c9 <slow_start_timer+0x159>
			   findUCContinuation(sk, tp->rcv_nxt, tp->rcv_nxt)) {
#endif
				static int totalNum = 0;
				if((totalNum++ % 100 == 0) || clientDebugLevel >= 1) {
#if 0
					printk("Timing out @ %lu (%d times) sk = %p tp->rcv_nxt = %d, rtt = %d, delay = %d\n", jiffies, totalNum, sk, tp->rcv_nxt, tp->t.rtt, tp->t.delay);
					printk("rtt = %u, total = %d, numDataRequestMappings = %d, numContinuations = %d, numConversionRequests = %d, numContinuationRequests = %d, tp->rcv_nxt = %u, tp->t.rcv_nxt = %u, sk = %p\n", tp->t.rtt, totalNum, numDataRequestMappings, numContinuations, numConversionRequests, numContinuationRequests, tp->rcv_nxt, tp->t.rcv_nxt, sk);
					printk("ContList Length = %d  Cont OFO queue length %d Data OFO queue length %d\n", tp->t.cont_list.len, tp->t.ofo_queue.qlen, tp->t.data_ofo_queue.qlen);
#endif
				}
				/* 1) Enter recovery mode
				   2) Initiate slow start
				*/
				backedOff = 1;
    1101:	c7 45 f0 01 00 00 00 	movl   $0x1,0xfffffff0(%ebp)
    1108:	ff 05 74 00 00 00    	incl   0x74
				enterRecoveryState(sk, 1);
    110e:	c7 44 24 04 01 00 00 	movl   $0x1,0x4(%esp,1)
    1115:	00 
    1116:	89 1c 24             	mov    %ebx,(%esp,1)
    1119:	e8 02 02 00 00       	call   1320 <enterRecoveryState>
#ifdef JAM_SLOWSTART1
				if(trickles_ratelimit()) printk("slow_start_timer: Jam Slowstart 1\n");
				return;
#endif
				requestSlowStart(sk);
    111e:	89 1c 24             	mov    %ebx,(%esp,1)
    1121:	e8 8a 5a 00 00       	call   6bb0 <requestSlowStart>
			} else {
				if(tp->t.conversionState == CONVERSION_IDLE) {
#ifdef STRICT_BUFFER_CHECK
					BUG_TRAP(haveRcvBuf);
#endif
					tp->t.timerState |= TRICKLES_NEED_SLOWSTART;
					//printk("need slowstart 2\n");
					tp->t.timerState &= ~TRICKLES_ENABLE_DATA_TIMEOUT;
				} else {
					if(trickles_ratelimit()) printk("no requests available for timeout ??? \n");
				}
			}
		}
	}
	if(numAcks) {
    1126:	85 ff                	test   %edi,%edi
    1128:	74 10                	je     113a <slow_start_timer+0xca>
		printk("slow start num acks = %d\n", numAcks);
    112a:	89 7c 24 04          	mov    %edi,0x4(%esp,1)
    112e:	c7 04 24 51 00 00 00 	movl   $0x51,(%esp,1)
    1135:	e8 fc ff ff ff       	call   1136 <slow_start_timer+0xc6>
	}
	
	if(!disableTimeout) {
    113a:	a1 00 00 00 00       	mov    0x0,%eax
    113f:	85 c0                	test   %eax,%eax
    1141:	75 1d                	jne    1160 <slow_start_timer+0xf0>
		if(haveRequests || ((tp->t.timerState & TRICKLES_ENABLE_DATA_TIMEOUT) && 
    1143:	8b 45 ec             	mov    0xffffffec(%ebp),%eax
    1146:	85 c0                	test   %eax,%eax
    1148:	75 56                	jne    11a0 <slow_start_timer+0x130>
    114a:	f6 86 d8 02 00 00 01 	testb  $0x1,0x2d8(%esi)
    1151:	75 2e                	jne    1181 <slow_start_timer+0x111>
    1153:	8d b6 00 00 00 00    	lea    0x0(%esi),%esi
    1159:	8d bc 27 00 00 00 00 	lea    0x0(%edi,1),%edi
static __inline__ int atomic_dec_and_test(atomic_t *v)
{
	unsigned char c;

	__asm__ __volatile__(
    1160:	ff 4b 28             	decl   0x28(%ebx)
    1163:	0f 94 c0             	sete   %al
    1166:	84 c0                	test   %al,%al
    1168:	75 08                	jne    1172 <slow_start_timer+0x102>
				    findUCContinuation(sk, tp->t.byteReqNext, tp->t.byteReqNext))) {
			if(!backedOff) {
				int newDelay = tp->t.delay;
				newDelay = MIN(newDelay * 2, MAX_SS_TIMEOUT);
				tp->t.delay = newDelay;
			}
			resetClientTimer(sk); // 0504 - back off timer if no progress made
		}
		// TRICKY: If !enable_data_timeout, or no continuation findUCContinuation(), we MUST reset the timer 
		// when those states become true
	}
#ifndef USERTEST
out_unlock:
	bh_unlock_sock(sk);
	sock_put(sk);
#endif // USERTEST
}
    116a:	83 c4 34             	add    $0x34,%esp
    116d:	5b                   	pop    %ebx
    116e:	5e                   	pop    %esi
    116f:	5f                   	pop    %edi
    1170:	5d                   	pop    %ebp
    1171:	c3                   	ret    
/* Ungrab socket and destroy it, if it was the last reference. */
static inline void sock_put(struct sock *sk)
{
	if (atomic_dec_and_test(&sk->refcnt))
		sk_free(sk);
    1172:	89 5d 08             	mov    %ebx,0x8(%ebp)
    1175:	83 c4 34             	add    $0x34,%esp
    1178:	5b                   	pop    %ebx
    1179:	5e                   	pop    %esi
    117a:	5f                   	pop    %edi
    117b:	5d                   	pop    %ebp
    117c:	e9 fc ff ff ff       	jmp    117d <slow_start_timer+0x10d>
    1181:	8b 86 b8 0a 00 00    	mov    0xab8(%esi),%eax
    1187:	89 1c 24             	mov    %ebx,(%esp,1)
    118a:	89 44 24 08          	mov    %eax,0x8(%esp,1)
    118e:	89 44 24 04          	mov    %eax,0x4(%esp,1)
    1192:	e8 fc ff ff ff       	call   1193 <slow_start_timer+0x123>
    1197:	85 c0                	test   %eax,%eax
    1199:	74 c5                	je     1160 <slow_start_timer+0xf0>
    119b:	90                   	nop    
    119c:	8d 74 26 00          	lea    0x0(%esi,1),%esi
    11a0:	8b 45 f0             	mov    0xfffffff0(%ebp),%eax
    11a3:	85 c0                	test   %eax,%eax
    11a5:	75 18                	jne    11bf <slow_start_timer+0x14f>
    11a7:	8b 96 d4 02 00 00    	mov    0x2d4(%esi),%edx
    11ad:	b8 c8 00 00 00       	mov    $0xc8,%eax
    11b2:	01 d2                	add    %edx,%edx
    11b4:	39 d0                	cmp    %edx,%eax
    11b6:	0f 4f c2             	cmovg  %edx,%eax
    11b9:	89 86 d4 02 00 00    	mov    %eax,0x2d4(%esi)
    11bf:	89 1c 24             	mov    %ebx,(%esp,1)
    11c2:	e8 fc ff ff ff       	call   11c3 <slow_start_timer+0x153>
    11c7:	eb 97                	jmp    1160 <slow_start_timer+0xf0>
    11c9:	8b 46 08             	mov    0x8(%esi),%eax
    11cc:	89 1c 24             	mov    %ebx,(%esp,1)
    11cf:	89 44 24 08          	mov    %eax,0x8(%esp,1)
    11d3:	89 44 24 04          	mov    %eax,0x4(%esp,1)
    11d7:	e8 fc ff ff ff       	call   11d8 <slow_start_timer+0x168>
    11dc:	85 c0                	test   %eax,%eax
    11de:	0f 85 1d ff ff ff    	jne    1101 <slow_start_timer+0x91>
    11e4:	8b 86 c0 0a 00 00    	mov    0xac0(%esi),%eax
    11ea:	85 c0                	test   %eax,%eax
    11ec:	75 17                	jne    1205 <slow_start_timer+0x195>
    11ee:	8b 86 d8 02 00 00    	mov    0x2d8(%esi),%eax
    11f4:	83 c8 02             	or     $0x2,%eax
    11f7:	83 e0 fe             	and    $0xfffffffe,%eax
    11fa:	89 86 d8 02 00 00    	mov    %eax,0x2d8(%esi)
    1200:	e9 21 ff ff ff       	jmp    1126 <slow_start_timer+0xb6>
    1205:	a1 00 00 00 00       	mov    0x0,%eax
    120a:	9c                   	pushf  
    120b:	59                   	pop    %ecx
    120c:	fa                   	cli    
    120d:	89 c2                	mov    %eax,%edx
    120f:	2b 15 34 e2 04 00    	sub    0x4e234,%edx
    1215:	a3 34 e2 04 00       	mov    %eax,0x4e234
    121a:	03 15 78 00 00 00    	add    0x78,%edx
    1220:	81 fa 88 13 00 00    	cmp    $0x1388,%edx
    1226:	89 15 78 00 00 00    	mov    %edx,0x78
    122c:	76 0f                	jbe    123d <slow_start_timer+0x1cd>
    122e:	b8 88 13 00 00       	mov    $0x1388,%eax
    1233:	ba 88 13 00 00       	mov    $0x1388,%edx
    1238:	a3 78 00 00 00       	mov    %eax,0x78
    123d:	81 fa f3 01 00 00    	cmp    $0x1f3,%edx
    1243:	76 61                	jbe    12a6 <slow_start_timer+0x236>
    1245:	81 ea f4 01 00 00    	sub    $0x1f4,%edx
    124b:	a1 38 e2 04 00       	mov    0x4e238,%eax
    1250:	89 15 78 00 00 00    	mov    %edx,0x78
    1256:	c7 05 38 e2 04 00 00 	movl   $0x0,0x4e238
    125d:	00 00 00 
    1260:	51                   	push   %ecx
    1261:	9d                   	popf   
    1262:	85 c0                	test   %eax,%eax
    1264:	75 1e                	jne    1284 <slow_start_timer+0x214>
    1266:	b8 01 00 00 00       	mov    $0x1,%eax
    126b:	85 c0                	test   %eax,%eax
    126d:	0f 84 b3 fe ff ff    	je     1126 <slow_start_timer+0xb6>
    1273:	c7 04 24 80 02 00 00 	movl   $0x280,(%esp,1)
    127a:	e8 fc ff ff ff       	call   127b <slow_start_timer+0x20b>
    127f:	e9 a2 fe ff ff       	jmp    1126 <slow_start_timer+0xb6>
    1284:	89 44 24 0c          	mov    %eax,0xc(%esp,1)
    1288:	c7 44 24 08 c6 02 00 	movl   $0x2c6,0x8(%esp,1)
    128f:	00 
    1290:	c7 44 24 04 6b 00 00 	movl   $0x6b,0x4(%esp,1)
    1297:	00 
    1298:	c7 04 24 c0 02 00 00 	movl   $0x2c0,(%esp,1)
    129f:	e8 fc ff ff ff       	call   12a0 <slow_start_timer+0x230>
    12a4:	eb c0                	jmp    1266 <slow_start_timer+0x1f6>
    12a6:	ff 05 38 e2 04 00    	incl   0x4e238
    12ac:	51                   	push   %ecx
    12ad:	9d                   	popf   
    12ae:	31 c0                	xor    %eax,%eax
    12b0:	eb b9                	jmp    126b <slow_start_timer+0x1fb>
    12b2:	8b 86 b8 0a 00 00    	mov    0xab8(%esi),%eax
    12b8:	89 1c 24             	mov    %ebx,(%esp,1)
    12bb:	89 44 24 08          	mov    %eax,0x8(%esp,1)
    12bf:	89 44 24 04          	mov    %eax,0x4(%esp,1)
    12c3:	e8 fc ff ff ff       	call   12c4 <slow_start_timer+0x254>
    12c8:	85 c0                	test   %eax,%eax
    12ca:	0f 85 1a fe ff ff    	jne    10ea <slow_start_timer+0x7a>
    12d0:	8b 4d ec             	mov    0xffffffec(%ebp),%ecx
    12d3:	85 c9                	test   %ecx,%ecx
    12d5:	0f 84 4b fe ff ff    	je     1126 <slow_start_timer+0xb6>
    12db:	e9 0a fe ff ff       	jmp    10ea <slow_start_timer+0x7a>

000012e0 <trickles_client_connected_impl>:

static void trickles_client_connected_impl(struct sock *sk) {
    12e0:	55                   	push   %ebp
    12e1:	89 e5                	mov    %esp,%ebp
    12e3:	83 ec 0c             	sub    $0xc,%esp
    12e6:	89 5d f8             	mov    %ebx,0xfffffff8(%ebp)
    12e9:	8b 5d 08             	mov    0x8(%ebp),%ebx
    12ec:	89 75 fc             	mov    %esi,0xfffffffc(%ebp)
	struct tcp_opt *tp = &sk->tp_pinfo.af_tcp;
    12ef:	8d b3 bc 00 00 00    	lea    0xbc(%ebx),%esi
	/* Called once client establishes connection */
	/* 1) Clear all timers
	   2) Initialize trickles timeout timer 
	*/
#ifndef USERTEST
	tcp_clear_xmit_timers(sk);
    12f5:	89 1c 24             	mov    %ebx,(%esp,1)
    12f8:	e8 fc ff ff ff       	call   12f9 <trickles_client_connected_impl+0x19>
	tp->t.slowstart_timer.function = &slow_start_timer;
    12fd:	b8 00 00 00 00       	mov    $0x0,%eax
	tp->t.slowstart_timer.data = (long)sk;
    1302:	89 9e 40 0a 00 00    	mov    %ebx,0xa40(%esi)
    1308:	89 86 44 0a 00 00    	mov    %eax,0xa44(%esi)
	resetClientTimer(sk);
    130e:	8b 75 fc             	mov    0xfffffffc(%ebp),%esi
    1311:	89 5d 08             	mov    %ebx,0x8(%ebp)
    1314:	8b 5d f8             	mov    0xfffffff8(%ebp),%ebx
    1317:	89 ec                	mov    %ebp,%esp
    1319:	5d                   	pop    %ebp
    131a:	e9 fc ff ff ff       	jmp    131b <trickles_client_connected_impl+0x3b>
    131f:	90                   	nop    

00001320 <enterRecoveryState>:
#endif // USERTEST
}

inline int Sack_contains(Sack *sack, int seq);

#if 0
// replaced with rebuildAckProof (cleaner design)
static void advanceAckProof(AckProof *proof, __u32 seq) {
	int i, j;
	for(i=0; i < proof->numSacks; i++) {
		if(Sack_contains(&proof->sacks[i], seq)) {
			break;
		}
	}
	if(i == proof->numSacks) {
		printk("advanceAckProof Error: Could not find target seqnum\n");
		proof->numSacks = 0;
		return;
	}
	for(j=0; j < proof->numSacks - i; j++) {
		proof->sacks[j] = proof->sacks[i + j];
	}
	proof->numSacks = proof->numSacks - i;
}
#endif

//#define CURR_CONT(X) ((CONTINUATION_TYPE *)((X)->tp_pinfo.af_tcp.t.ack_curr ? (X)->tp_pinfo.af_tcp.t.ack_curr : (X)->tp_pinfo.af_tcp.t.ack_prev))

void AckProof_dump(AckProof *proof);
static void enterRecoveryState(struct sock *sk, int reqSlowStart) {
    1320:	55                   	push   %ebp
    1321:	89 e5                	mov    %esp,%ebp
    1323:	83 ec 14             	sub    $0x14,%esp
    1326:	89 7d fc             	mov    %edi,0xfffffffc(%ebp)
    1329:	8b 7d 08             	mov    0x8(%ebp),%edi
    132c:	8b 55 0c             	mov    0xc(%ebp),%edx
    132f:	89 5d f4             	mov    %ebx,0xfffffff4(%ebp)
	struct tcp_opt *tp = &sk->tp_pinfo.af_tcp;
    1332:	8d 9f bc 00 00 00    	lea    0xbc(%edi),%ebx
    1338:	89 75 f8             	mov    %esi,0xfffffff8(%ebp)
	int newDelay = tp->t.delay;

#ifdef SLOWSTART_ONLY
	reqSlowStart = 1;
#endif
	// enterRecoveryState may be called multiple times 
	// during the same Fast Recovery, but only once per SlowStart attempt
#ifdef JAM_SLOWSTART
	if(trickles_ratelimit()) printk("Jam slowstart - enterRecoverystate\n");
	return;
#endif
	switch(tp->t.state) {
    133b:	8b 83 cc 02 00 00    	mov    0x2cc(%ebx),%eax
    1341:	8b b3 d4 02 00 00    	mov    0x2d4(%ebx),%esi
    1347:	83 f8 02             	cmp    $0x2,%eax
    134a:	0f 84 45 01 00 00    	je     1495 <enterRecoveryState+0x175>
    1350:	83 f8 02             	cmp    $0x2,%eax
    1353:	0f 8f dd 00 00 00    	jg     1436 <enterRecoveryState+0x116>
    1359:	48                   	dec    %eax
    135a:	74 24                	je     1380 <enterRecoveryState+0x60>
	case TRICKLES_CLIENT_NORMAL:
		if(reqSlowStart) {
			if(clientDebugLevel >= 1 || debugTransitions)
				printk("%p: Normal=>SlowStart\n", sk);
			tp->t.state = TRICKLES_CLIENT_SLOWSTART;
			newDelay = MIN(newDelay * 6, MAX_SS_TIMEOUT);
			tp->t.clientStateCounter++;
			tp->t.request_snd_nxt++;
			tp->t.request_rcv_nxt = tp->t.request_snd_nxt;
		} else {
			if(clientDebugLevel >= 1 || debugTransitions) {
				printk("%p: Normal=>Recovery\n", sk);
				AckProof_dump(&tp->t.altProof);
			}
			tp->t.state = TRICKLES_CLIENT_RECOVERY;
			newDelay = MIN(newDelay * 2, MAX_SS_TIMEOUT);
			tp->t.clientStateCounter++;
		}
		break;
	case TRICKLES_CLIENT_RECOVERY:
		if(reqSlowStart) {
			tp->t.state = TRICKLES_CLIENT_SLOWSTART;
			newDelay = MIN(newDelay * 3, MAX_SS_TIMEOUT); // 2 * 3 = 6
			if(clientDebugLevel >= 1 || debugTransitions)
				printk("%p: Recovery=>SlowStart\n", sk);
			tp->t.clientStateCounter++;
			tp->t.request_snd_nxt++;
			tp->t.request_rcv_nxt = tp->t.request_snd_nxt;
		} else {
			// already in recovery state; take no action
			if(clientDebugLevel >= 1 || debugTransitions) {
				printk("%p: Recovery=>Recovery\n", sk);
				AckProof_dump(&tp->t.altProof);
			}
			// DO NOT UPDATE CLIENTSTATE COUNTER (or any other state)
			return;
		}
		break;
	case TRICKLES_CLIENT_SLOWSTART:
		BUG_TRAP(reqSlowStart);
		newDelay = MIN(newDelay * 2, MAX_SS_TIMEOUT);
		if(clientDebugLevel >= 1 || debugTransitions)
			printk("%p: SlowStart=>SlowStart\n", sk);
		// Unlike client_recovery=>client_recovery transition,
		// take action: send another slow start request
		tp->t.clientStateCounter++;
		tp->t.request_snd_nxt++;
		tp->t.request_rcv_nxt = tp->t.request_snd_nxt;
		break;
	}

	tp->t.delay = MAX(newDelay, MIN_SS_TIMEOUT);
    135c:	b8 05 00 00 00       	mov    $0x5,%eax
    1361:	39 f0                	cmp    %esi,%eax
    1363:	0f 4c c6             	cmovl  %esi,%eax
    1366:	89 83 d4 02 00 00    	mov    %eax,0x2d4(%ebx)
}
    136c:	8b 5d f4             	mov    0xfffffff4(%ebp),%ebx
    136f:	8b 75 f8             	mov    0xfffffff8(%ebp),%esi
    1372:	8b 7d fc             	mov    0xfffffffc(%ebp),%edi
    1375:	89 ec                	mov    %ebp,%esp
    1377:	5d                   	pop    %ebp
    1378:	c3                   	ret    
    1379:	8d b4 26 00 00 00 00 	lea    0x0(%esi,1),%esi
    1380:	85 d2                	test   %edx,%edx
    1382:	74 5b                	je     13df <enterRecoveryState+0xbf>
    1384:	a1 00 00 00 00       	mov    0x0,%eax
    1389:	85 c0                	test   %eax,%eax
    138b:	7e 47                	jle    13d4 <enterRecoveryState+0xb4>
    138d:	89 7c 24 04          	mov    %edi,0x4(%esp,1)
    1391:	c7 04 24 76 00 00 00 	movl   $0x76,(%esp,1)
    1398:	e8 fc ff ff ff       	call   1399 <enterRecoveryState+0x79>
    139d:	b8 03 00 00 00       	mov    $0x3,%eax
    13a2:	ba c8 00 00 00       	mov    $0xc8,%edx
    13a7:	89 83 cc 02 00 00    	mov    %eax,0x2cc(%ebx)
    13ad:	8d 04 76             	lea    (%esi,%esi,2),%eax
    13b0:	01 c0                	add    %eax,%eax
    13b2:	39 c2                	cmp    %eax,%edx
    13b4:	89 c6                	mov    %eax,%esi
    13b6:	0f 4e f2             	cmovle %edx,%esi
    13b9:	ff 83 c8 02 00 00    	incl   0x2c8(%ebx)
    13bf:	8b 83 4c 0a 00 00    	mov    0xa4c(%ebx),%eax
    13c5:	40                   	inc    %eax
    13c6:	89 83 4c 0a 00 00    	mov    %eax,0xa4c(%ebx)
    13cc:	89 83 48 0a 00 00    	mov    %eax,0xa48(%ebx)
    13d2:	eb 88                	jmp    135c <enterRecoveryState+0x3c>
    13d4:	a1 00 00 00 00       	mov    0x0,%eax
    13d9:	85 c0                	test   %eax,%eax
    13db:	74 c0                	je     139d <enterRecoveryState+0x7d>
    13dd:	eb ae                	jmp    138d <enterRecoveryState+0x6d>
    13df:	a1 00 00 00 00       	mov    0x0,%eax
    13e4:	85 c0                	test   %eax,%eax
    13e6:	7e 43                	jle    142b <enterRecoveryState+0x10b>
    13e8:	89 7c 24 04          	mov    %edi,0x4(%esp,1)
    13ec:	c7 04 24 8d 00 00 00 	movl   $0x8d,(%esp,1)
    13f3:	e8 fc ff ff ff       	call   13f4 <enterRecoveryState+0xd4>
    13f8:	8d 87 c4 06 00 00    	lea    0x6c4(%edi),%eax
    13fe:	89 04 24             	mov    %eax,(%esp,1)
    1401:	e8 fc ff ff ff       	call   1402 <enterRecoveryState+0xe2>
    1406:	8d 04 36             	lea    (%esi,%esi,1),%eax
    1409:	ba c8 00 00 00       	mov    $0xc8,%edx
    140e:	39 c2                	cmp    %eax,%edx
    1410:	bf 02 00 00 00       	mov    $0x2,%edi
    1415:	89 c6                	mov    %eax,%esi
    1417:	0f 4e f2             	cmovle %edx,%esi
    141a:	89 bb cc 02 00 00    	mov    %edi,0x2cc(%ebx)
    1420:	ff 83 c8 02 00 00    	incl   0x2c8(%ebx)
    1426:	e9 31 ff ff ff       	jmp    135c <enterRecoveryState+0x3c>
    142b:	a1 00 00 00 00       	mov    0x0,%eax
    1430:	85 c0                	test   %eax,%eax
    1432:	74 d2                	je     1406 <enterRecoveryState+0xe6>
    1434:	eb b2                	jmp    13e8 <enterRecoveryState+0xc8>
    1436:	83 f8 03             	cmp    $0x3,%eax
    1439:	0f 85 1d ff ff ff    	jne    135c <enterRecoveryState+0x3c>
    143f:	85 d2                	test   %edx,%edx
    1441:	74 3c                	je     147f <enterRecoveryState+0x15f>
    1443:	8d 04 36             	lea    (%esi,%esi,1),%eax
    1446:	ba c8 00 00 00       	mov    $0xc8,%edx
    144b:	39 c2                	cmp    %eax,%edx
    144d:	89 c6                	mov    %eax,%esi
    144f:	a1 00 00 00 00       	mov    0x0,%eax
    1454:	0f 4e f2             	cmovle %edx,%esi
    1457:	85 c0                	test   %eax,%eax
    1459:	7e 15                	jle    1470 <enterRecoveryState+0x150>
    145b:	89 7c 24 04          	mov    %edi,0x4(%esp,1)
    145f:	c7 04 24 a3 00 00 00 	movl   $0xa3,(%esp,1)
    1466:	e8 fc ff ff ff       	call   1467 <enterRecoveryState+0x147>
    146b:	e9 49 ff ff ff       	jmp    13b9 <enterRecoveryState+0x99>
    1470:	a1 00 00 00 00       	mov    0x0,%eax
    1475:	85 c0                	test   %eax,%eax
    1477:	0f 84 3c ff ff ff    	je     13b9 <enterRecoveryState+0x99>
    147d:	eb dc                	jmp    145b <enterRecoveryState+0x13b>
    147f:	c7 44 24 04 40 03 00 	movl   $0x340,0x4(%esp,1)
    1486:	00 
    1487:	c7 04 24 00 03 00 00 	movl   $0x300,(%esp,1)
    148e:	e8 fc ff ff ff       	call   148f <enterRecoveryState+0x16f>
    1493:	eb ae                	jmp    1443 <enterRecoveryState+0x123>
    1495:	85 d2                	test   %edx,%edx
    1497:	74 47                	je     14e0 <enterRecoveryState+0x1c0>
    1499:	b9 03 00 00 00       	mov    $0x3,%ecx
    149e:	8d 14 76             	lea    (%esi,%esi,2),%edx
    14a1:	b8 c8 00 00 00       	mov    $0xc8,%eax
    14a6:	89 8b cc 02 00 00    	mov    %ecx,0x2cc(%ebx)
    14ac:	39 d0                	cmp    %edx,%eax
    14ae:	89 d6                	mov    %edx,%esi
    14b0:	8b 15 00 00 00 00    	mov    0x0,%edx
    14b6:	0f 4e f0             	cmovle %eax,%esi
    14b9:	85 d2                	test   %edx,%edx
    14bb:	7e 0d                	jle    14ca <enterRecoveryState+0x1aa>
    14bd:	89 7c 24 04          	mov    %edi,0x4(%esp,1)
    14c1:	c7 04 24 bd 00 00 00 	movl   $0xbd,(%esp,1)
    14c8:	eb 9c                	jmp    1466 <enterRecoveryState+0x146>
    14ca:	a1 00 00 00 00       	mov    0x0,%eax
    14cf:	85 c0                	test   %eax,%eax
    14d1:	0f 84 e2 fe ff ff    	je     13b9 <enterRecoveryState+0x99>
    14d7:	eb e4                	jmp    14bd <enterRecoveryState+0x19d>
    14d9:	8d b4 26 00 00 00 00 	lea    0x0(%esi,1),%esi
    14e0:	a1 00 00 00 00       	mov    0x0,%eax
    14e5:	85 c0                	test   %eax,%eax
    14e7:	7e 2a                	jle    1513 <enterRecoveryState+0x1f3>
    14e9:	89 7c 24 04          	mov    %edi,0x4(%esp,1)
    14ed:	c7 04 24 d6 00 00 00 	movl   $0xd6,(%esp,1)
    14f4:	e8 fc ff ff ff       	call   14f5 <enterRecoveryState+0x1d5>
    14f9:	8d 87 c4 06 00 00    	lea    0x6c4(%edi),%eax
    14ff:	8b 5d f4             	mov    0xfffffff4(%ebp),%ebx
    1502:	8b 75 f8             	mov    0xfffffff8(%ebp),%esi
    1505:	89 45 08             	mov    %eax,0x8(%ebp)
    1508:	8b 7d fc             	mov    0xfffffffc(%ebp),%edi
    150b:	89 ec                	mov    %ebp,%esp
    150d:	5d                   	pop    %ebp
    150e:	e9 fc ff ff ff       	jmp    150f <enterRecoveryState+0x1ef>
    1513:	a1 00 00 00 00       	mov    0x0,%eax
    1518:	85 c0                	test   %eax,%eax
    151a:	0f 84 4c fe ff ff    	je     136c <enterRecoveryState+0x4c>
    1520:	eb c7                	jmp    14e9 <enterRecoveryState+0x1c9>
    1522:	8d b4 26 00 00 00 00 	lea    0x0(%esi,1),%esi
    1529:	8d bc 27 00 00 00 00 	lea    0x0(%edi,1),%edi

00001530 <ContList_insert>:

#if 0
static void AckProof_rebuild(struct sock *sk, AckProof *proof) {
	struct sk_buff *skb;
	struct tcp_opt *tp = &sk->tp_pinfo.af_tcp;
	CONTINUATION_TYPE *cont	=
		(CONTINUATION_TYPE *)tp->t.cont_list.next;

	proof->numSacks = 0;
	/* Todo: check if faster algorithm would help */
	if(cont != &tp->t.cont_list) {
		BUG_TRAP(cont->seq >= CURR_CONT(sk)->TCPBase);
	}
	while(cont != &tp->t.cont_list) {
		AckProof_update(sk, proof, cont);
		cont = cont->next;
	}
	/* TODO: add poison detection */
	skb_queue_walk(&tp->t.ofo_queue, skb) {
		AckProof_update(sk, proof, TCP_SKB_CB(skb)->cont);
	}
}
#endif

#define NEWER(S0,S1) ((S0)>(S1))
static void ContList_insert(struct sock *sk, CONTINUATION_TYPE *cont) {
    1530:	55                   	push   %ebp
    1531:	89 e5                	mov    %esp,%ebp
    1533:	57                   	push   %edi
    1534:	56                   	push   %esi
    1535:	53                   	push   %ebx
    1536:	83 ec 20             	sub    $0x20,%esp
	struct tcp_opt *tp = &sk->tp_pinfo.af_tcp;
	CONTINUATION_TYPE *cont_curs, *currentVal = cont, *newCont;
	/* sorted insert into cont list */
	int replaced = 0;
	int replaceAckPrev = 0;
    1539:	c7 45 e8 00 00 00 00 	movl   $0x0,0xffffffe8(%ebp)
    1540:	8b 5d 08             	mov    0x8(%ebp),%ebx
    1543:	8b 45 0c             	mov    0xc(%ebp),%eax
    1546:	8d 93 bc 00 00 00    	lea    0xbc(%ebx),%edx
	if(tp->t.previous_base > cont->TCPBase) {
    154c:	89 c1                	mov    %eax,%ecx
    154e:	89 45 f0             	mov    %eax,0xfffffff0(%ebp)
    1551:	89 55 ec             	mov    %edx,0xffffffec(%ebp)
    1554:	8b 40 70             	mov    0x70(%eax),%eax
    1557:	39 82 e0 02 00 00    	cmp    %eax,0x2e0(%edx)
    155d:	0f 87 9c 03 00 00    	ja     18ff <ContList_insert+0x3cf>
		printk("previous base > cont->TCPBase. clientstate %d clientstatecounter %d\n", cont->clientState, tp->t.clientStateCounter);
	}
	for(cont_curs = (CONTINUATION_TYPE*)tp->t.cont_list.prev;
    1563:	8b 45 ec             	mov    0xffffffec(%ebp),%eax
    1566:	8b b0 20 0a 00 00    	mov    0xa20(%eax),%esi
    156c:	8d 83 dc 0a 00 00    	lea    0xadc(%ebx),%eax
    1572:	39 c6                	cmp    %eax,%esi
    1574:	0f 84 77 03 00 00    	je     18f1 <ContList_insert+0x3c1>
    157a:	8b 4d f0             	mov    0xfffffff0(%ebp),%ecx
    157d:	8b 51 34             	mov    0x34(%ecx),%edx
	    cont_curs != (CONTINUATION_TYPE*)&tp->t.cont_list;
	    cont_curs=cont_curs->prev) {
		if(cont_curs->seq < cont->seq) 
    1580:	39 56 34             	cmp    %edx,0x34(%esi)
    1583:	72 06                	jb     158b <ContList_insert+0x5b>
    1585:	8b 36                	mov    (%esi),%esi
    1587:	39 c6                	cmp    %eax,%esi
    1589:	75 f5                	jne    1580 <ContList_insert+0x50>
			break;
	}
	if(cont_curs->next != (CONTINUATION_TYPE*)&tp->t.cont_list &&
    158b:	8b 7e 04             	mov    0x4(%esi),%edi
    158e:	39 c7                	cmp    %eax,%edi
    1590:	74 0f                	je     15a1 <ContList_insert+0x71>
    1592:	8b 4d f0             	mov    0xfffffff0(%ebp),%ecx
    1595:	8b 41 34             	mov    0x34(%ecx),%eax
    1598:	39 47 34             	cmp    %eax,0x34(%edi)
    159b:	0f 84 85 01 00 00    	je     1726 <ContList_insert+0x1f6>
#else  //0426 - change kernel to slab cache
#ifndef USESLAB
  CONTINUATION_TYPE *rval = kmalloc(2 * sizeof(CONTINUATION_TYPE), flags);  // 0502 maybe slab cache usage is buggy
#else
  CONTINUATION_TYPE *rval = kmem_cache_alloc(clientSideContinuation_cache, GFP_ATOMIC);
    15a1:	c7 44 24 04 20 00 00 	movl   $0x20,0x4(%esp,1)
    15a8:	00 
    15a9:	a1 00 00 00 00       	mov    0x0,%eax
    15ae:	89 04 24             	mov    %eax,(%esp,1)
    15b1:	e8 fc ff ff ff       	call   15b2 <ContList_insert+0x82>
#endif
#endif

#ifdef DEBUG_TRICKLES_ALLOCATION // 0418
  numContinuations++;
#endif

  // 0501 - attempting to track down corruption bug
#ifdef DEBUG_ALLOC
#ifndef USERTEST
  if(((int)rval) & 0xfff) {
	  printk("incorrect alignment\n");
	  BUG();
  }
#endif // USERTEST
#endif // DEBUG_ALLOC

  if(rval == NULL) {
    15b6:	85 c0                	test   %eax,%eax
    15b8:	89 c3                	mov    %eax,%ebx
    15ba:	0f 84 53 01 00 00    	je     1713 <ContList_insert+0x1e3>
    printk("out of memory while allocating continuation to copy\n");
    return NULL;
  }
  rval->prev = rval->next = NULL;
    15c0:	c7 40 04 00 00 00 00 	movl   $0x0,0x4(%eax)
    15c7:	c7 00 00 00 00 00    	movl   $0x0,(%eax)
  rval->list = NULL;
    15cd:	c7 40 08 00 00 00 00 	movl   $0x0,0x8(%eax)

  memcpy(rval, cont, (int)((CONTINUATION_TYPE *)0)->clientside_copy_end);
    15d4:	c7 44 24 08 dc 00 00 	movl   $0xdc,0x8(%esp,1)
    15db:	00 
    15dc:	8b 4d f0             	mov    0xfffffff0(%ebp),%ecx
    15df:	89 04 24             	mov    %eax,(%esp,1)
    15e2:	89 4c 24 04          	mov    %ecx,0x4(%esp,1)
    15e6:	e8 85 6c 00 00       	call   8270 <__constant_memcpy>
  for(i=0; i < 2; i++) {
    15eb:	ba 01 00 00 00       	mov    $0x1,%edx
    15f0:	8d 83 d4 00 00 00    	lea    0xd4(%ebx),%eax
	  (rval+i)->ucont_len = 0;
    15f6:	c7 40 a8 00 00 00 00 	movl   $0x0,0xffffffa8(%eax)
	  (rval+i)->ucont_data = NULL;
    15fd:	c7 40 ac 00 00 00 00 	movl   $0x0,0xffffffac(%eax)
	  (rval+i)->input_len = 0;
    1604:	c7 40 b0 00 00 00 00 	movl   $0x0,0xffffffb0(%eax)
	  (rval+i)->input = NULL;
    160b:	c7 40 b4 00 00 00 00 	movl   $0x0,0xffffffb4(%eax)
	  // 0429 null mark
	  (rval+i)->mark = 0;
    1612:	c7 40 04 00 00 00 00 	movl   $0x0,0x4(%eax)
	  (rval+i)->simulated = 0;
    1619:	c7 40 f8 00 00 00 00 	movl   $0x0,0xfffffff8(%eax)
	  (rval+i)->num_packets = 0;
    1620:	c7 40 08 00 00 00 00 	movl   $0x0,0x8(%eax)
	  (rval+i)->actualCwnd = 0;
    1627:	c7 00 00 00 00 00    	movl   $0x0,(%eax)
    162d:	05 e4 00 00 00       	add    $0xe4,%eax
    1632:	4a                   	dec    %edx
    1633:	79 c1                	jns    15f6 <ContList_insert+0xc6>
  }
    1635:	89 d8                	mov    %ebx,%eax
	   cont_curs->next->seq == cont->seq) {
		CONTINUATION_TYPE *dup = cont_curs->next;
		if(NEWER(cont->clientState, dup->clientState)) {
			newCont = copyClientSide_Continuation(cont, GFP_ATOMIC);
			if(newCont == NULL) {
				printk("ContList_Insert(1); out of memory\n");
				goto skip_insert;
			}

			replaced = 1;
			// get rid of old one
			if(tp->t.ack_prev == dup)
				replaceAckPrev = 1;
			if(clientDebugLevel >= 2)
				printk("Got rid of old cont %u\n", dup->seq);
			unlinkCont(dup);
			MARK_PC(dup);
			freeClientSide_Continuation(dup);
			goto skip_alloc;
		} else {
			// dont use new one
			if(tp->t.ack_prev == cont)
				printk("ContList_insert: invalid condition\n");
			if(clientDebugLevel >= 2)
				printk("Got rid of new cont %u\n", cont->seq);
			currentVal = dup;
			goto skip_insert;
		}
	}
	/* create copy for transport-level acking and processing */
	newCont = copyClientSide_Continuation(cont, GFP_ATOMIC);
	if(newCont == NULL) {
    1637:	85 c0                	test   %eax,%eax
  }
  return rval;
}

static inline CONTINUATION_TYPE *copyClientSide_Continuation(CONTINUATION_TYPE *cont, int flags) {
    1639:	89 c3                	mov    %eax,%ebx
    163b:	0f 84 bf 00 00 00    	je     1700 <ContList_insert+0x1d0>
		printk("ContList_Insert: Out of memory\n");
		goto skip_insert;
	}
	skip_alloc:
	newCont->mark |= 0x2;
    1641:	83 8b d8 00 00 00 02 	orl    $0x2,0xd8(%ebx)

	// don't need user-level data while performing transport-level processing
	newCont->ucont_data = NULL;
    1648:	31 c0                	xor    %eax,%eax
	elem->list->len--;
	elem->list = NULL;
}

static inline void insert(struct alloc_head *elem, struct alloc_head *prev, struct alloc_head *next) {
    164a:	8b 7e 04             	mov    0x4(%esi),%edi
    164d:	89 83 80 00 00 00    	mov    %eax,0x80(%ebx)
	newCont->input = NULL;
    1653:	31 c0                	xor    %eax,%eax
    1655:	89 83 88 00 00 00    	mov    %eax,0x88(%ebx)
		BUG();
	}
#endif

	if(!(elem->next == NULL && elem->prev == NULL)) BUG();
    165b:	8b 43 04             	mov    0x4(%ebx),%eax
    165e:	85 c0                	test   %eax,%eax
    1660:	75 06                	jne    1668 <ContList_insert+0x138>
    1662:	8b 0b                	mov    (%ebx),%ecx
    1664:	85 c9                	test   %ecx,%ecx
    1666:	74 19                	je     1681 <ContList_insert+0x151>
    1668:	c7 44 24 04 0d 00 00 	movl   $0xd,0x4(%esp,1)
    166f:	00 
    1670:	c7 04 24 11 00 00 00 	movl   $0x11,(%esp,1)
    1677:	e8 fc ff ff ff       	call   1678 <ContList_insert+0x148>
    167c:	e8 fc ff ff ff       	call   167d <ContList_insert+0x14d>
	elem->next = prev->next;
	prev->next = elem;

	elem->prev = prev;
    1681:	89 33                	mov    %esi,(%ebx)
    1683:	8b 46 04             	mov    0x4(%esi),%eax
	next->prev = elem;
    1686:	89 1f                	mov    %ebx,(%edi)
    1688:	89 43 04             	mov    %eax,0x4(%ebx)

	elem->list = prev->list;
    168b:	8b 46 08             	mov    0x8(%esi),%eax
    168e:	89 5e 04             	mov    %ebx,0x4(%esi)
    1691:	89 43 08             	mov    %eax,0x8(%ebx)
	elem->list->len++;
    1694:	ff 40 10             	incl   0x10(%eax)
	insert((struct alloc_head*)newCont, (struct alloc_head*)cont_curs, (struct alloc_head*)cont_curs->next);
	if(replaceAckPrev || tp->t.ack_prev == cont) {
    1697:	8b 55 e8             	mov    0xffffffe8(%ebp),%edx
    169a:	85 d2                	test   %edx,%edx
    169c:	75 55                	jne    16f3 <ContList_insert+0x1c3>
    169e:	8b 55 ec             	mov    0xffffffec(%ebp),%edx
    16a1:	8b 82 f0 02 00 00    	mov    0x2f0(%edx),%eax
    16a7:	3b 45 f0             	cmp    0xfffffff0(%ebp),%eax
    16aa:	74 47                	je     16f3 <ContList_insert+0x1c3>
		tp->t.ack_prev = newCont;
		INTEGRITY_CHECK(sk, tp->t.ack_prev);
		SAVE_ACK_PREV(tp);
	}
	if(!(!tp->t.ack_prev || tp->t.ack_prev->next)) {
    16ac:	85 c0                	test   %eax,%eax
    16ae:	74 07                	je     16b7 <ContList_insert+0x187>
    16b0:	8b 40 04             	mov    0x4(%eax),%eax
    16b3:	85 c0                	test   %eax,%eax
    16b5:	74 08                	je     16bf <ContList_insert+0x18f>
		// 0429
		BUG_TRAP((!tp->t.ack_prev || tp->t.ack_prev->next));
		BUG();
	}
 skip_insert:
	;
}
    16b7:	83 c4 20             	add    $0x20,%esp
    16ba:	5b                   	pop    %ebx
    16bb:	5e                   	pop    %esi
    16bc:	5f                   	pop    %edi
    16bd:	5d                   	pop    %ebp
    16be:	c3                   	ret    
    16bf:	c7 44 24 04 a8 03 00 	movl   $0x3a8,0x4(%esp,1)
    16c6:	00 
    16c7:	c7 04 24 40 03 00 00 	movl   $0x340,(%esp,1)
    16ce:	e8 fc ff ff ff       	call   16cf <ContList_insert+0x19f>
    16d3:	c7 44 24 04 0d 00 00 	movl   $0xd,0x4(%esp,1)
    16da:	00 
    16db:	c7 04 24 11 00 00 00 	movl   $0x11,(%esp,1)
    16e2:	e8 fc ff ff ff       	call   16e3 <ContList_insert+0x1b3>
    16e7:	83 c4 20             	add    $0x20,%esp
    16ea:	5b                   	pop    %ebx
    16eb:	5e                   	pop    %esi
    16ec:	5f                   	pop    %edi
    16ed:	5d                   	pop    %ebp
    16ee:	e9 fc ff ff ff       	jmp    16ef <ContList_insert+0x1bf>
    16f3:	8b 4d ec             	mov    0xffffffec(%ebp),%ecx
    16f6:	89 d8                	mov    %ebx,%eax
    16f8:	89 99 f0 02 00 00    	mov    %ebx,0x2f0(%ecx)
    16fe:	eb ac                	jmp    16ac <ContList_insert+0x17c>
    1700:	c7 45 08 a0 03 00 00 	movl   $0x3a0,0x8(%ebp)
    1707:	83 c4 20             	add    $0x20,%esp
    170a:	5b                   	pop    %ebx
    170b:	5e                   	pop    %esi
    170c:	5f                   	pop    %edi
    170d:	5d                   	pop    %ebp
    170e:	e9 fc ff ff ff       	jmp    170f <ContList_insert+0x1df>
#endif // USERTEST
#endif // DEBUG_ALLOC

  if(rval == NULL) {
    printk("out of memory while allocating continuation to copy\n");
    1713:	c7 04 24 c0 03 00 00 	movl   $0x3c0,(%esp,1)
    171a:	e8 fc ff ff ff       	call   171b <ContList_insert+0x1eb>
    171f:	31 c0                	xor    %eax,%eax
    1721:	e9 11 ff ff ff       	jmp    1637 <ContList_insert+0x107>
    1726:	8b 47 3c             	mov    0x3c(%edi),%eax
    1729:	39 41 3c             	cmp    %eax,0x3c(%ecx)
    172c:	77 44                	ja     1772 <ContList_insert+0x242>
    172e:	8b 4d ec             	mov    0xffffffec(%ebp),%ecx
    1731:	8b 45 f0             	mov    0xfffffff0(%ebp),%eax
    1734:	39 81 f0 02 00 00    	cmp    %eax,0x2f0(%ecx)
    173a:	74 28                	je     1764 <ContList_insert+0x234>
    173c:	83 3d 00 00 00 00 01 	cmpl   $0x1,0x0
    1743:	0f 8e 6e ff ff ff    	jle    16b7 <ContList_insert+0x187>
    1749:	8b 55 f0             	mov    0xfffffff0(%ebp),%edx
    174c:	8b 42 34             	mov    0x34(%edx),%eax
    174f:	c7 04 24 ee 00 00 00 	movl   $0xee,(%esp,1)
    1756:	89 44 24 04          	mov    %eax,0x4(%esp,1)
    175a:	e8 fc ff ff ff       	call   175b <ContList_insert+0x22b>
    175f:	e9 53 ff ff ff       	jmp    16b7 <ContList_insert+0x187>
    1764:	c7 04 24 00 04 00 00 	movl   $0x400,(%esp,1)
    176b:	e8 fc ff ff ff       	call   176c <ContList_insert+0x23c>
    1770:	eb ca                	jmp    173c <ContList_insert+0x20c>
#else  //0426 - change kernel to slab cache
#ifndef USESLAB
  CONTINUATION_TYPE *rval = kmalloc(2 * sizeof(CONTINUATION_TYPE), flags);  // 0502 maybe slab cache usage is buggy
#else
  CONTINUATION_TYPE *rval = kmem_cache_alloc(clientSideContinuation_cache, GFP_ATOMIC);
    1772:	c7 44 24 04 20 00 00 	movl   $0x20,0x4(%esp,1)
    1779:	00 
    177a:	a1 00 00 00 00       	mov    0x0,%eax
    177f:	89 04 24             	mov    %eax,(%esp,1)
    1782:	e8 fc ff ff ff       	call   1783 <ContList_insert+0x253>
#endif
#endif

#ifdef DEBUG_TRICKLES_ALLOCATION // 0418
  numContinuations++;
#endif

  // 0501 - attempting to track down corruption bug
#ifdef DEBUG_ALLOC
#ifndef USERTEST
  if(((int)rval) & 0xfff) {
	  printk("incorrect alignment\n");
	  BUG();
  }
#endif // USERTEST
#endif // DEBUG_ALLOC

  if(rval == NULL) {
    1787:	85 c0                	test   %eax,%eax
    1789:	89 c3                	mov    %eax,%ebx
    178b:	0f 84 4d 01 00 00    	je     18de <ContList_insert+0x3ae>
    printk("out of memory while allocating continuation to copy\n");
    return NULL;
  }
  rval->prev = rval->next = NULL;
    1791:	c7 40 04 00 00 00 00 	movl   $0x0,0x4(%eax)
    1798:	c7 00 00 00 00 00    	movl   $0x0,(%eax)
  rval->list = NULL;
    179e:	c7 40 08 00 00 00 00 	movl   $0x0,0x8(%eax)

  memcpy(rval, cont, (int)((CONTINUATION_TYPE *)0)->clientside_copy_end);
    17a5:	c7 44 24 08 dc 00 00 	movl   $0xdc,0x8(%esp,1)
    17ac:	00 
    17ad:	8b 45 f0             	mov    0xfffffff0(%ebp),%eax
    17b0:	89 1c 24             	mov    %ebx,(%esp,1)
    17b3:	89 44 24 04          	mov    %eax,0x4(%esp,1)
    17b7:	e8 b4 6a 00 00       	call   8270 <__constant_memcpy>
  for(i=0; i < 2; i++) {
    17bc:	ba 01 00 00 00       	mov    $0x1,%edx
    17c1:	8d 83 d4 00 00 00    	lea    0xd4(%ebx),%eax
	  (rval+i)->ucont_len = 0;
    17c7:	c7 40 a8 00 00 00 00 	movl   $0x0,0xffffffa8(%eax)
	  (rval+i)->ucont_data = NULL;
    17ce:	c7 40 ac 00 00 00 00 	movl   $0x0,0xffffffac(%eax)
	  (rval+i)->input_len = 0;
    17d5:	c7 40 b0 00 00 00 00 	movl   $0x0,0xffffffb0(%eax)
	  (rval+i)->input = NULL;
    17dc:	c7 40 b4 00 00 00 00 	movl   $0x0,0xffffffb4(%eax)
	  // 0429 null mark
	  (rval+i)->mark = 0;
    17e3:	c7 40 04 00 00 00 00 	movl   $0x0,0x4(%eax)
	  (rval+i)->simulated = 0;
    17ea:	c7 40 f8 00 00 00 00 	movl   $0x0,0xfffffff8(%eax)
	  (rval+i)->num_packets = 0;
    17f1:	c7 40 08 00 00 00 00 	movl   $0x0,0x8(%eax)
	  (rval+i)->actualCwnd = 0;
    17f8:	c7 00 00 00 00 00    	movl   $0x0,(%eax)
    17fe:	05 e4 00 00 00       	add    $0xe4,%eax
    1803:	4a                   	dec    %edx
    1804:	79 c1                	jns    17c7 <ContList_insert+0x297>
  }
    1806:	89 d8                	mov    %ebx,%eax
    1808:	85 c0                	test   %eax,%eax
  }
  return rval;
}

static inline CONTINUATION_TYPE *copyClientSide_Continuation(CONTINUATION_TYPE *cont, int flags) {
    180a:	89 c3                	mov    %eax,%ebx
    180c:	0f 84 c0 00 00 00    	je     18d2 <ContList_insert+0x3a2>
    1812:	8b 55 ec             	mov    0xffffffec(%ebp),%edx
    1815:	b8 01 00 00 00       	mov    $0x1,%eax
    181a:	39 ba f0 02 00 00    	cmp    %edi,0x2f0(%edx)
    1820:	0f 45 45 e8          	cmovne 0xffffffe8(%ebp),%eax
    1824:	83 3d 00 00 00 00 01 	cmpl   $0x1,0x0
    182b:	89 45 e8             	mov    %eax,0xffffffe8(%ebp)
    182e:	0f 8f 86 00 00 00    	jg     18ba <ContList_insert+0x38a>
		BUG();
	}
#endif

	elem->next->prev = elem->prev;
    1834:	8b 57 04             	mov    0x4(%edi),%edx
    1837:	8b 07                	mov    (%edi),%eax
    1839:	89 02                	mov    %eax,(%edx)
	elem->prev->next = elem->next;
    183b:	8b 07                	mov    (%edi),%eax
	elem->prev = elem->next = NULL;
    183d:	c7 07 00 00 00 00    	movl   $0x0,(%edi)
    1843:	89 50 04             	mov    %edx,0x4(%eax)

	elem->list->len--;
    1846:	8b 47 08             	mov    0x8(%edi),%eax
    1849:	c7 47 04 00 00 00 00 	movl   $0x0,0x4(%edi)
    1850:	ff 48 10             	decl   0x10(%eax)
	elem->list = NULL;
    1853:	c7 47 08 00 00 00 00 	movl   $0x0,0x8(%edi)
  if(cont->list) {
	  BUG();
  }

  for(i=0; i < 2; i++) {
    185a:	c7 45 e0 00 00 00 00 	movl   $0x0,0xffffffe0(%ebp)
    1861:	c7 45 e4 01 00 00 00 	movl   $0x1,0xffffffe4(%ebp)
    if((cont+i)->ucont_data)
    1868:	8b 4d e0             	mov    0xffffffe0(%ebp),%ecx
    186b:	8b 84 0f 80 00 00 00 	mov    0x80(%edi,%ecx,1),%eax
    1872:	85 c0                	test   %eax,%eax
    1874:	75 3a                	jne    18b0 <ContList_insert+0x380>
      kfree((cont+i)->ucont_data);
    if((cont+i)->input)
    1876:	8b 55 e0             	mov    0xffffffe0(%ebp),%edx
    1879:	8b 84 17 88 00 00 00 	mov    0x88(%edi,%edx,1),%eax
    1880:	85 c0                	test   %eax,%eax
    1882:	75 22                	jne    18a6 <ContList_insert+0x376>
    1884:	81 45 e0 e4 00 00 00 	addl   $0xe4,0xffffffe0(%ebp)
    188b:	ff 4d e4             	decl   0xffffffe4(%ebp)
    188e:	79 d8                	jns    1868 <ContList_insert+0x338>
      kfree((cont+i)->input);
  }

#ifdef USERTEST
  kfree(cont);
#else  //0426 - change kernel to slab cache
#ifdef DEBUG_ALLOC
  zap_virt(cont);
  //memset(cont, 0x3e, sizeof(*cont));
#else
#ifndef USESLAB
  kfree(cont);  // 0502 maybe slab cache usage is buggy
#else
  kmem_cache_free(clientSideContinuation_cache, cont);
    1890:	89 7c 24 04          	mov    %edi,0x4(%esp,1)
    1894:	a1 00 00 00 00       	mov    0x0,%eax
    1899:	89 04 24             	mov    %eax,(%esp,1)
    189c:	e8 fc ff ff ff       	call   189d <ContList_insert+0x36d>
    18a1:	e9 9b fd ff ff       	jmp    1641 <ContList_insert+0x111>
  for(i=0; i < 2; i++) {
    if((cont+i)->ucont_data)
      kfree((cont+i)->ucont_data);
    if((cont+i)->input)
      kfree((cont+i)->input);
    18a6:	89 04 24             	mov    %eax,(%esp,1)
    18a9:	e8 fc ff ff ff       	call   18aa <ContList_insert+0x37a>
    18ae:	eb d4                	jmp    1884 <ContList_insert+0x354>
    18b0:	89 04 24             	mov    %eax,(%esp,1)
    18b3:	e8 fc ff ff ff       	call   18b4 <ContList_insert+0x384>
    18b8:	eb bc                	jmp    1876 <ContList_insert+0x346>
    18ba:	8b 47 34             	mov    0x34(%edi),%eax
    18bd:	c7 04 24 06 01 00 00 	movl   $0x106,(%esp,1)
    18c4:	89 44 24 04          	mov    %eax,0x4(%esp,1)
    18c8:	e8 fc ff ff ff       	call   18c9 <ContList_insert+0x399>
    18cd:	e9 62 ff ff ff       	jmp    1834 <ContList_insert+0x304>
    18d2:	c7 45 08 40 04 00 00 	movl   $0x440,0x8(%ebp)
    18d9:	e9 29 fe ff ff       	jmp    1707 <ContList_insert+0x1d7>
#endif // USERTEST
#endif // DEBUG_ALLOC

  if(rval == NULL) {
    printk("out of memory while allocating continuation to copy\n");
    18de:	c7 04 24 c0 03 00 00 	movl   $0x3c0,(%esp,1)
    18e5:	e8 fc ff ff ff       	call   18e6 <ContList_insert+0x3b6>
    18ea:	31 c0                	xor    %eax,%eax
    18ec:	e9 17 ff ff ff       	jmp    1808 <ContList_insert+0x2d8>
    18f1:	8b 55 ec             	mov    0xffffffec(%ebp),%edx
    18f4:	8d 82 20 0a 00 00    	lea    0xa20(%edx),%eax
    18fa:	e9 8c fc ff ff       	jmp    158b <ContList_insert+0x5b>
    18ff:	8b 82 c8 02 00 00    	mov    0x2c8(%edx),%eax
    1905:	89 44 24 08          	mov    %eax,0x8(%esp,1)
    1909:	8b 41 3c             	mov    0x3c(%ecx),%eax
    190c:	c7 04 24 80 04 00 00 	movl   $0x480,(%esp,1)
    1913:	89 44 24 04          	mov    %eax,0x4(%esp,1)
    1917:	e8 fc ff ff ff       	call   1918 <ContList_insert+0x3e8>
    191c:	e9 42 fc ff ff       	jmp    1563 <ContList_insert+0x33>
    1921:	eb 0d                	jmp    1930 <freeRequest>
    1923:	90                   	nop    
    1924:	90                   	nop    
    1925:	90                   	nop    
    1926:	90                   	nop    
    1927:	90                   	nop    
    1928:	90                   	nop    
    1929:	90                   	nop    
    192a:	90                   	nop    
    192b:	90                   	nop    
    192c:	90                   	nop    
    192d:	90                   	nop    
    192e:	90                   	nop    
    192f:	90                   	nop    

00001930 <freeRequest>:

int breakpoint_seq = -1;
int paranoia = 0;

#if 0
struct Request *copyRequest(struct Request *req) {
	struct Request *rval;
	switch(req->type) {
	case MREQ_CONTINUATION: {
		struct ContinuationRequest *contReq = (struct ContinuationRequest *)req, *newContReq;
		newContReq = kmalloc_ContinuationRequest(GFP_ATOMIC);
		if(newContReq == NULL) {
			printk("Out of memory while copying request\n");
			return NULL;
		}
		*newContReq = *contReq;
		newContReq->conts = kmalloc(sizeof(newContReq->conts[0]) * newContReq->numConts, GFP_ATOMIC);
		if(newContReq->conts == NULL) {
			printk("Out of memory while copying request\n");
			kfree(newContReq);
			return NULL;
		}
		memcpy(newContReq->conts, contReq->conts, sizeof(contReq->conts[0]) * contReq->numConts);
		rval = (struct Request *)newContReq;
		break;
	}
	case MREQ_CONVERSION: {
		struct ConversionRequest *convReq = (struct ConversionRequest *)req, *newConvReq;
		newConvReq = kmalloc_ConversionRequest(GFP_ATOMIC);
		if(newConvReq == NULL) {
			printk("Out of memory while copying request\n");
			return NULL;
		}
		*newConvReq = *convReq;
		rval = (struct Request*)newConvReq;
		break;
	}
	default:
		rval = NULL;
		BUG();
	}
	rval->prev = rval->next = NULL;
	rval->list = NULL;
	return rval;
}
#endif

void freeRequest(struct Request *req) {
    1930:	55                   	push   %ebp
    1931:	89 e5                	mov    %esp,%ebp
    1933:	83 ec 0c             	sub    $0xc,%esp
    1936:	89 5d fc             	mov    %ebx,0xfffffffc(%ebp)
    1939:	8b 5d 08             	mov    0x8(%ebp),%ebx
	BUG_TRAP(req->allocated);
    193c:	0f b6 43 48          	movzbl 0x48(%ebx),%eax
    1940:	a8 02                	test   $0x2,%al
    1942:	0f 84 98 00 00 00    	je     19e0 <freeRequest+0xb0>
	req->allocated = 0;
    1948:	24 fd                	and    $0xfd,%al
    194a:	88 43 48             	mov    %al,0x48(%ebx)

	switch(req->type) {
    194d:	8b 43 0c             	mov    0xc(%ebx),%eax
    1950:	85 c0                	test   %eax,%eax
    1952:	74 5f                	je     19b3 <freeRequest+0x83>
    1954:	48                   	dec    %eax
    1955:	74 49                	je     19a0 <freeRequest+0x70>
	case MREQ_CONTINUATION: {
		struct ContinuationRequest *contReq = (struct ContinuationRequest *)req;
		/* need to deallocate continuation array */
		kfree(contReq->conts);
		numContinuationRequests--;
		break;
	}
	case MREQ_CONVERSION: {
		struct ConversionRequest *convReq = (struct ConversionRequest *)req;
		/* skb references are dropped when snd_una is advanced, so don't perform that deallocation here */
		if(convReq->incomplete) {
			kfree(convReq->incompletePred);
		} else {
			UC_CONTINUATION_TRYFREE(convReq->completePred);
		}
		numConversionRequests--;
		break;
	}
	default:
		BUG();
    1957:	c7 44 24 04 0d 00 00 	movl   $0xd,0x4(%esp,1)
    195e:	00 
    195f:	c7 04 24 11 00 00 00 	movl   $0x11,(%esp,1)
    1966:	e8 fc ff ff ff       	call   1967 <freeRequest+0x37>
    196b:	e8 fc ff ff ff       	call   196c <freeRequest+0x3c>
	}
	BUG_TRAP(!req->list);
    1970:	8b 43 08             	mov    0x8(%ebx),%eax
    1973:	85 c0                	test   %eax,%eax
    1975:	75 0e                	jne    1985 <freeRequest+0x55>
	kfree(req);
    1977:	89 5d 08             	mov    %ebx,0x8(%ebp)
    197a:	8b 5d fc             	mov    0xfffffffc(%ebp),%ebx
    197d:	89 ec                	mov    %ebp,%esp
    197f:	5d                   	pop    %ebp
    1980:	e9 fc ff ff ff       	jmp    1981 <freeRequest+0x51>
    1985:	c7 44 24 04 f7 03 00 	movl   $0x3f7,0x4(%esp,1)
    198c:	00 
    198d:	c7 04 24 e0 04 00 00 	movl   $0x4e0,(%esp,1)
    1994:	e8 fc ff ff ff       	call   1995 <freeRequest+0x65>
    1999:	eb dc                	jmp    1977 <freeRequest+0x47>
    199b:	90                   	nop    
    199c:	8d 74 26 00          	lea    0x0(%esi,1),%esi
    19a0:	8b 43 58             	mov    0x58(%ebx),%eax
    19a3:	89 04 24             	mov    %eax,(%esp,1)
    19a6:	e8 fc ff ff ff       	call   19a7 <freeRequest+0x77>
    19ab:	ff 0d 00 00 00 00    	decl   0x0
    19b1:	eb bd                	jmp    1970 <freeRequest+0x40>
    19b3:	8b 43 54             	mov    0x54(%ebx),%eax
    19b6:	85 c0                	test   %eax,%eax
    19b8:	75 16                	jne    19d0 <freeRequest+0xa0>
 * cases.  Note that the guaranteed
 * useful range of an atomic_t is only 24 bits.
 */ 
static __inline__ int atomic_dec_and_test(atomic_t *v)
{
    19ba:	8b 43 64             	mov    0x64(%ebx),%eax
	unsigned char c;

	__asm__ __volatile__(
    19bd:	ff 48 24             	decl   0x24(%eax)
    19c0:	0f 94 c2             	sete   %dl
    19c3:	84 d2                	test   %dl,%dl
    19c5:	75 09                	jne    19d0 <freeRequest+0xa0>
    19c7:	ff 0d 48 00 00 00    	decl   0x48
    19cd:	eb a1                	jmp    1970 <freeRequest+0x40>
    19cf:	90                   	nop    
    19d0:	8b 43 64             	mov    0x64(%ebx),%eax
    19d3:	89 04 24             	mov    %eax,(%esp,1)
    19d6:	e8 fc ff ff ff       	call   19d7 <freeRequest+0xa7>
    19db:	eb ea                	jmp    19c7 <freeRequest+0x97>
    19dd:	8d 76 00             	lea    0x0(%esi),%esi
    19e0:	c7 44 24 04 de 03 00 	movl   $0x3de,0x4(%esp,1)
    19e7:	00 
    19e8:	c7 04 24 20 05 00 00 	movl   $0x520,(%esp,1)
    19ef:	e8 fc ff ff ff       	call   19f0 <freeRequest+0xc0>
    19f4:	0f b6 43 48          	movzbl 0x48(%ebx),%eax
    19f8:	e9 4b ff ff ff       	jmp    1948 <freeRequest+0x18>
    19fd:	8d 76 00             	lea    0x0(%esi),%esi

00001a00 <queueConversionRequests>:
}

inline void pushRequests(struct sock *sk) {
	/* Try to send an ack */
	trickles_send_ack_impl(sk, 0);
}

static inline void cleanTxQueue(struct sock *sk) {
	struct tcp_opt *tp = &sk->tp_pinfo.af_tcp;
	struct sk_buff *skb = NULL;
	for(skb = tp->t.requestBytes.next; skb != (struct sk_buff*)&tp->t.requestBytes; skb = skb->next) {
		if(TCP_SKB_CB(skb)->end_seq <= tp->t.snd_una) {
			struct sk_buff *clean = skb;
			skb = skb->prev;
			__skb_unlink(clean, &tp->t.requestBytes);
			kfree_skb(clean);
		}
	}
}

void queueConversionRequests(struct sock *sk) {
    1a00:	55                   	push   %ebp
    1a01:	89 e5                	mov    %esp,%ebp
    1a03:	57                   	push   %edi
    1a04:	56                   	push   %esi
    1a05:	53                   	push   %ebx
    1a06:	83 ec 14             	sub    $0x14,%esp
	struct tcp_opt *tp = &sk->tp_pinfo.af_tcp;
	struct ConversionRequest *req;
	struct sk_buff *skb = NULL;
	int found = 0;
    1a09:	c7 45 e8 00 00 00 00 	movl   $0x0,0xffffffe8(%ebp)
    1a10:	8b 45 08             	mov    0x8(%ebp),%eax
    1a13:	89 c7                	mov    %eax,%edi
    1a15:	89 45 f0             	mov    %eax,0xfffffff0(%ebp)
    1a18:	81 c7 bc 00 00 00    	add    $0xbc,%edi
	BUG_TRAP(tp->t.write_seq - tp->t.snd_una > 0);
    1a1e:	8b 87 c4 0a 00 00    	mov    0xac4(%edi),%eax
    1a24:	39 87 cc 0a 00 00    	cmp    %eax,0xacc(%edi)
    1a2a:	0f 84 2a 02 00 00    	je     1c5a <queueConversionRequests+0x25a>
	req = kmalloc_ConversionRequest(GFP_ATOMIC);
    1a30:	c7 04 24 20 00 00 00 	movl   $0x20,(%esp,1)
    1a37:	e8 fc ff ff ff       	call   1a38 <queueConversionRequests+0x38>
    1a3c:	89 45 ec             	mov    %eax,0xffffffec(%ebp)
	if(req == NULL) {
    1a3f:	85 c0                	test   %eax,%eax
    1a41:	0f 84 e9 01 00 00    	je     1c30 <queueConversionRequests+0x230>
		printk("queueConversionRequests: Out of memory!\n");
		BUG();
	}
	for(skb = tp->t.requestBytes.next; skb != (struct sk_buff*)&tp->t.requestBytes; skb = skb->next) {
    1a47:	8b 45 f0             	mov    0xfffffff0(%ebp),%eax
    1a4a:	8b 9f d0 0a 00 00    	mov    0xad0(%edi),%ebx
    1a50:	05 8c 0b 00 00       	add    $0xb8c,%eax
    1a55:	39 c3                	cmp    %eax,%ebx
    1a57:	74 66                	je     1abf <queueConversionRequests+0xbf>
    1a59:	8d b4 26 00 00 00 00 	lea    0x0(%esi,1),%esi
		if(TCP_SKB_CB(skb)->end_seq <= tp->t.snd_una) {
    1a60:	8b 87 c4 0a 00 00    	mov    0xac4(%edi),%eax
    1a66:	39 43 44             	cmp    %eax,0x44(%ebx)
    1a69:	0f 87 a5 01 00 00    	ja     1c14 <queueConversionRequests+0x214>
 * the list known..
 */
 
static inline void __skb_unlink(struct sk_buff *skb, struct sk_buff_head *list)
{
    1a6f:	8d b7 d0 0a 00 00    	lea    0xad0(%edi),%esi
			struct sk_buff *clean = skb;
    1a75:	89 d9                	mov    %ebx,%ecx
			skb = skb->prev;
    1a77:	8b 5b 04             	mov    0x4(%ebx),%ebx
static inline void __skb_unlink(struct sk_buff *skb, struct sk_buff_head *list)
{
	struct sk_buff * next, * prev;

	list->qlen--;
    1a7a:	ff 4e 08             	decl   0x8(%esi)
	next = skb->next;
	prev = skb->prev;
	skb->next = NULL;
	skb->prev = NULL;
	skb->list = NULL;
    1a7d:	c7 41 08 00 00 00 00 	movl   $0x0,0x8(%ecx)
    1a84:	8b 41 04             	mov    0x4(%ecx),%eax
    1a87:	8b 11                	mov    (%ecx),%edx
    1a89:	c7 41 04 00 00 00 00 	movl   $0x0,0x4(%ecx)
    1a90:	c7 01 00 00 00 00    	movl   $0x0,(%ecx)
	next->prev = prev;
    1a96:	89 42 04             	mov    %eax,0x4(%edx)
	prev->next = next;
    1a99:	89 10                	mov    %edx,(%eax)
    1a9b:	8b 81 84 00 00 00    	mov    0x84(%ecx),%eax
    1aa1:	48                   	dec    %eax
    1aa2:	74 0d                	je     1ab1 <queueConversionRequests+0xb1>
static __inline__ int atomic_dec_and_test(atomic_t *v)
{
	unsigned char c;

	__asm__ __volatile__(
    1aa4:	ff 89 84 00 00 00    	decl   0x84(%ecx)
    1aaa:	0f 94 c0             	sete   %al
    1aad:	84 c0                	test   %al,%al
    1aaf:	74 08                	je     1ab9 <queueConversionRequests+0xb9>
 
static inline void kfree_skb(struct sk_buff *skb)
{
	if (atomic_read(&skb->users) == 1 || atomic_dec_and_test(&skb->users))
		__kfree_skb(skb);
    1ab1:	89 0c 24             	mov    %ecx,(%esp,1)
    1ab4:	e8 fc ff ff ff       	call   1ab5 <queueConversionRequests+0xb5>
    1ab9:	8b 1b                	mov    (%ebx),%ebx
    1abb:	39 f3                	cmp    %esi,%ebx
    1abd:	75 a1                	jne    1a60 <queueConversionRequests+0x60>
			__skb_unlink(clean, &tp->t.requestBytes);
			kfree_skb(clean);
		} else if(SKB_CONTAINS(skb, tp->t.snd_una)) {
			found = 1;
			break;
		}
	}
	if(!found) {
    1abf:	8b 55 e8             	mov    0xffffffe8(%ebp),%edx
    1ac2:	85 d2                	test   %edx,%edx
    1ac4:	0f 84 13 01 00 00    	je     1bdd <queueConversionRequests+0x1dd>
		struct UC_Continuation *completePred;
	};
};

static inline void initCompleteConversionRequest(struct ConversionRequest *req, struct UC_Continuation *pred, struct sk_buff *data, unsigned offset) {
    1aca:	8b 43 40             	mov    0x40(%ebx),%eax
    1acd:	8b b7 c4 0a 00 00    	mov    0xac4(%edi),%esi
    1ad3:	8b 4d ec             	mov    0xffffffec(%ebp),%ecx
    1ad6:	8b 97 e0 0a 00 00    	mov    0xae0(%edi),%edx
    1adc:	29 c6                	sub    %eax,%esi
    1ade:	0f b6 41 48          	movzbl 0x48(%ecx),%eax
    1ae2:	c7 41 0c 00 00 00 00 	movl   $0x0,0xc(%ecx)
    1ae9:	c7 41 04 00 00 00 00 	movl   $0x0,0x4(%ecx)
    1af0:	c7 01 00 00 00 00    	movl   $0x0,(%ecx)
    1af6:	0c 03                	or     $0x3,%al
    1af8:	c7 41 08 00 00 00 00 	movl   $0x0,0x8(%ecx)
    1aff:	c7 41 10 00 00 00 00 	movl   $0x0,0x10(%ecx)
    1b06:	80 61 14 f0          	andb   $0xf0,0x14(%ecx)
    1b0a:	c7 41 38 ff ff ff ff 	movl   $0xffffffff,0x38(%ecx)
    1b11:	c7 41 3c ff ff ff ff 	movl   $0xffffffff,0x3c(%ecx)
    1b18:	c7 41 44 ff ff ff ff 	movl   $0xffffffff,0x44(%ecx)
    1b1f:	c7 41 40 ff ff ff ff 	movl   $0xffffffff,0x40(%ecx)
    1b26:	88 41 48             	mov    %al,0x48(%ecx)
	initRequest((struct Request *)req, MREQ_CONVERSION);
	req->incomplete = 0;
    1b29:	c7 41 54 00 00 00 00 	movl   $0x0,0x54(%ecx)
	req->completePred = pred;
    1b30:	89 51 64             	mov    %edx,0x64(%ecx)
 * useful range of an atomic_t is only 24 bits.
 */ 
static __inline__ void atomic_inc(atomic_t *v)
{
	__asm__ __volatile__(
    1b33:	ff 42 24             	incl   0x24(%edx)
	req->incomplete = 0;
	req->completePred = pred;
	atomic_inc(&req->completePred->refcnt);
#if 1 // 0707
	if(atomic_read(&req->completePred->refcnt) < 2) {
    1b36:	8b 41 64             	mov    0x64(%ecx),%eax
    1b39:	8b 40 24             	mov    0x24(%eax),%eax
    1b3c:	48                   	dec    %eax
    1b3d:	0f 8e 89 00 00 00    	jle    1bcc <queueConversionRequests+0x1cc>
		printk("refcnt should be > 1!\n");
	}
#endif
	req->data = data;
    1b43:	8b 45 ec             	mov    0xffffffec(%ebp),%eax
    1b46:	89 58 58             	mov    %ebx,0x58(%eax)
	req->offset = offset;
    1b49:	89 70 5c             	mov    %esi,0x5c(%eax)
    1b4c:	8b 75 f0             	mov    0xfffffff0(%ebp),%esi
	elem->list = head;
	head->len++;
}

static inline void insert_tail(struct alloc_head_list *head, struct alloc_head *elem) {
    1b4f:	8b 5d f0             	mov    0xfffffff0(%ebp),%ebx
#ifdef DEBUG_LIST
	if(elem->list) {
		BUG();
	}
#endif
	if(head->prev == elem /* || elem->prev != NULL || elem->next != NULL */) {
    1b52:	8b 55 f0             	mov    0xfffffff0(%ebp),%edx

void resetClientTimer(struct sock *sk);

static inline void queueNewRequest(struct sock *sk, struct Request *req) {
	struct tcp_opt *tp = &sk->tp_pinfo.af_tcp;
    1b55:	81 c6 bc 00 00 00    	add    $0xbc,%esi
	elem->list = head;
	head->len++;
}

static inline void insert_tail(struct alloc_head_list *head, struct alloc_head *elem) {
    1b5b:	81 c3 38 0b 00 00    	add    $0xb38,%ebx
#ifdef DEBUG_LIST
	if(elem->list) {
		BUG();
	}
#endif
	if(head->prev == elem /* || elem->prev != NULL || elem->next != NULL */) {
    1b61:	39 82 38 0b 00 00    	cmp    %eax,0xb38(%edx)
    1b67:	74 3c                	je     1ba5 <queueConversionRequests+0x1a5>
		BUG();
		show_stack(NULL);
	}
	elem->prev = head->prev;
    1b69:	8b 4d f0             	mov    0xfffffff0(%ebp),%ecx
    1b6c:	8b 55 ec             	mov    0xffffffec(%ebp),%edx
    1b6f:	8b 81 38 0b 00 00    	mov    0xb38(%ecx),%eax
    1b75:	89 02                	mov    %eax,(%edx)
	head->prev->next = elem;
    1b77:	8b 81 38 0b 00 00    	mov    0xb38(%ecx),%eax

	elem->next = (struct alloc_head*)head;

	elem->list = head;
    1b7d:	89 5a 08             	mov    %ebx,0x8(%edx)
    1b80:	89 50 04             	mov    %edx,0x4(%eax)
    1b83:	89 5a 04             	mov    %ebx,0x4(%edx)
	head->prev = elem;
	head->len++;
    1b86:	ff 43 10             	incl   0x10(%ebx)
    1b89:	89 91 38 0b 00 00    	mov    %edx,0xb38(%ecx)

static inline void queueNewRequest(struct sock *sk, struct Request *req) {
	struct tcp_opt *tp = &sk->tp_pinfo.af_tcp;
	insert_tail(&tp->t.queuedRequests, (struct alloc_head*)req);
	tp->t.timerState |= TRICKLES_ENABLE_DATA_TIMEOUT;
    1b8f:	83 8e d8 02 00 00 01 	orl    $0x1,0x2d8(%esi)
	resetClientTimer(sk);
    1b96:	89 4d 08             	mov    %ecx,0x8(%ebp)
    1b99:	83 c4 14             	add    $0x14,%esp
    1b9c:	5b                   	pop    %ebx
    1b9d:	5e                   	pop    %esi
    1b9e:	5f                   	pop    %edi
    1b9f:	5d                   	pop    %ebp
    1ba0:	e9 fc ff ff ff       	jmp    1ba1 <queueConversionRequests+0x1a1>
		BUG();
	}
#endif
	if(head->prev == elem /* || elem->prev != NULL || elem->next != NULL */) {
		BUG();
    1ba5:	c7 44 24 04 0d 00 00 	movl   $0xd,0x4(%esp,1)
    1bac:	00 
    1bad:	c7 04 24 11 00 00 00 	movl   $0x11,(%esp,1)
    1bb4:	e8 fc ff ff ff       	call   1bb5 <queueConversionRequests+0x1b5>
    1bb9:	e8 fc ff ff ff       	call   1bba <queueConversionRequests+0x1ba>
		show_stack(NULL);
    1bbe:	c7 04 24 00 00 00 00 	movl   $0x0,(%esp,1)
    1bc5:	e8 fc ff ff ff       	call   1bc6 <queueConversionRequests+0x1c6>
    1bca:	eb 9d                	jmp    1b69 <queueConversionRequests+0x169>
	req->completePred = pred;
	atomic_inc(&req->completePred->refcnt);
#if 1 // 0707
	if(atomic_read(&req->completePred->refcnt) < 2) {
		printk("refcnt should be > 1!\n");
    1bcc:	c7 04 24 1e 01 00 00 	movl   $0x11e,(%esp,1)
    1bd3:	e8 fc ff ff ff       	call   1bd4 <queueConversionRequests+0x1d4>
    1bd8:	e9 66 ff ff ff       	jmp    1b43 <queueConversionRequests+0x143>
		printk("Could not find matching bytes to convert\n");
    1bdd:	c7 04 24 60 05 00 00 	movl   $0x560,(%esp,1)
    1be4:	e8 fc ff ff ff       	call   1be5 <queueConversionRequests+0x1e5>
		kfree(req);
    1be9:	8b 55 ec             	mov    0xffffffec(%ebp),%edx
    1bec:	89 14 24             	mov    %edx,(%esp,1)
    1bef:	e8 fc ff ff ff       	call   1bf0 <queueConversionRequests+0x1f0>
		BUG();
    1bf4:	c7 44 24 04 0d 00 00 	movl   $0xd,0x4(%esp,1)
    1bfb:	00 
    1bfc:	c7 04 24 11 00 00 00 	movl   $0x11,(%esp,1)
    1c03:	e8 fc ff ff ff       	call   1c04 <queueConversionRequests+0x204>
    1c08:	83 c4 14             	add    $0x14,%esp
    1c0b:	5b                   	pop    %ebx
    1c0c:	5e                   	pop    %esi
    1c0d:	5f                   	pop    %edi
    1c0e:	5d                   	pop    %ebp
    1c0f:	e9 fc ff ff ff       	jmp    1c10 <queueConversionRequests+0x210>
    1c14:	39 43 40             	cmp    %eax,0x40(%ebx)
    1c17:	76 0b                	jbe    1c24 <queueConversionRequests+0x224>
    1c19:	8d b7 d0 0a 00 00    	lea    0xad0(%edi),%esi
    1c1f:	e9 95 fe ff ff       	jmp    1ab9 <queueConversionRequests+0xb9>
    1c24:	c7 45 e8 01 00 00 00 	movl   $0x1,0xffffffe8(%ebp)
    1c2b:	e9 8f fe ff ff       	jmp    1abf <queueConversionRequests+0xbf>
    1c30:	c7 04 24 a0 05 00 00 	movl   $0x5a0,(%esp,1)
    1c37:	e8 fc ff ff ff       	call   1c38 <queueConversionRequests+0x238>
    1c3c:	c7 44 24 04 0d 00 00 	movl   $0xd,0x4(%esp,1)
    1c43:	00 
    1c44:	c7 04 24 11 00 00 00 	movl   $0x11,(%esp,1)
    1c4b:	e8 fc ff ff ff       	call   1c4c <queueConversionRequests+0x24c>
    1c50:	e8 fc ff ff ff       	call   1c51 <queueConversionRequests+0x251>
    1c55:	e9 ed fd ff ff       	jmp    1a47 <queueConversionRequests+0x47>
    1c5a:	c7 44 24 04 12 04 00 	movl   $0x412,0x4(%esp,1)
    1c61:	00 
    1c62:	c7 04 24 e0 05 00 00 	movl   $0x5e0,(%esp,1)
    1c69:	e8 fc ff ff ff       	call   1c6a <queueConversionRequests+0x26a>
    1c6e:	e9 bd fd ff ff       	jmp    1a30 <queueConversionRequests+0x30>
    1c73:	8d b6 00 00 00 00    	lea    0x0(%esi),%esi
    1c79:	8d bc 27 00 00 00 00 	lea    0x0(%edi,1),%edi

00001c80 <finishIncompleteRequest>:
		return;
	}
	initCompleteConversionRequest(req,
				      tp->t.prevConvCont,
				      /* Data */
				      skb, 
				      tp->t.snd_una - TCP_SKB_CB(skb)->seq);
	//printk("%p: init complete conversion request: %d-%d\n", sk, tp->t.snd_una, TCP_SKB_CB(skb)->end_seq);
	queueNewRequest(sk, (struct Request *)req);
#if 0 // 0426 - do not push out requests in interrupt context, since the requests will be sent automatically
	/* Push out any possible acks */
	pushRequests(sk);
#endif
}

inline void finishIncompleteRequest(struct sock *sk) {
    1c80:	55                   	push   %ebp
    1c81:	89 e5                	mov    %esp,%ebp
    1c83:	57                   	push   %edi
    1c84:	56                   	push   %esi
    1c85:	53                   	push   %ebx
    1c86:	83 ec 14             	sub    $0x14,%esp
    1c89:	8b 45 08             	mov    0x8(%ebp),%eax
    1c8c:	89 45 f0             	mov    %eax,0xfffffff0(%ebp)
	struct tcp_opt *tp = &sk->tp_pinfo.af_tcp;
    1c8f:	89 c7                	mov    %eax,%edi
    1c91:	81 c7 bc 00 00 00    	add    $0xbc,%edi
	struct ConversionRequest *req = tp->t.newIncompleteRequest;
    1c97:	8b 97 dc 0a 00 00    	mov    0xadc(%edi),%edx
	struct sk_buff *skb;
	int found = 0;
    1c9d:	c7 45 e8 00 00 00 00 	movl   $0x0,0xffffffe8(%ebp)
	if(req == NULL) {
    1ca4:	85 d2                	test   %edx,%edx
    1ca6:	89 55 ec             	mov    %edx,0xffffffec(%ebp)
    1ca9:	0f 84 9c 01 00 00    	je     1e4b <finishIncompleteRequest+0x1cb>
		printk("finishIncompleteRequest, but no pending incomplete request\n");
		BUG();
	}
	BUG_TRAP(req->incomplete);
    1caf:	8b 45 ec             	mov    0xffffffec(%ebp),%eax
    1cb2:	8b 40 54             	mov    0x54(%eax),%eax
    1cb5:	85 c0                	test   %eax,%eax
    1cb7:	0f 84 75 01 00 00    	je     1e32 <finishIncompleteRequest+0x1b2>

	for(skb = tp->t.requestBytes.next; skb != (struct sk_buff*)&tp->t.requestBytes; skb = skb->next) {
    1cbd:	8b 45 f0             	mov    0xfffffff0(%ebp),%eax
    1cc0:	8b 9f d0 0a 00 00    	mov    0xad0(%edi),%ebx
    1cc6:	05 8c 0b 00 00       	add    $0xb8c,%eax
    1ccb:	39 c3                	cmp    %eax,%ebx
    1ccd:	74 60                	je     1d2f <finishIncompleteRequest+0xaf>
    1ccf:	90                   	nop    
		if(TCP_SKB_CB(skb)->end_seq <= tp->t.snd_una) {
    1cd0:	8b 87 c4 0a 00 00    	mov    0xac4(%edi),%eax
    1cd6:	39 43 44             	cmp    %eax,0x44(%ebx)
    1cd9:	0f 87 37 01 00 00    	ja     1e16 <finishIncompleteRequest+0x196>
 * the list known..
 */
 
static inline void __skb_unlink(struct sk_buff *skb, struct sk_buff_head *list)
{
    1cdf:	8d b7 d0 0a 00 00    	lea    0xad0(%edi),%esi
			struct sk_buff *clean = skb;
    1ce5:	89 d9                	mov    %ebx,%ecx
			skb = skb->prev;
    1ce7:	8b 5b 04             	mov    0x4(%ebx),%ebx
static inline void __skb_unlink(struct sk_buff *skb, struct sk_buff_head *list)
{
	struct sk_buff * next, * prev;

	list->qlen--;
    1cea:	ff 4e 08             	decl   0x8(%esi)
	next = skb->next;
	prev = skb->prev;
	skb->next = NULL;
	skb->prev = NULL;
	skb->list = NULL;
    1ced:	c7 41 08 00 00 00 00 	movl   $0x0,0x8(%ecx)
    1cf4:	8b 41 04             	mov    0x4(%ecx),%eax
    1cf7:	8b 11                	mov    (%ecx),%edx
    1cf9:	c7 41 04 00 00 00 00 	movl   $0x0,0x4(%ecx)
    1d00:	c7 01 00 00 00 00    	movl   $0x0,(%ecx)
	next->prev = prev;
    1d06:	89 42 04             	mov    %eax,0x4(%edx)
	prev->next = next;
    1d09:	89 10                	mov    %edx,(%eax)
    1d0b:	8b 81 84 00 00 00    	mov    0x84(%ecx),%eax
    1d11:	48                   	dec    %eax
    1d12:	74 0d                	je     1d21 <finishIncompleteRequest+0xa1>
static __inline__ int atomic_dec_and_test(atomic_t *v)
{
	unsigned char c;

	__asm__ __volatile__(
    1d14:	ff 89 84 00 00 00    	decl   0x84(%ecx)
    1d1a:	0f 94 c0             	sete   %al
    1d1d:	84 c0                	test   %al,%al
    1d1f:	74 08                	je     1d29 <finishIncompleteRequest+0xa9>
 
static inline void kfree_skb(struct sk_buff *skb)
{
	if (atomic_read(&skb->users) == 1 || atomic_dec_and_test(&skb->users))
		__kfree_skb(skb);
    1d21:	89 0c 24             	mov    %ecx,(%esp,1)
    1d24:	e8 fc ff ff ff       	call   1d25 <finishIncompleteRequest+0xa5>
    1d29:	8b 1b                	mov    (%ebx),%ebx
    1d2b:	39 f3                	cmp    %esi,%ebx
    1d2d:	75 a1                	jne    1cd0 <finishIncompleteRequest+0x50>
			__skb_unlink(clean, &tp->t.requestBytes);
			kfree_skb(clean);
		} else if(SKB_CONTAINS(skb, tp->t.snd_una)) {
			found = 1;
			break;
		}
	}
	if(!found) {
    1d2f:	8b 45 e8             	mov    0xffffffe8(%ebp),%eax
    1d32:	85 c0                	test   %eax,%eax
    1d34:	0f 84 b0 00 00 00    	je     1dea <finishIncompleteRequest+0x16a>
		printk("Could not find matching bytes to convert\n");
		BUG();
		return;
	}
	tp->t.newIncompleteRequest = NULL;
    1d3a:	31 c0                	xor    %eax,%eax
    1d3c:	89 87 dc 0a 00 00    	mov    %eax,0xadc(%edi)

	req->data = skb;
    1d42:	8b 55 ec             	mov    0xffffffec(%ebp),%edx
    1d45:	89 5a 58             	mov    %ebx,0x58(%edx)
	req->offset = tp->t.snd_una - TCP_SKB_CB(skb)->seq;
    1d48:	8b 73 40             	mov    0x40(%ebx),%esi
    1d4b:	8b 87 c4 0a 00 00    	mov    0xac4(%edi),%eax
    1d51:	29 f0                	sub    %esi,%eax
    1d53:	89 42 5c             	mov    %eax,0x5c(%edx)
	req->start = TCP_SKB_CB(skb)->seq + req->offset;
    1d56:	8b 4b 40             	mov    0x40(%ebx),%ecx
    1d59:	01 c8                	add    %ecx,%eax
    1d5b:	89 42 40             	mov    %eax,0x40(%edx)
	req->end = req->start;
    1d5e:	89 42 44             	mov    %eax,0x44(%edx)

void resetClientTimer(struct sock *sk);

static inline void queueNewRequest(struct sock *sk, struct Request *req) {
	struct tcp_opt *tp = &sk->tp_pinfo.af_tcp;
    1d61:	8b 75 f0             	mov    0xfffffff0(%ebp),%esi
	elem->list = head;
	head->len++;
}

static inline void insert_tail(struct alloc_head_list *head, struct alloc_head *elem) {
    1d64:	8b 5d f0             	mov    0xfffffff0(%ebp),%ebx
#ifdef DEBUG_LIST
	if(elem->list) {
		BUG();
	}
#endif
	if(head->prev == elem /* || elem->prev != NULL || elem->next != NULL */) {
    1d67:	8b 45 f0             	mov    0xfffffff0(%ebp),%eax

void resetClientTimer(struct sock *sk);

static inline void queueNewRequest(struct sock *sk, struct Request *req) {
	struct tcp_opt *tp = &sk->tp_pinfo.af_tcp;
    1d6a:	81 c6 bc 00 00 00    	add    $0xbc,%esi
	elem->list = head;
	head->len++;
}

static inline void insert_tail(struct alloc_head_list *head, struct alloc_head *elem) {
    1d70:	81 c3 38 0b 00 00    	add    $0xb38,%ebx
#ifdef DEBUG_LIST
	if(elem->list) {
		BUG();
	}
#endif
	if(head->prev == elem /* || elem->prev != NULL || elem->next != NULL */) {
    1d76:	39 90 38 0b 00 00    	cmp    %edx,0xb38(%eax)
    1d7c:	74 45                	je     1dc3 <finishIncompleteRequest+0x143>
		BUG();
		show_stack(NULL);
	}
	elem->prev = head->prev;
    1d7e:	8b 55 f0             	mov    0xfffffff0(%ebp),%edx
    1d81:	8b 82 38 0b 00 00    	mov    0xb38(%edx),%eax
    1d87:	8b 55 ec             	mov    0xffffffec(%ebp),%edx
    1d8a:	89 02                	mov    %eax,(%edx)
	head->prev->next = elem;
    1d8c:	8b 55 f0             	mov    0xfffffff0(%ebp),%edx
    1d8f:	8b 82 38 0b 00 00    	mov    0xb38(%edx),%eax
    1d95:	8b 55 ec             	mov    0xffffffec(%ebp),%edx
    1d98:	89 50 04             	mov    %edx,0x4(%eax)

	elem->next = (struct alloc_head*)head;

	elem->list = head;
    1d9b:	89 5a 08             	mov    %ebx,0x8(%edx)
    1d9e:	89 5a 04             	mov    %ebx,0x4(%edx)
	head->prev = elem;
    1da1:	8b 45 f0             	mov    0xfffffff0(%ebp),%eax
	head->len++;
    1da4:	ff 43 10             	incl   0x10(%ebx)
    1da7:	89 90 38 0b 00 00    	mov    %edx,0xb38(%eax)

static inline void queueNewRequest(struct sock *sk, struct Request *req) {
	struct tcp_opt *tp = &sk->tp_pinfo.af_tcp;
	insert_tail(&tp->t.queuedRequests, (struct alloc_head*)req);
	tp->t.timerState |= TRICKLES_ENABLE_DATA_TIMEOUT;
    1dad:	83 8e d8 02 00 00 01 	orl    $0x1,0x2d8(%esi)
	resetClientTimer(sk);
    1db4:	89 45 08             	mov    %eax,0x8(%ebp)
    1db7:	83 c4 14             	add    $0x14,%esp
    1dba:	5b                   	pop    %ebx
    1dbb:	5e                   	pop    %esi
    1dbc:	5f                   	pop    %edi
    1dbd:	5d                   	pop    %ebp
    1dbe:	e9 fc ff ff ff       	jmp    1dbf <finishIncompleteRequest+0x13f>
		BUG();
	}
#endif
	if(head->prev == elem /* || elem->prev != NULL || elem->next != NULL */) {
		BUG();
    1dc3:	c7 44 24 04 0d 00 00 	movl   $0xd,0x4(%esp,1)
    1dca:	00 
    1dcb:	c7 04 24 11 00 00 00 	movl   $0x11,(%esp,1)
    1dd2:	e8 fc ff ff ff       	call   1dd3 <finishIncompleteRequest+0x153>
    1dd7:	e8 fc ff ff ff       	call   1dd8 <finishIncompleteRequest+0x158>
		show_stack(NULL);
    1ddc:	c7 04 24 00 00 00 00 	movl   $0x0,(%esp,1)
    1de3:	e8 fc ff ff ff       	call   1de4 <finishIncompleteRequest+0x164>
    1de8:	eb 94                	jmp    1d7e <finishIncompleteRequest+0xfe>
    1dea:	c7 04 24 60 05 00 00 	movl   $0x560,(%esp,1)
    1df1:	e8 fc ff ff ff       	call   1df2 <finishIncompleteRequest+0x172>
    1df6:	c7 44 24 04 0d 00 00 	movl   $0xd,0x4(%esp,1)
    1dfd:	00 
    1dfe:	c7 04 24 11 00 00 00 	movl   $0x11,(%esp,1)
    1e05:	e8 fc ff ff ff       	call   1e06 <finishIncompleteRequest+0x186>
    1e0a:	83 c4 14             	add    $0x14,%esp
    1e0d:	5b                   	pop    %ebx
    1e0e:	5e                   	pop    %esi
    1e0f:	5f                   	pop    %edi
    1e10:	5d                   	pop    %ebp
    1e11:	e9 fc ff ff ff       	jmp    1e12 <finishIncompleteRequest+0x192>
    1e16:	39 43 40             	cmp    %eax,0x40(%ebx)
    1e19:	76 0b                	jbe    1e26 <finishIncompleteRequest+0x1a6>
    1e1b:	8d b7 d0 0a 00 00    	lea    0xad0(%edi),%esi
    1e21:	e9 03 ff ff ff       	jmp    1d29 <finishIncompleteRequest+0xa9>
    1e26:	c7 45 e8 01 00 00 00 	movl   $0x1,0xffffffe8(%ebp)
    1e2d:	e9 fd fe ff ff       	jmp    1d2f <finishIncompleteRequest+0xaf>
    1e32:	c7 44 24 04 3f 04 00 	movl   $0x43f,0x4(%esp,1)
    1e39:	00 
    1e3a:	c7 04 24 40 06 00 00 	movl   $0x640,(%esp,1)
    1e41:	e8 fc ff ff ff       	call   1e42 <finishIncompleteRequest+0x1c2>
    1e46:	e9 72 fe ff ff       	jmp    1cbd <finishIncompleteRequest+0x3d>
    1e4b:	c7 04 24 80 06 00 00 	movl   $0x680,(%esp,1)
    1e52:	e8 fc ff ff ff       	call   1e53 <finishIncompleteRequest+0x1d3>
    1e57:	c7 44 24 04 0d 00 00 	movl   $0xd,0x4(%esp,1)
    1e5e:	00 
    1e5f:	c7 04 24 11 00 00 00 	movl   $0x11,(%esp,1)
    1e66:	e8 fc ff ff ff       	call   1e67 <finishIncompleteRequest+0x1e7>
    1e6b:	e8 fc ff ff ff       	call   1e6c <finishIncompleteRequest+0x1ec>
    1e70:	e9 3a fe ff ff       	jmp    1caf <finishIncompleteRequest+0x2f>
    1e75:	8d 74 26 00          	lea    0x0(%esi,1),%esi
    1e79:	8d bc 27 00 00 00 00 	lea    0x0(%edi,1),%edi

00001e80 <updateParent>:
	queueNewRequest(sk, (struct Request*)req);
#if 0 // 0426 - do not push out requests in interrupt context, since the requests will be sent automatically
	pushRequests(sk);
#endif
}

static inline int processIncompleteResponse(struct sock *sk, struct WireUC_CVT_IncompleteResponse *incompleteResp, int responseLen) {
	/* Update conversion state, and use the incomplete
	   continuationn to generate and enqueue the request for the
	   next step in the parse */
	struct tcp_opt *tp = &sk->tp_pinfo.af_tcp;
	struct ConversionRequest *newConvReq;
	struct sk_buff *skb;
	int foundNextData = 0;
	struct WireUC_CVT_IncompleteContinuation *pred;
	unsigned predLength;
	unsigned ackSeq = ntohl(incompleteResp->ack_seq);
	int bytesConsumed = tp->t.snd_una;

	/* Need to finish this conversion. So find
	   next bytestream data to send, enqueue new
	   request in request queue */

	/* XXX This code does not gracefully handle
	   parallel parse requests */
	if(ackSeq > tp->t.snd_una) {
		tp->t.snd_una = ackSeq;
		if(tp->t.snd_una > tp->t.write_seq) {
			printk("BUG! after byte position update, snd_una %d > write_seq %d !\n", tp->t.snd_una, tp->t.write_seq);
			tp->t.snd_una = tp->t.write_seq;
			return -1;
		}
	}
	bytesConsumed = tp->t.snd_una - bytesConsumed;
	if(bytesConsumed == 0 &&
	   tp->t.snd_end - tp->t.snd_una >= MTU) {
		printk("Error: bytesConsumed == 0, but full MTU was sent! Forward progress cannot be made\n");
		return -1;
	}
	/* Deallocate any elements in send queue that we no longer need, and find next skb to use */
	for(skb = tp->t.requestBytes.next; skb != (struct sk_buff*)&tp->t.requestBytes; skb = skb->next) {
		if(TCP_SKB_CB(skb)->end_seq <= tp->t.snd_una) {
			struct sk_buff *clean = skb;
			skb = skb->prev;
			__skb_unlink(clean, &tp->t.requestBytes);
			kfree_skb(clean);
		}
		if(SKB_CONTAINS(skb, tp->t.snd_una)) {
			foundNextData = 1;
			break;
		}
	}
	newConvReq = kmalloc_ConversionRequest(GFP_ATOMIC);
	if(newConvReq == NULL) {
		printk("Out of memory while allocating Request to continue incomplete conversion!\n");
		return -1;
	}
	predLength = responseLen - ((char*)&incompleteResp->newCont - (char*)incompleteResp);
	pred = kmalloc_dup(&incompleteResp->newCont, predLength, GFP_ATOMIC);
	if(pred == NULL) {
		kfree(newConvReq);
		printk("kmalloc_dup() returned error\n");
		return -1;
	}
	if(!foundNextData) {
		// Defer installation of new request until data arrives from userlevel
		BUG_TRAP(tp->t.newIncompleteRequest == NULL);
		tp->t.conversionState = CONVERSION_WAITFORUSER;
		tp->t.newIncompleteRequest = newConvReq;
		initIncompleteConversionRequest(newConvReq, 
						pred, predLength,
						/* no data yet */
						NULL, -1);
		//printk("process_incomplete_request set conversion state to waitforuser\n");
	} else {
		BUG_TRAP(tp->t.newIncompleteRequest == NULL);
		tp->t.conversionState = CONVERSION_WAITFORSERVER;
		tp->t.newIncompleteRequest = NULL;
		initIncompleteConversionRequest(newConvReq, 
						pred, predLength, 
						/* data */
						skb,
						tp->t.snd_una - TCP_SKB_CB(skb)->seq);
		queueNewRequest(sk, (struct Request*)newConvReq);
#if 0 // 0426 - do not push out requests in interrupt context, since the requests will be sent automatically
		pushRequests(sk);
#endif
		//printk("process_incomplete_request set conversion state to waitforserver\n");
	}
	return 0;
}

#define LEFT 0
#define RIGHT 1

/* insertNewDep is used to insert a dependency into a blank range where no previous dependency ever existed */
static inline int insertNewDep(struct UC_DependencyNode *left, struct UC_DependencyNode *right, struct UC_DependencyNode *newDep, int side) {
	unsigned newStart, newEnd;
	struct UC_DependencyNode *clone;
	struct alloc_head *prev, *next;

	if(left == NULL) {
		newStart = newDep->start;
	} else {
		newStart = MAX(left->end, newDep->start);
		prev = (struct alloc_head*)left;
		next = left->next;
	}
	if(right == NULL) {
		newEnd = newDep->end;
	} else {
		newEnd = MIN(newDep->end, right->start);
		prev = right->prev;
		next = (struct alloc_head*)right;
	}
	switch(side) {
	case LEFT:
		if(right) {
			if(newDep->start >= right->start) {
				printk("insertNewDep: supposed to insert on left, but newDep is not at the left\n");
				return -1;
			}
		} else {
			printk("insertNewDep: supposed to insert on left, but nothing to the right\n");
			return -1;
		}
		break;
	case RIGHT:
		if(left) {
			if(newDep->end <= left->end) {
				printk("insertNewDep: supposed to insert on right, but newDep is not at the right\n");
				return -1;
			}
		} else {
			printk("insertNewDep: supposed to insert on right, but nothing to the left\n");
			return -1;
		}
		break;
	default:
		printk("insertNewDep: unknown side\n");
		return -1;
	}
	clone = copyUC_DependencyNode(newDep);
	if(clone == NULL) {
		printk("Out of memory while creating dependency at %d side\n", side);
		return -1;
	}
	insert((struct alloc_head*)clone, prev, next);
	return 0;
}

static inline int addNewUC_Continuation(struct sock *sk, struct UC_Continuation *newCont) {
	struct tcp_opt *tp = &sk->tp_pinfo.af_tcp;
	struct UC_Continuation *insertPos;

	// find place to insert new continuation
	alloc_head_reverse_walk(&tp->t.ucontList, insertPos) {
		/* insert the new continuation in the proper location */
		if(insertPos->clientValidStart < newCont->validStart) break;
	}
	newCont->clientValidStart = newCont->validStart;
	newCont->clientValidEnd = newCont->validEnd;
	
	// find intersections
	// Real validStart and validEnd should NOT be touched in this block
	struct alloc_head_list *insertionList = &tp->t.ucontList;
	insert((struct alloc_head*)newCont, 
	       (struct alloc_head*)insertPos, (struct alloc_head*)insertPos->next);

	// Now, resolve overlaps
	struct UC_Continuation *finger = (struct UC_Continuation *)insertPos, *nextCont;

	if((struct alloc_head_list*)finger == insertionList) {
		finger = (struct UC_Continuation*) finger->next;
	}
	unsigned lastByte = newCont->clientValidEnd;
	for(; (struct alloc_head_list*)finger->next != insertionList; finger = nextCont) {
		nextCont = (struct UC_Continuation *)finger->next;
		unsigned start = MAX(finger->clientValidStart, nextCont->clientValidStart),
			end = MIN(finger->clientValidEnd, nextCont->clientValidEnd);
		if(start < end) {
			struct UC_Continuation *left = NULL, *middle = NULL, *right = NULL,
				*older = NULL, *newer = NULL;
			struct alloc_head *iPrev = finger->prev;
			struct alloc_head *iPrev0 = iPrev;
			struct alloc_head *iNext = nextCont->next;

			// let newest continuation take intersection
			if(finger->seq > nextCont->seq) {
				older = nextCont;
				newer = finger;
			} else {
				older = finger;
				newer = nextCont;
			}
			if(older->clientValidStart < start) {
				left = older;
			}
			middle = newer;
			if(older->clientValidEnd > end) {
				if(left == older) {
					struct UC_Continuation *older1 = copyUC_Continuation(older);
					if(older1 == NULL) {
						printk("Out of memory while splitting continuation\n");
						return -1;
					}
#if 0 // 0707 -- unclear ???
					right->prev = right->next = NULL;
					right->list = NULL;
#endif
					right = older1;
				} else {
					right = older;
				}
			} else {
				if(!left) {
					BUG_TRAP(older != NULL);
					// older completely overlapped
					unlink((struct alloc_head*)older);
					kfree(older);
				}
			}
			if(left) {
				if(left->list)
					unlink((struct alloc_head*)left);
				left->clientValidEnd = start;
			}
			if(middle) {
				if(middle->list)
					unlink((struct alloc_head*)middle);
				// no clientValid* adjustment necessary, since middle is preserved
			}
			if(right) {
				if(right->list)
					unlink((struct alloc_head*)right);
				right->clientValidStart = end;
			}
			if(left) {
				insert((struct alloc_head*)left, iPrev, iNext);
				iPrev = (struct alloc_head *)left;
			}
			if(middle) {
				insert((struct alloc_head*)middle, iPrev, iNext);
				iPrev = (struct alloc_head*)middle;
			}
			if(right) {
				insert((struct alloc_head*)right, iPrev, iNext);
				iPrev = (struct alloc_head*)right;
			}
			/* Sanity checks */
			{
				struct UC_Continuation *finger = (struct UC_Continuation*)iPrev0;
				while((struct alloc_head*)finger->next != iNext) {
					if((struct alloc_head_list*)finger != insertionList &&
					   (struct alloc_head_list*)finger->next != insertionList) {
						BUG_TRAP(finger->clientValidEnd <= 
							 ((struct UC_Continuation*)finger->next)->clientValidStart);
					}
					finger = (struct UC_Continuation*)finger->next;
				}
			}
			nextCont = (struct UC_Continuation*)iPrev0; // XXX iNext->prev is a more efficient resumption point
		}
		if(end >= lastByte) {
			// no more overlaps possible
			break;
		}
	}
	// it's possible for client timer to block because we dont have continuations
	// XXX we may wish to guard this with more stringent checks to avoid unnecessary timeouts?
	resetClientTimer(sk);
	return 0;
}

void updateParent(struct sock *sk, enum UserRequestType matchType, unsigned matchID, 
		 unsigned numSiblings, unsigned position, 
		 unsigned start, unsigned end) {
    1e80:	55                   	push   %ebp
    1e81:	89 e5                	mov    %esp,%ebp
    1e83:	57                   	push   %edi
    1e84:	56                   	push   %esi
    1e85:	53                   	push   %ebx
    1e86:	83 ec 2c             	sub    $0x2c,%esp
	/* Additional POSTCONDITION: 	
	   tp->t.request_rcv_nxt updated
	*/
	int k;
	int foundCleanable = 0;
	struct tcp_opt *tp = &sk->tp_pinfo.af_tcp;
	struct alloc_head_list *list_heads[] = {&tp->t.sentRequests, 
						&tp->t.queuedRequests};
	struct Request *parent_req;
	for(k=0; k < sizeof(list_heads)/sizeof(list_heads[0]); k++) {
    1e89:	c7 45 d4 01 00 00 00 	movl   $0x1,0xffffffd4(%ebp)
    1e90:	8b 55 08             	mov    0x8(%ebp),%edx
    1e93:	0f b6 4d 14          	movzbl 0x14(%ebp),%ecx
    1e97:	c7 45 e4 00 00 00 00 	movl   $0x0,0xffffffe4(%ebp)
    1e9e:	8d 82 bc 00 00 00    	lea    0xbc(%edx),%eax
    1ea4:	d3 65 d4             	shll   %cl,0xffffffd4(%ebp)
    1ea7:	89 45 e0             	mov    %eax,0xffffffe0(%ebp)
    1eaa:	8d 82 24 0b 00 00    	lea    0xb24(%edx),%eax
    1eb0:	81 c2 38 0b 00 00    	add    $0xb38,%edx
    1eb6:	89 45 ec             	mov    %eax,0xffffffec(%ebp)
    1eb9:	89 55 f0             	mov    %edx,0xfffffff0(%ebp)
    1ebc:	c7 45 e8 00 00 00 00 	movl   $0x0,0xffffffe8(%ebp)
		struct alloc_head_list *head = list_heads[k];
    1ec3:	8b 75 e8             	mov    0xffffffe8(%ebp),%esi
    1ec6:	8b 7c b5 ec          	mov    0xffffffec(%ebp,%esi,4),%edi
		alloc_head_walk(head, parent_req) {
    1eca:	8b 5f 04             	mov    0x4(%edi),%ebx
    1ecd:	39 fb                	cmp    %edi,%ebx
    1ecf:	74 2e                	je     1eff <updateParent+0x7f>
    1ed1:	0f b6 4d 18          	movzbl 0x18(%ebp),%ecx
    1ed5:	c7 45 dc 01 00 00 00 	movl   $0x1,0xffffffdc(%ebp)
    1edc:	8b 75 d4             	mov    0xffffffd4(%ebp),%esi
    1edf:	d3 65 dc             	shll   %cl,0xffffffdc(%ebp)
    1ee2:	4e                   	dec    %esi
    1ee3:	89 75 d8             	mov    %esi,0xffffffd8(%ebp)
    1ee6:	8d 76 00             	lea    0x0(%esi),%esi
    1ee9:	8d bc 27 00 00 00 00 	lea    0x0(%edi,1),%edi
			unsigned positionMask = 1 << position;
			unsigned allMask;
			if(matchID != parent_req->seq) {
    1ef0:	8b 4b 3c             	mov    0x3c(%ebx),%ecx
    1ef3:	39 4d 10             	cmp    %ecx,0x10(%ebp)
    1ef6:	74 2b                	je     1f23 <updateParent+0xa3>
    1ef8:	8b 5b 04             	mov    0x4(%ebx),%ebx
    1efb:	39 fb                	cmp    %edi,%ebx
    1efd:	75 f1                	jne    1ef0 <updateParent+0x70>
				continue;
			}
			if(parent_req->type != matchType) {
				printk("updateParent: type does not match\n");
				return;
			}
			foundCleanable = 1;

			if(numSiblings > MAX_MREQ_CHILDREN) {
				printk("Too many siblings!\n");
				return;
			}
			if(position >= numSiblings) {
				printk("position >= numSiblings!\n");
				return;
			}
			if(!(parent_req->numChildren == 0 || 
			     numSiblings == parent_req->numChildren)) {
				printk("Inconsistent number of siblings!\n");
				return;
			}
			if(parent_req->childrenMask & positionMask) {
				printk("Already received this child\n");
				return;
			}
			parent_req->numChildren = numSiblings;
			if(parent_req->numChildren == 0) {
				printk("numChildren == 0 (not possible, because we just received a child\n");
				return;
			}
			parent_req->childrenMask |= positionMask;
			allMask = (unsigned)(1 << parent_req->numChildren) - 1;

			if((parent_req->childrenMask & allMask) == allMask) {
				/* Server may not have generated an update covering the entire continuation. If not, resubmit request */
				switch(parent_req->type) {
				case MREQ_CONTINUATION:
				case MREQ_CONVERSION: {
					// Deallocate parent
					// avoid stale pointer dereference when doing next step of alloc_head_walk
					struct Request *clean = parent_req;
					BUG_TRAP(parent_req->seq == tp->t.request_rcv_nxt);
					tp->t.request_rcv_nxt++;

					parent_req = (struct Request *)clean->prev;
					//printk("removed %u-%u\n", clean->start, clean->end);
					unlink((struct alloc_head*)clean);
					freeRequest(clean);
					break;
				}
				default:
					printk("updateParent: unsupported parent type\n");
					BUG();
				}
			}
		}
		/* back in outer loop */
		if(foundCleanable) {
    1eff:	8b 45 e4             	mov    0xffffffe4(%ebp),%eax
    1f02:	85 c0                	test   %eax,%eax
    1f04:	75 15                	jne    1f1b <updateParent+0x9b>
    1f06:	ff 45 e8             	incl   0xffffffe8(%ebp)
    1f09:	83 7d e8 01          	cmpl   $0x1,0xffffffe8(%ebp)
    1f0d:	76 b4                	jbe    1ec3 <updateParent+0x43>
			break;
		}
	}
	if(!foundCleanable) {
		printk("Error: could not find matching request in reliable request queue!\n");
    1f0f:	c7 04 24 c0 06 00 00 	movl   $0x6c0,(%esp,1)
    1f16:	e8 fc ff ff ff       	call   1f17 <updateParent+0x97>
	}
}
    1f1b:	83 c4 2c             	add    $0x2c,%esp
    1f1e:	5b                   	pop    %ebx
    1f1f:	5e                   	pop    %esi
    1f20:	5f                   	pop    %edi
    1f21:	5d                   	pop    %ebp
    1f22:	c3                   	ret    
    1f23:	8b 43 0c             	mov    0xc(%ebx),%eax
    1f26:	8b 55 0c             	mov    0xc(%ebp),%edx
    1f29:	89 45 d0             	mov    %eax,0xffffffd0(%ebp)
    1f2c:	39 d0                	cmp    %edx,%eax
    1f2e:	0f 85 46 01 00 00    	jne    207a <updateParent+0x1fa>
    1f34:	83 7d 14 04          	cmpl   $0x4,0x14(%ebp)
    1f38:	c7 45 e4 01 00 00 00 	movl   $0x1,0xffffffe4(%ebp)
    1f3f:	0f 87 29 01 00 00    	ja     206e <updateParent+0x1ee>
    1f45:	8b 75 14             	mov    0x14(%ebp),%esi
    1f48:	39 75 18             	cmp    %esi,0x18(%ebp)
    1f4b:	0f 83 11 01 00 00    	jae    2062 <updateParent+0x1e2>
    1f51:	8b 43 10             	mov    0x10(%ebx),%eax
    1f54:	85 c0                	test   %eax,%eax
    1f56:	74 09                	je     1f61 <updateParent+0xe1>
    1f58:	39 45 14             	cmp    %eax,0x14(%ebp)
    1f5b:	0f 85 f5 00 00 00    	jne    2056 <updateParent+0x1d6>
    1f61:	0f b6 53 14          	movzbl 0x14(%ebx),%edx
    1f65:	89 d0                	mov    %edx,%eax
    1f67:	83 e0 0f             	and    $0xf,%eax
    1f6a:	85 45 dc             	test   %eax,0xffffffdc(%ebp)
    1f6d:	0f 85 d7 00 00 00    	jne    204a <updateParent+0x1ca>
    1f73:	8b 75 14             	mov    0x14(%ebp),%esi
    1f76:	85 f6                	test   %esi,%esi
    1f78:	89 73 10             	mov    %esi,0x10(%ebx)
    1f7b:	0f 84 bd 00 00 00    	je     203e <updateParent+0x1be>
    1f81:	8b 75 dc             	mov    0xffffffdc(%ebp),%esi
    1f84:	80 e2 f0             	and    $0xf0,%dl
    1f87:	09 f0                	or     %esi,%eax
    1f89:	24 0f                	and    $0xf,%al
    1f8b:	08 c2                	or     %al,%dl
    1f8d:	89 d0                	mov    %edx,%eax
    1f8f:	88 53 14             	mov    %dl,0x14(%ebx)
    1f92:	8b 55 d8             	mov    0xffffffd8(%ebp),%edx
    1f95:	83 e0 0f             	and    $0xf,%eax
    1f98:	21 d0                	and    %edx,%eax
    1f9a:	3b 45 d8             	cmp    0xffffffd8(%ebp),%eax
    1f9d:	0f 85 55 ff ff ff    	jne    1ef8 <updateParent+0x78>
    1fa3:	83 7d d0 01          	cmpl   $0x1,0xffffffd0(%ebp)
    1fa7:	77 6b                	ja     2014 <updateParent+0x194>
    1fa9:	8b 55 e0             	mov    0xffffffe0(%ebp),%edx
    1fac:	89 de                	mov    %ebx,%esi
    1fae:	8b 82 48 0a 00 00    	mov    0xa48(%edx),%eax
    1fb4:	39 c1                	cmp    %eax,%ecx
    1fb6:	74 1d                	je     1fd5 <updateParent+0x155>
    1fb8:	c7 44 24 04 a4 05 00 	movl   $0x5a4,0x4(%esp,1)
    1fbf:	00 
    1fc0:	c7 04 24 20 07 00 00 	movl   $0x720,(%esp,1)
    1fc7:	e8 fc ff ff ff       	call   1fc8 <updateParent+0x148>
    1fcc:	8b 4d e0             	mov    0xffffffe0(%ebp),%ecx
    1fcf:	8b 81 48 0a 00 00    	mov    0xa48(%ecx),%eax
    1fd5:	8b 55 e0             	mov    0xffffffe0(%ebp),%edx
    1fd8:	40                   	inc    %eax
    1fd9:	89 82 48 0a 00 00    	mov    %eax,0xa48(%edx)
		BUG();
	}
#endif

	elem->next->prev = elem->prev;
    1fdf:	8b 56 04             	mov    0x4(%esi),%edx
    1fe2:	8b 06                	mov    (%esi),%eax
    1fe4:	8b 1b                	mov    (%ebx),%ebx
		BUG();
	}
#endif

	elem->next->prev = elem->prev;
    1fe6:	89 02                	mov    %eax,(%edx)
	elem->prev->next = elem->next;
    1fe8:	8b 06                	mov    (%esi),%eax
	elem->prev = elem->next = NULL;
    1fea:	c7 06 00 00 00 00    	movl   $0x0,(%esi)
    1ff0:	89 50 04             	mov    %edx,0x4(%eax)

	elem->list->len--;
    1ff3:	8b 46 08             	mov    0x8(%esi),%eax
    1ff6:	c7 46 04 00 00 00 00 	movl   $0x0,0x4(%esi)
    1ffd:	ff 48 10             	decl   0x10(%eax)
	elem->list = NULL;
    2000:	c7 46 08 00 00 00 00 	movl   $0x0,0x8(%esi)
    2007:	89 34 24             	mov    %esi,(%esp,1)
    200a:	e8 fc ff ff ff       	call   200b <updateParent+0x18b>
    200f:	e9 e4 fe ff ff       	jmp    1ef8 <updateParent+0x78>
    2014:	c7 04 24 80 07 00 00 	movl   $0x780,(%esp,1)
    201b:	e8 fc ff ff ff       	call   201c <updateParent+0x19c>
    2020:	c7 44 24 04 0d 00 00 	movl   $0xd,0x4(%esp,1)
    2027:	00 
    2028:	c7 04 24 11 00 00 00 	movl   $0x11,(%esp,1)
    202f:	e8 fc ff ff ff       	call   2030 <updateParent+0x1b0>
    2034:	e8 fc ff ff ff       	call   2035 <updateParent+0x1b5>
    2039:	e9 ba fe ff ff       	jmp    1ef8 <updateParent+0x78>
    203e:	c7 04 24 c0 07 00 00 	movl   $0x7c0,(%esp,1)
    2045:	e9 cc fe ff ff       	jmp    1f16 <updateParent+0x96>
    204a:	c7 04 24 35 01 00 00 	movl   $0x135,(%esp,1)
    2051:	e9 c0 fe ff ff       	jmp    1f16 <updateParent+0x96>
    2056:	c7 04 24 20 08 00 00 	movl   $0x820,(%esp,1)
    205d:	e9 b4 fe ff ff       	jmp    1f16 <updateParent+0x96>
    2062:	c7 04 24 52 01 00 00 	movl   $0x152,(%esp,1)
    2069:	e9 a8 fe ff ff       	jmp    1f16 <updateParent+0x96>
    206e:	c7 04 24 6c 01 00 00 	movl   $0x16c,(%esp,1)
    2075:	e9 9c fe ff ff       	jmp    1f16 <updateParent+0x96>
    207a:	c7 04 24 60 08 00 00 	movl   $0x860,(%esp,1)
    2081:	e9 90 fe ff ff       	jmp    1f16 <updateParent+0x96>
    2086:	8d 76 00             	lea    0x0(%esi),%esi
    2089:	8d bc 27 00 00 00 00 	lea    0x0(%edi,1),%edi

00002090 <removeObsoleteContinuations>:

void removeObsoleteContinuations(struct sock *sk) {
    2090:	55                   	push   %ebp
    2091:	89 e5                	mov    %esp,%ebp
    2093:	57                   	push   %edi
    2094:	56                   	push   %esi
    2095:	53                   	push   %ebx
    2096:	83 ec 04             	sub    $0x4,%esp
    2099:	8b 45 08             	mov    0x8(%ebp),%eax
	struct tcp_opt *tp = &sk->tp_pinfo.af_tcp;
    209c:	8d b8 bc 00 00 00    	lea    0xbc(%eax),%edi
	struct UC_Continuation *ucont;
	int count = 0;
	alloc_head_walk(&tp->t.ucontList, ucont) {
    20a2:	05 a0 0b 00 00       	add    $0xba0,%eax
    20a7:	8b 9f e8 0a 00 00    	mov    0xae8(%edi),%ebx
    20ad:	39 c3                	cmp    %eax,%ebx
    20af:	74 1e                	je     20cf <removeObsoleteContinuations+0x3f>
    20b1:	89 c6                	mov    %eax,%esi
    20b3:	8d b6 00 00 00 00    	lea    0x0(%esi),%esi
    20b9:	8d bc 27 00 00 00 00 	lea    0x0(%edi,1),%edi
		if(ucont->kernel.obsoleteAt <= tp->rcv_nxt) {
    20c0:	8b 47 08             	mov    0x8(%edi),%eax
    20c3:	39 43 2c             	cmp    %eax,0x2c(%ebx)
    20c6:	76 0d                	jbe    20d5 <removeObsoleteContinuations+0x45>
    20c8:	8b 5b 04             	mov    0x4(%ebx),%ebx
    20cb:	39 f3                	cmp    %esi,%ebx
    20cd:	75 f1                	jne    20c0 <removeObsoleteContinuations+0x30>
			struct UC_Continuation *clean = ucont;
#ifdef FINDUC_DBG
			printk("Removed continuation c=%d o=%d [%d-%d] [%d-%d]\n", 
			       count, clean->kernel.obsoleteAt,
			       clean->validStart, clean->validEnd,
			       clean->clientValidStart, clean->clientValidEnd);
#endif
			ucont = (struct UC_Continuation*)ucont->prev;
			unlink((struct alloc_head*)clean);
			count++;
			kfree(clean);
		}
	}
}
    20cf:	5f                   	pop    %edi
    20d0:	5b                   	pop    %ebx
    20d1:	5e                   	pop    %esi
    20d2:	5f                   	pop    %edi
    20d3:	5d                   	pop    %ebp
    20d4:	c3                   	ret    
    20d5:	89 da                	mov    %ebx,%edx
    20d7:	8b 1b                	mov    (%ebx),%ebx
		BUG();
	}
#endif

	elem->next->prev = elem->prev;
    20d9:	8b 4a 04             	mov    0x4(%edx),%ecx
    20dc:	89 19                	mov    %ebx,(%ecx)
	elem->prev->next = elem->next;
    20de:	8b 02                	mov    (%edx),%eax
	elem->prev = elem->next = NULL;
    20e0:	c7 02 00 00 00 00    	movl   $0x0,(%edx)
    20e6:	89 48 04             	mov    %ecx,0x4(%eax)

	elem->list->len--;
    20e9:	8b 42 08             	mov    0x8(%edx),%eax
    20ec:	c7 42 04 00 00 00 00 	movl   $0x0,0x4(%edx)
    20f3:	ff 48 10             	decl   0x10(%eax)
	elem->list = NULL;
    20f6:	c7 42 08 00 00 00 00 	movl   $0x0,0x8(%edx)
    20fd:	89 14 24             	mov    %edx,(%esp,1)
    2100:	e8 fc ff ff ff       	call   2101 <removeObsoleteContinuations+0x71>
    2105:	eb c1                	jmp    20c8 <removeObsoleteContinuations+0x38>
    2107:	89 f6                	mov    %esi,%esi
    2109:	8d bc 27 00 00 00 00 	lea    0x0(%edi,1),%edi

00002110 <removeObsoleteDependencies>:

void removeObsoleteDependencies(struct sock *sk) {
    2110:	55                   	push   %ebp
    2111:	89 e5                	mov    %esp,%ebp
    2113:	56                   	push   %esi
    2114:	53                   	push   %ebx
    2115:	83 ec 08             	sub    $0x8,%esp
    2118:	8b 45 08             	mov    0x8(%ebp),%eax
	struct tcp_opt *tp = &sk->tp_pinfo.af_tcp;
	struct UC_DependencyNode *depNode;
	/* Drop reference count for dependency nodes that we no longer need for requesting new data */
	alloc_head_walk(&tp->t.depNodeList, depNode) {
    211b:	8b 98 b8 0b 00 00    	mov    0xbb8(%eax),%ebx
    2121:	05 b4 0b 00 00       	add    $0xbb4,%eax
    2126:	39 c3                	cmp    %eax,%ebx
    2128:	74 32                	je     215c <removeObsoleteDependencies+0x4c>
    212a:	89 c6                	mov    %eax,%esi
    212c:	8d 74 26 00          	lea    0x0(%esi,1),%esi
    return 0;
  }
  return dep->refCnt;
#else
  printk("Dependency management doesn't work yet\n");
    2130:	c7 04 24 a0 08 00 00 	movl   $0x8a0,(%esp,1)
    2137:	e8 fc ff ff ff       	call   2138 <removeObsoleteDependencies+0x28>
  BUG();
    213c:	c7 44 24 04 0d 00 00 	movl   $0xd,0x4(%esp,1)
    2143:	00 
    2144:	c7 04 24 11 00 00 00 	movl   $0x11,(%esp,1)
    214b:	e8 fc ff ff ff       	call   214c <removeObsoleteDependencies+0x3c>
    2150:	e8 fc ff ff ff       	call   2151 <removeObsoleteDependencies+0x41>
    2155:	8b 5b 04             	mov    0x4(%ebx),%ebx
    2158:	39 f3                	cmp    %esi,%ebx
    215a:	75 d4                	jne    2130 <removeObsoleteDependencies+0x20>
		struct UC_DependencyNode *prev = (struct UC_DependencyNode*)depNode->prev;
		if(freeDependencyNode(sk,depNode) == 0) {
			/* dependency was freed and unlinked, so avoid dereferencing a dangling pointer */
			depNode = prev;
		}
	}
}
    215c:	83 c4 08             	add    $0x8,%esp
    215f:	5b                   	pop    %ebx
    2160:	5e                   	pop    %esi
    2161:	5d                   	pop    %ebp
    2162:	c3                   	ret    
    2163:	8d b6 00 00 00 00    	lea    0x0(%esi),%esi
    2169:	8d bc 27 00 00 00 00 	lea    0x0(%edi,1),%edi

00002170 <UpdateClientTransportState>:

static inline void removeObsoleteDataRequestMaps(struct sock *sk, unsigned transportSeq) {
	/* Side effect: updates rtt estimate */
	struct tcp_opt *tp = &sk->tp_pinfo.af_tcp;
	int i;
	struct DataRequestMapping *dataReqMap, *nextDataReqMap;
	struct alloc_head_list* dataRequestLists[] = {
		&tp->t.dataRequestMap,
		&tp->t.missingDataMap};

	TIMING_CTX_DEF0("removeObsoleteDataRequestMaps", "requestMap", "missingMap");
	TIMING_CTX_DEF1(1,1);
	reinitTimingCtx(&ctx);
	for(i=0; i < 2; i++) {
		struct alloc_head_list *currList = dataRequestLists[i];
		recordSample(&ctx, i);
		for(dataReqMap = (struct DataRequestMapping *)currList->next;
		    dataReqMap != (struct DataRequestMapping *)currList;
		    dataReqMap = nextDataReqMap) {
			int freed = 0;
			nextDataReqMap = dataReqMap->next;

			if(dataReqMap->end <= tp->rcv_nxt) {
				unlink((struct alloc_head*)dataReqMap);
				/* update rtt estimate if obsolete request matches current packet */
				// XXX - with this algorithm, reordering inflates rtt (timing is updated when the packet can be delivered in-order, not when it is first received)
				// XXX should we test the sequence number?
				if(1 /* || dataReqMap->transportResponseSeqStart <= transportSeq && 
					transportSeq < dataReqMap->transportResponseSeqEnd */) {
#ifdef FIXEDRTT
					tp->t.rtt = (FIXEDRTT);
#else
#if 0
					if(tp->t.rtt == 0) {
						tp->t.rtt = (jiffies - dataReqMap->timestamp) << 3;
					} else {
						tp->t.rtt = (tp->t.rtt - (tp->t.rtt >> 3)) +
							(jiffies - dataReqMap->timestamp);
					}
#else
					// 0425: change to use timestamp option
					// code moved to trickles_client_rcv
#endif
#endif
					{
						static int rttCounter = 0;
						rttCounter++;
						if(clientDebugLevel >= 2) {
							if(rttCounter % 1000 == 0)
								printk("HZ=%d delta %lu, new rtt %d %d/8\n", HZ, jiffies - dataReqMap->timestamp, tp->t.rtt >> 3, tp->t.rtt & 0x7);
						}
					}
				}
				freeDataRequestMapping(dataReqMap);
				freed = 1;
#if 0
				// use new value of rtt for timeout
				tp->t.delay = 2 * (tp->t.rtt >> 3);
#else
				// moved to trickles_client_rcv
#endif
				resetClientTimer(sk);
			}
			if(!freed && dataReqMap->sent && 
			   !dataReqMap->completed && // hint
			   tp->t.rcv_nxt >= dataReqMap->transportResponseSeqEnd) {
				// dataReqMap is still valid
				// If tp->t.rcv_nxt >= transportSeqEnd, then the server may not have sent us the full request.
				// Find missing parts of the request, and resubmit

				// save old head
				struct alloc_head *prevMap = (struct alloc_head*) dataReqMap->prev, 
					*nextMap = (struct alloc_head*)dataReqMap->next;
				int inserted = 0;
				int lastEnd = MAX(dataReqMap->start, tp->rcv_nxt);
				struct sk_buff *finger = tp->t.ofo_queue.next;
				unlink((struct alloc_head*)dataReqMap);

				// XXX 0505 OPTIMIZE - Pick optimal walking direction? Would probably result in 2x speedup if we
				// check whether we're closer to the left or the right
				skb_queue_walk(&tp->t.data_ofo_queue, finger) {
					// detect overlap
					int minSeq = MAX(TCP_SKB_CB(finger)->seq, dataReqMap->start);
					int maxSeq = MIN(TCP_SKB_CB(finger)->end_seq, dataReqMap->end);
					if(maxSeq >= dataReqMap->end) {
						break;
					}
					if(minSeq < maxSeq) {
						// overlap
						if(lastEnd < minSeq) {
							// void between last skb and this skb; ask server to fill it in
							submitDerivedDataRequestMapping(sk, dataReqMap, lastEnd, minSeq);
							inserted = 1;
#ifdef SPEW_PARTIAL
							printk("Inserted %d-%d\n", lastEnd, minSeq);
#endif
						}
						lastEnd = maxSeq;
					}
				}

				if(lastEnd < dataReqMap->end) {
					int myStart = lastEnd,
						myEnd = dataReqMap->end;
					if(!inserted) {
						// common case: server omitted data at the end of the request. 
						// Reuse existing mapping
						submitDataRequestMapping(sk, dataReqMap, myStart, myEnd);
#ifdef SPEW_PARTIAL
						printk("Inserted %d-%d\n", myStart, myEnd);
#endif
					} else {
						submitDerivedDataRequestMapping(sk, dataReqMap, myStart, myEnd);
#ifdef SPEW_PARTIAL
						printk("Inserted %d-%d\n", myStart, myEnd);
#endif
					}
				} else {
					if(!inserted) {
						// request is completely covered; put it back
						dataReqMap->completed = 1;
						insert((struct alloc_head*)dataReqMap, prevMap, nextMap);
					}
				}
			}
		}
		recordSample(&ctx, i);
	}
	printTimings(&ctx);
}

void UpdateClientTransportState(struct sock *sk, struct sk_buff *skb, CONTINUATION_TYPE *cont) {
    2170:	55                   	push   %ebp
    2171:	89 e5                	mov    %esp,%ebp
    2173:	83 ec 34             	sub    $0x34,%esp
    2176:	89 5d f4             	mov    %ebx,0xfffffff4(%ebp)
	struct tcp_opt *tp = &sk->tp_pinfo.af_tcp;
    2179:	8b 5d 08             	mov    0x8(%ebp),%ebx
	// if noCont, then no available information for updating state machine
	BUG_TRAP(cont->seq <= tp->t.rcv_nxt);
    217c:	8b 55 10             	mov    0x10(%ebp),%edx
    217f:	89 75 f8             	mov    %esi,0xfffffff8(%ebp)
    2182:	81 c3 bc 00 00 00    	add    $0xbc,%ebx
    2188:	89 7d fc             	mov    %edi,0xfffffffc(%ebp)
    218b:	8b 83 dc 02 00 00    	mov    0x2dc(%ebx),%eax
    2191:	39 42 34             	cmp    %eax,0x34(%edx)
    2194:	0f 87 18 04 00 00    	ja     25b2 <UpdateClientTransportState+0x442>
#define UPTODATE(CONT) ((CONT)->clientState == tp->t.clientStateCounter)
	/* Transport level updates */
	if(cont->continuationType == CONTTYPE_MINIMAL) {
    219a:	8b 75 10             	mov    0x10(%ebp),%esi
    219d:	8b 46 38             	mov    0x38(%esi),%eax
    21a0:	85 c0                	test   %eax,%eax
    21a2:	74 1c                	je     21c0 <UpdateClientTransportState+0x50>
		// minimal continuation type cannot update transport state
		return;
	}
	switch(tp->t.state) {
    21a4:	8b 83 cc 02 00 00    	mov    0x2cc(%ebx),%eax
    21aa:	83 f8 02             	cmp    $0x2,%eax
    21ad:	0f 84 bd 03 00 00    	je     2570 <UpdateClientTransportState+0x400>
    21b3:	83 f8 02             	cmp    $0x2,%eax
    21b6:	7f 38                	jg     21f0 <UpdateClientTransportState+0x80>
    21b8:	48                   	dec    %eax
    21b9:	74 12                	je     21cd <UpdateClientTransportState+0x5d>
    21bb:	90                   	nop    
    21bc:	8d 74 26 00          	lea    0x0(%esi,1),%esi
	case TRICKLES_CLIENT_NORMAL:
		if(cont->firstChild)
			tp->t.in_flight = MAX(0, tp->t.in_flight - 1);
		break;
	case TRICKLES_CLIENT_RECOVERY:
		if(cont->state == CONT_BOOTSTRAP &&
		   UPTODATE(cont)) {
			if(clientDebugLevel >= 2)
				printk("received bootstrap continuation\n");
			/* during recovery, need to switch to bootstrap continuation */
			/* If bootstrap state, fall through to check if we should exit from recovery */
			goto exit_recovery;
		} else {
			break;
		}
	case TRICKLES_CLIENT_SLOWSTART:
	exit_recovery:
		if(UPTODATE(cont) && cont->seq == cont->TCPBase) {
			/* exit recovery */
			CONTINUATION_TYPE *cont_curs, *next;
			__u32 prev_seq = tp->t.ack_prev->TCPBase; // 0501 cleanup
			if(clientDebugLevel >= 1)
				printk("client_rcv: exit recovery or slow start : seq = %u oldBase = %u newBase = %u startCwnd = %u\n", cont->seq, 
				       prev_seq, cont->TCPBase, cont->startCwnd);

			tp->t.standardProof.numSacks = 0;
			AckProof_update(sk, &tp->t.standardProof, cont);
			for(cont_curs = (CONTINUATION_TYPE*)tp->t.cont_list.next;
			    cont_curs != (CONTINUATION_TYPE*)&tp->t.cont_list;
			    cont_curs = next) {
				next = (CONTINUATION_TYPE*)cont_curs->next;

				// 0424 - tighten up conditions to detect inconsistent states
				/*
				if(((tp->t.state == TRICKLES_CLIENT_SLOWSTART && UPTODATE(cont_curs)) ||
				    ((tp->t.state == TRICKLES_CLIENT_RECOVERY) && cont_curs->seq >= cont->TCPBase))) {
				*/
				if(UPTODATE(cont_curs) && cont_curs->TCPBase >= cont->TCPBase) {
					BUG_TRAP(cont_curs->TCPBase >= cont->TCPBase);
					AckProof_update(sk, &tp->t.standardProof, cont_curs);
				} else {
					/* there should not be any older continuations in list */
					// XXX 0426 - Additional violation situations are possible if requestSlowStart fails because it cannot find a continuation that can be used for the slow start request
					if(!(cont_curs->clientState == tp->t.clientStateCounter-2 /* recovery followed by slow start */ || 
					     cont_curs->clientState == tp->t.clientStateCounter-1 /* recovery */||
					     cont_curs->clientState == tp->t.clientStateCounter)) {
						if(!disableSevereErrors)
							printk("%p: cleaning violation: cursor state %d current client state %d\n",
							       sk, cont_curs->clientState, tp->t.clientStateCounter);
					}
					BUG_TRAP(cont_curs != cont);
					unlinkCont(cont_curs);
					MARK_PC(cont_curs);
#if 1 // 0430 disabled to isolate bug (yes this reveals a bunch of memory errors)
					freeClientSide_Continuation(cont_curs);
#else
					if((int)cont_curs & 0xfff) {
						BUG();
					}
					BUG_TRAP(((int)cont_curs & 0xfff) == 0);
					zap_virt(cont_curs);
#endif
				}
			}
			/* only up-to-date continuations in cont_list now */
			tp->t.altProof = tp->t.standardProof;
#if 0
			printk("standard ");
			AckProof_dump(&tp->t.standardProof);
			printk("alt ");
			AckProof_dump(&tp->t.altProof);
#endif
			BUG_TRAP(tp->t.standardProof.sacks[0].left <= cont->TCPBase);
			BUG_TRAP(tp->t.altProof.sacks[0].left <= cont->TCPBase);
				
			tp->t.previous_base = cont->TCPBase;
			if(clientDebugLevel >= 1)
				printk("new cwnd: %d ssthresh: %d seq: %d base: %d\n", cont->startCwnd, cont->ssthresh, cont->seq, cont->TCPBase);
			if(clientDebugLevel >= 1 ||  debugTransitions) {
				char *oldState;
				switch(tp->t.state) {
				case TRICKLES_CLIENT_SLOWSTART:
					oldState = "SlowStart";
					break;
				case TRICKLES_CLIENT_RECOVERY:
					oldState = "Recovery";
					break;
				case TRICKLES_CLIENT_NORMAL:
					oldState = "NORMAL!!";
					BUG();
					break;
				default:
					oldState = "UNKNOWN!!";
					BUG();
					break;
				}
				printk("%p: %s=>Normal\n", sk, oldState); // 0419
			}
			appendTricklesLossEvent(sk, MIN(cont->startCwnd, EVENT_CWND_MAX),
						EVENT_EXTRA_RECV, tp->t.state);

			tp->t.state = TRICKLES_CLIENT_NORMAL;
			tp->t.oo_count = 0;
			tp->t.in_flight = 0;

			tp->t.timerState = TRICKLES_ENABLE_DATA_TIMEOUT;
			resetClientTimer(sk);

			//SAVE_ACK_PREV(tp);
			tp->t.ack_prev = NULL;
			tp->t.ack_last = cont->seq;
			//0501 - called twice when recovering
			//findAckables(sk, 0, NULL);
			break;
		}
	}
}
    21c0:	8b 5d f4             	mov    0xfffffff4(%ebp),%ebx
    21c3:	8b 75 f8             	mov    0xfffffff8(%ebp),%esi
    21c6:	8b 7d fc             	mov    0xfffffffc(%ebp),%edi
    21c9:	89 ec                	mov    %ebp,%esp
    21cb:	5d                   	pop    %ebp
    21cc:	c3                   	ret    
    21cd:	8b 7d 10             	mov    0x10(%ebp),%edi
    21d0:	8b 47 5c             	mov    0x5c(%edi),%eax
    21d3:	85 c0                	test   %eax,%eax
    21d5:	74 e9                	je     21c0 <UpdateClientTransportState+0x50>
    21d7:	8b 83 fc 02 00 00    	mov    0x2fc(%ebx),%eax
    21dd:	31 d2                	xor    %edx,%edx
    21df:	48                   	dec    %eax
    21e0:	0f 49 d0             	cmovns %eax,%edx
    21e3:	89 93 fc 02 00 00    	mov    %edx,0x2fc(%ebx)
    21e9:	eb d5                	jmp    21c0 <UpdateClientTransportState+0x50>
    21eb:	90                   	nop    
    21ec:	8d 74 26 00          	lea    0x0(%esi,1),%esi
    21f0:	83 f8 03             	cmp    $0x3,%eax
    21f3:	75 cb                	jne    21c0 <UpdateClientTransportState+0x50>
    21f5:	8b 7d 10             	mov    0x10(%ebp),%edi
    21f8:	8b 57 3c             	mov    0x3c(%edi),%edx
    21fb:	8b 83 c8 02 00 00    	mov    0x2c8(%ebx),%eax
    2201:	39 c2                	cmp    %eax,%edx
    2203:	75 bb                	jne    21c0 <UpdateClientTransportState+0x50>
    2205:	8b 45 10             	mov    0x10(%ebp),%eax
    2208:	8b 50 34             	mov    0x34(%eax),%edx
    220b:	3b 50 70             	cmp    0x70(%eax),%edx
    220e:	75 b0                	jne    21c0 <UpdateClientTransportState+0x50>
    2210:	8b 83 f0 02 00 00    	mov    0x2f0(%ebx),%eax
    2216:	8b 48 70             	mov    0x70(%eax),%ecx
    2219:	a1 00 00 00 00       	mov    0x0,%eax
    221e:	85 c0                	test   %eax,%eax
    2220:	7e 22                	jle    2244 <UpdateClientTransportState+0xd4>
    2222:	8b 75 10             	mov    0x10(%ebp),%esi
    2225:	8b 46 68             	mov    0x68(%esi),%eax
    2228:	89 54 24 0c          	mov    %edx,0xc(%esp,1)
    222c:	89 4c 24 08          	mov    %ecx,0x8(%esp,1)
    2230:	89 54 24 04          	mov    %edx,0x4(%esp,1)
    2234:	89 44 24 10          	mov    %eax,0x10(%esp,1)
    2238:	c7 04 24 e0 08 00 00 	movl   $0x8e0,(%esp,1)
    223f:	e8 fc ff ff ff       	call   2240 <UpdateClientTransportState+0xd0>
    2244:	31 c0                	xor    %eax,%eax
    2246:	89 83 00 03 00 00    	mov    %eax,0x300(%ebx)
    224c:	8d 83 00 03 00 00    	lea    0x300(%ebx),%eax
    2252:	8b 7d 10             	mov    0x10(%ebp),%edi
    2255:	89 45 ec             	mov    %eax,0xffffffec(%ebp)
    2258:	8b 55 08             	mov    0x8(%ebp),%edx
    225b:	89 44 24 04          	mov    %eax,0x4(%esp,1)
    225f:	89 7c 24 08          	mov    %edi,0x8(%esp,1)
    2263:	8d bb 20 0a 00 00    	lea    0xa20(%ebx),%edi
    2269:	89 14 24             	mov    %edx,(%esp,1)
    226c:	e8 fc ff ff ff       	call   226d <UpdateClientTransportState+0xfd>
    2271:	8b b3 24 0a 00 00    	mov    0xa24(%ebx),%esi
    2277:	89 7d e4             	mov    %edi,0xffffffe4(%ebp)
    227a:	39 fe                	cmp    %edi,%esi
    227c:	0f 84 c1 00 00 00    	je     2343 <UpdateClientTransportState+0x1d3>
    2282:	8b 46 04             	mov    0x4(%esi),%eax
    2285:	89 45 f0             	mov    %eax,0xfffffff0(%ebp)
    2288:	8b 56 3c             	mov    0x3c(%esi),%edx
    228b:	8b 8b c8 02 00 00    	mov    0x2c8(%ebx),%ecx
    2291:	39 ca                	cmp    %ecx,%edx
    2293:	0f 84 ad 02 00 00    	je     2546 <UpdateClientTransportState+0x3d6>
    2299:	8d 41 fe             	lea    0xfffffffe(%ecx),%eax
    229c:	39 c2                	cmp    %eax,%edx
    229e:	74 19                	je     22b9 <UpdateClientTransportState+0x149>
    22a0:	8d 41 ff             	lea    0xffffffff(%ecx),%eax
    22a3:	39 c2                	cmp    %eax,%edx
    22a5:	74 12                	je     22b9 <UpdateClientTransportState+0x149>
    22a7:	39 ca                	cmp    %ecx,%edx
    22a9:	74 0e                	je     22b9 <UpdateClientTransportState+0x149>
    22ab:	8b 3d 00 00 00 00    	mov    0x0,%edi
    22b1:	85 ff                	test   %edi,%edi
    22b3:	0f 84 6a 02 00 00    	je     2523 <UpdateClientTransportState+0x3b3>
    22b9:	3b 75 10             	cmp    0x10(%ebp),%esi
    22bc:	0f 84 48 02 00 00    	je     250a <UpdateClientTransportState+0x39a>
		BUG();
	}
#endif

	elem->next->prev = elem->prev;
    22c2:	8b 56 04             	mov    0x4(%esi),%edx
    22c5:	8b 06                	mov    (%esi),%eax
    22c7:	89 02                	mov    %eax,(%edx)
	elem->prev->next = elem->next;
    22c9:	8b 06                	mov    (%esi),%eax
	elem->prev = elem->next = NULL;
    22cb:	c7 06 00 00 00 00    	movl   $0x0,(%esi)
    22d1:	89 50 04             	mov    %edx,0x4(%eax)

	elem->list->len--;
    22d4:	8b 46 08             	mov    0x8(%esi),%eax
    22d7:	c7 46 04 00 00 00 00 	movl   $0x0,0x4(%esi)
    22de:	ff 48 10             	decl   0x10(%eax)
	elem->list = NULL;
    22e1:	c7 46 08 00 00 00 00 	movl   $0x0,0x8(%esi)
  if(cont->list) {
	  BUG();
  }

  for(i=0; i < 2; i++) {
    22e8:	c7 45 e0 00 00 00 00 	movl   $0x0,0xffffffe0(%ebp)
    22ef:	c7 45 e8 01 00 00 00 	movl   $0x1,0xffffffe8(%ebp)
    if((cont+i)->ucont_data)
    22f6:	8b 55 e0             	mov    0xffffffe0(%ebp),%edx
    22f9:	8b 84 16 80 00 00 00 	mov    0x80(%esi,%edx,1),%eax
    2300:	85 c0                	test   %eax,%eax
    2302:	0f 85 f5 01 00 00    	jne    24fd <UpdateClientTransportState+0x38d>
      kfree((cont+i)->ucont_data);
    if((cont+i)->input)
    2308:	8b 7d e0             	mov    0xffffffe0(%ebp),%edi
    230b:	8b 84 3e 88 00 00 00 	mov    0x88(%esi,%edi,1),%eax
    2312:	85 c0                	test   %eax,%eax
    2314:	0f 85 d6 01 00 00    	jne    24f0 <UpdateClientTransportState+0x380>
    231a:	81 45 e0 e4 00 00 00 	addl   $0xe4,0xffffffe0(%ebp)
    2321:	ff 4d e8             	decl   0xffffffe8(%ebp)
    2324:	79 d0                	jns    22f6 <UpdateClientTransportState+0x186>
      kfree((cont+i)->input);
  }

#ifdef USERTEST
  kfree(cont);
#else  //0426 - change kernel to slab cache
#ifdef DEBUG_ALLOC
  zap_virt(cont);
  //memset(cont, 0x3e, sizeof(*cont));
#else
#ifndef USESLAB
  kfree(cont);  // 0502 maybe slab cache usage is buggy
#else
  kmem_cache_free(clientSideContinuation_cache, cont);
    2326:	89 74 24 04          	mov    %esi,0x4(%esp,1)
    232a:	a1 00 00 00 00       	mov    0x0,%eax
    232f:	89 04 24             	mov    %eax,(%esp,1)
    2332:	e8 fc ff ff ff       	call   2333 <UpdateClientTransportState+0x1c3>
    2337:	8b 75 f0             	mov    0xfffffff0(%ebp),%esi
    233a:	3b 75 e4             	cmp    0xffffffe4(%ebp),%esi
    233d:	0f 85 3f ff ff ff    	jne    2282 <UpdateClientTransportState+0x112>
    2343:	8d 83 08 06 00 00    	lea    0x608(%ebx),%eax
    2349:	8b 75 ec             	mov    0xffffffec(%ebp),%esi
    234c:	a9 04 00 00 00       	test   $0x4,%eax
    2351:	ba 08 03 00 00       	mov    $0x308,%edx
    2356:	74 1d                	je     2375 <UpdateClientTransportState+0x205>
    2358:	8b 83 00 03 00 00    	mov    0x300(%ebx),%eax
    235e:	8d b3 04 03 00 00    	lea    0x304(%ebx),%esi
    2364:	ba 04 03 00 00       	mov    $0x304,%edx
    2369:	89 83 08 06 00 00    	mov    %eax,0x608(%ebx)
    236f:	8d 83 0c 06 00 00    	lea    0x60c(%ebx),%eax
    2375:	fc                   	cld    
    2376:	89 d1                	mov    %edx,%ecx
    2378:	c1 e9 02             	shr    $0x2,%ecx
    237b:	89 c7                	mov    %eax,%edi
    237d:	f3 a5                	repz movsl %ds:(%esi),%es:(%edi)
    237f:	8b 55 10             	mov    0x10(%ebp),%edx
    2382:	8b 42 70             	mov    0x70(%edx),%eax
    2385:	39 83 08 03 00 00    	cmp    %eax,0x308(%ebx)
    238b:	0f 87 3a 01 00 00    	ja     24cb <UpdateClientTransportState+0x35b>
    2391:	39 83 10 06 00 00    	cmp    %eax,0x610(%ebx)
    2397:	0f 87 0f 01 00 00    	ja     24ac <UpdateClientTransportState+0x33c>
    239d:	89 83 e0 02 00 00    	mov    %eax,0x2e0(%ebx)
    23a3:	8b 0d 00 00 00 00    	mov    0x0,%ecx
    23a9:	85 c9                	test   %ecx,%ecx
    23ab:	0f 8e ed 00 00 00    	jle    249e <UpdateClientTransportState+0x32e>
    23b1:	8b 55 10             	mov    0x10(%ebp),%edx
    23b4:	8b 42 70             	mov    0x70(%edx),%eax
    23b7:	89 44 24 10          	mov    %eax,0x10(%esp,1)
    23bb:	8b 42 34             	mov    0x34(%edx),%eax
    23be:	89 44 24 0c          	mov    %eax,0xc(%esp,1)
    23c2:	8b 42 6c             	mov    0x6c(%edx),%eax
    23c5:	89 44 24 08          	mov    %eax,0x8(%esp,1)
    23c9:	8b 42 68             	mov    0x68(%edx),%eax
    23cc:	c7 04 24 40 09 00 00 	movl   $0x940,(%esp,1)
    23d3:	89 44 24 04          	mov    %eax,0x4(%esp,1)
    23d7:	e8 fc ff ff ff       	call   23d8 <UpdateClientTransportState+0x268>
    23dc:	8b 15 00 00 00 00    	mov    0x0,%edx
    23e2:	85 d2                	test   %edx,%edx
    23e4:	0f 8e b4 00 00 00    	jle    249e <UpdateClientTransportState+0x32e>
    23ea:	8b 83 cc 02 00 00    	mov    0x2cc(%ebx),%eax
    23f0:	be 80 01 00 00       	mov    $0x180,%esi
    23f5:	83 f8 02             	cmp    $0x2,%eax
    23f8:	74 2a                	je     2424 <UpdateClientTransportState+0x2b4>
    23fa:	83 f8 02             	cmp    $0x2,%eax
    23fd:	0f 8f 8c 00 00 00    	jg     248f <UpdateClientTransportState+0x31f>
    2403:	48                   	dec    %eax
    2404:	74 7f                	je     2485 <UpdateClientTransportState+0x315>
    2406:	be 89 01 00 00       	mov    $0x189,%esi
    240b:	c7 44 24 04 0d 00 00 	movl   $0xd,0x4(%esp,1)
    2412:	00 
    2413:	c7 04 24 11 00 00 00 	movl   $0x11,(%esp,1)
    241a:	e8 fc ff ff ff       	call   241b <UpdateClientTransportState+0x2ab>
    241f:	e8 fc ff ff ff       	call   2420 <UpdateClientTransportState+0x2b0>
    2424:	89 74 24 08          	mov    %esi,0x8(%esp,1)
    2428:	8b 75 08             	mov    0x8(%ebp),%esi
    242b:	c7 04 24 93 01 00 00 	movl   $0x193,(%esp,1)
    2432:	89 74 24 04          	mov    %esi,0x4(%esp,1)
    2436:	e8 fc ff ff ff       	call   2437 <UpdateClientTransportState+0x2c7>
    243b:	b8 01 00 00 00       	mov    $0x1,%eax
    2440:	89 83 cc 02 00 00    	mov    %eax,0x2cc(%ebx)
    2446:	31 c0                	xor    %eax,%eax
    2448:	89 83 f8 02 00 00    	mov    %eax,0x2f8(%ebx)
    244e:	31 c0                	xor    %eax,%eax
    2450:	89 83 fc 02 00 00    	mov    %eax,0x2fc(%ebx)
    2456:	b8 01 00 00 00       	mov    $0x1,%eax
    245b:	89 83 d8 02 00 00    	mov    %eax,0x2d8(%ebx)
    2461:	8b 7d 08             	mov    0x8(%ebp),%edi
    2464:	89 3c 24             	mov    %edi,(%esp,1)
    2467:	e8 fc ff ff ff       	call   2468 <UpdateClientTransportState+0x2f8>
    246c:	31 c0                	xor    %eax,%eax
    246e:	89 83 f0 02 00 00    	mov    %eax,0x2f0(%ebx)
    2474:	8b 55 10             	mov    0x10(%ebp),%edx
    2477:	8b 42 34             	mov    0x34(%edx),%eax
    247a:	89 83 f4 02 00 00    	mov    %eax,0x2f4(%ebx)
    2480:	e9 3b fd ff ff       	jmp    21c0 <UpdateClientTransportState+0x50>
    2485:	be a3 01 00 00       	mov    $0x1a3,%esi
    248a:	e9 7c ff ff ff       	jmp    240b <UpdateClientTransportState+0x29b>
    248f:	83 f8 03             	cmp    $0x3,%eax
    2492:	be ac 01 00 00       	mov    $0x1ac,%esi
    2497:	74 8b                	je     2424 <UpdateClientTransportState+0x2b4>
    2499:	e9 68 ff ff ff       	jmp    2406 <UpdateClientTransportState+0x296>
    249e:	a1 00 00 00 00       	mov    0x0,%eax
    24a3:	85 c0                	test   %eax,%eax
    24a5:	74 94                	je     243b <UpdateClientTransportState+0x2cb>
    24a7:	e9 3e ff ff ff       	jmp    23ea <UpdateClientTransportState+0x27a>
    24ac:	c7 44 24 04 b5 06 00 	movl   $0x6b5,0x4(%esp,1)
    24b3:	00 
    24b4:	c7 04 24 80 09 00 00 	movl   $0x980,(%esp,1)
    24bb:	e8 fc ff ff ff       	call   24bc <UpdateClientTransportState+0x34c>
    24c0:	8b 7d 10             	mov    0x10(%ebp),%edi
    24c3:	8b 47 70             	mov    0x70(%edi),%eax
    24c6:	e9 d2 fe ff ff       	jmp    239d <UpdateClientTransportState+0x22d>
    24cb:	c7 44 24 04 b4 06 00 	movl   $0x6b4,0x4(%esp,1)
    24d2:	00 
    24d3:	c7 04 24 e0 09 00 00 	movl   $0x9e0,(%esp,1)
    24da:	e8 fc ff ff ff       	call   24db <UpdateClientTransportState+0x36b>
    24df:	8b 75 10             	mov    0x10(%ebp),%esi
    24e2:	8b 46 70             	mov    0x70(%esi),%eax
    24e5:	e9 a7 fe ff ff       	jmp    2391 <UpdateClientTransportState+0x221>
    24ea:	8d b6 00 00 00 00    	lea    0x0(%esi),%esi
  for(i=0; i < 2; i++) {
    if((cont+i)->ucont_data)
      kfree((cont+i)->ucont_data);
    if((cont+i)->input)
      kfree((cont+i)->input);
    24f0:	89 04 24             	mov    %eax,(%esp,1)
    24f3:	e8 fc ff ff ff       	call   24f4 <UpdateClientTransportState+0x384>
    24f8:	e9 1d fe ff ff       	jmp    231a <UpdateClientTransportState+0x1aa>
    24fd:	89 04 24             	mov    %eax,(%esp,1)
    2500:	e8 fc ff ff ff       	call   2501 <UpdateClientTransportState+0x391>
    2505:	e9 fe fd ff ff       	jmp    2308 <UpdateClientTransportState+0x198>
    250a:	c7 44 24 04 9e 06 00 	movl   $0x69e,0x4(%esp,1)
    2511:	00 
    2512:	c7 04 24 60 0a 00 00 	movl   $0xa60,(%esp,1)
    2519:	e8 fc ff ff ff       	call   251a <UpdateClientTransportState+0x3aa>
    251e:	e9 9f fd ff ff       	jmp    22c2 <UpdateClientTransportState+0x152>
    2523:	89 4c 24 0c          	mov    %ecx,0xc(%esp,1)
    2527:	8b 46 3c             	mov    0x3c(%esi),%eax
    252a:	8b 7d 08             	mov    0x8(%ebp),%edi
    252d:	c7 04 24 a0 0a 00 00 	movl   $0xaa0,(%esp,1)
    2534:	89 44 24 08          	mov    %eax,0x8(%esp,1)
    2538:	89 7c 24 04          	mov    %edi,0x4(%esp,1)
    253c:	e8 fc ff ff ff       	call   253d <UpdateClientTransportState+0x3cd>
    2541:	e9 73 fd ff ff       	jmp    22b9 <UpdateClientTransportState+0x149>
    2546:	8b 7d 10             	mov    0x10(%ebp),%edi
    2549:	8b 47 70             	mov    0x70(%edi),%eax
    254c:	39 46 70             	cmp    %eax,0x70(%esi)
    254f:	0f 82 44 fd ff ff    	jb     2299 <UpdateClientTransportState+0x129>
    2555:	89 74 24 08          	mov    %esi,0x8(%esp,1)
    2559:	8b 45 ec             	mov    0xffffffec(%ebp),%eax
    255c:	8b 55 08             	mov    0x8(%ebp),%edx
    255f:	89 44 24 04          	mov    %eax,0x4(%esp,1)
    2563:	89 14 24             	mov    %edx,(%esp,1)
    2566:	e8 fc ff ff ff       	call   2567 <UpdateClientTransportState+0x3f7>
    256b:	e9 c7 fd ff ff       	jmp    2337 <UpdateClientTransportState+0x1c7>
    2570:	8b 45 10             	mov    0x10(%ebp),%eax
    2573:	83 78 58 02          	cmpl   $0x2,0x58(%eax)
    2577:	0f 85 43 fc ff ff    	jne    21c0 <UpdateClientTransportState+0x50>
    257d:	8b 50 3c             	mov    0x3c(%eax),%edx
    2580:	8b 83 c8 02 00 00    	mov    0x2c8(%ebx),%eax
    2586:	39 c2                	cmp    %eax,%edx
    2588:	0f 85 32 fc ff ff    	jne    21c0 <UpdateClientTransportState+0x50>
    258e:	83 3d 00 00 00 00 01 	cmpl   $0x1,0x0
    2595:	0f 8e 66 fc ff ff    	jle    2201 <UpdateClientTransportState+0x91>
    259b:	c7 04 24 00 0b 00 00 	movl   $0xb00,(%esp,1)
    25a2:	e8 fc ff ff ff       	call   25a3 <UpdateClientTransportState+0x433>
    25a7:	8b 75 10             	mov    0x10(%ebp),%esi
    25aa:	8b 56 3c             	mov    0x3c(%esi),%edx
    25ad:	e9 49 fc ff ff       	jmp    21fb <UpdateClientTransportState+0x8b>
    25b2:	c7 44 24 04 64 06 00 	movl   $0x664,0x4(%esp,1)
    25b9:	00 
    25ba:	c7 04 24 40 0b 00 00 	movl   $0xb40,(%esp,1)
    25c1:	e8 fc ff ff ff       	call   25c2 <UpdateClientTransportState+0x452>
    25c6:	e9 cf fb ff ff       	jmp    219a <UpdateClientTransportState+0x2a>
    25cb:	90                   	nop    
    25cc:	8d 74 26 00          	lea    0x0(%esi,1),%esi

000025d0 <UpdateClientUCState>:

static void UpdateClientUCState(struct sock *sk, struct sk_buff *skb, CONTINUATION_TYPE *cont) {
    25d0:	55                   	push   %ebp
    25d1:	89 e5                	mov    %esp,%ebp
    25d3:	57                   	push   %edi
    25d4:	56                   	push   %esi
    25d5:	53                   	push   %ebx
    25d6:	83 ec 44             	sub    $0x44,%esp
	struct tcp_opt *tp = &sk->tp_pinfo.af_tcp;
	struct WireUC_RespHeader *hdr;
	struct UC_Continuation *addedUCont = NULL;
    25d9:	c7 45 e0 00 00 00 00 	movl   $0x0,0xffffffe0(%ebp)
    25e0:	8b 45 08             	mov    0x8(%ebp),%eax
    25e3:	8b 55 0c             	mov    0xc(%ebp),%edx
    25e6:	8b 4d 10             	mov    0x10(%ebp),%ecx
    25e9:	89 45 f0             	mov    %eax,0xfffffff0(%ebp)
    25ec:	05 bc 00 00 00       	add    $0xbc,%eax
    25f1:	89 55 ec             	mov    %edx,0xffffffec(%ebp)
    25f4:	89 4d e8             	mov    %ecx,0xffffffe8(%ebp)
    25f7:	89 45 e4             	mov    %eax,0xffffffe4(%ebp)
	int isSynack = skb->h.th->syn && skb->h.th->ack;
    25fa:	8b 42 20             	mov    0x20(%edx),%eax
    25fd:	0f b6 40 0d          	movzbl 0xd(%eax),%eax
	int ucont_position;
	int ucontNum = 0;
    2601:	c7 45 d4 00 00 00 00 	movl   $0x0,0xffffffd4(%ebp)

	/* 
	 * 
	 * 
	 * UC-level updates 
	 *
	 *
	 */

	// Examine user continuation
	// 0505 - allow multiple continuations per packet
	for(ucont_position = 0; 
    2608:	c7 45 d8 00 00 00 00 	movl   $0x0,0xffffffd8(%ebp)
    260f:	24 12                	and    $0x12,%al
    2611:	3c 12                	cmp    $0x12,%al
    2613:	0f 94 c0             	sete   %al
    2616:	0f b6 c0             	movzbl %al,%eax
    2619:	89 45 dc             	mov    %eax,0xffffffdc(%ebp)
    261c:	31 c0                	xor    %eax,%eax
    261e:	3b 41 7c             	cmp    0x7c(%ecx),%eax
    2621:	0f 8d d9 00 00 00    	jge    2700 <UpdateClientUCState+0x130>
    2627:	89 f6                	mov    %esi,%esi
    2629:	8d bc 27 00 00 00 00 	lea    0x0(%edi,1),%edi
	    ucont_position < cont->ucont_len; 
	    ucont_position += ntohs(hdr->len)) {
		void *ucont_start = cont->ucont_data + ucont_position;
    2630:	8b 55 e8             	mov    0xffffffe8(%ebp),%edx
    2633:	8b 4d d8             	mov    0xffffffd8(%ebp),%ecx
    2636:	8b 82 80 00 00 00    	mov    0x80(%edx),%eax
    263c:	01 c1                	add    %eax,%ecx
    263e:	89 4d d0             	mov    %ecx,0xffffffd0(%ebp)
		hdr = (struct WireUC_RespHeader *)ucont_start;
		int ucont_len = ntohs(hdr->len);
    2641:	0f b7 41 02          	movzwl 0x2(%ecx),%eax
/* gcc should generate this for open coded C now too. May be worth switching to 
   it because inline assembly cannot be scheduled. -AK */
static __inline__ __const__ __u16 ___arch__swab16(__u16 x)
{
	__asm__("xchgb %b0,%h0"		/* swap bytes		*/
    2645:	86 c4                	xchg   %al,%ah
#endif /* OPTIMIZE */


static __inline__ __const__ __u16 __fswab16(__u16 x)
{
    2647:	0f b7 c0             	movzwl %ax,%eax

		if(ucont_len < sizeof(struct WireUC_RespHeader)) {
    264a:	83 f8 03             	cmp    $0x3,%eax
    264d:	0f 86 59 05 00 00    	jbe    2bac <UpdateClientUCState+0x5dc>
			printk("User continuation %d @ %d too short\n", ucontNum, ucont_position);
			return;
		}
		ucontNum++;
    2653:	ff 45 d4             	incl   0xffffffd4(%ebp)

		switch((enum UC_Type)hdr->type) {
    2656:	8b 4d d0             	mov    0xffffffd0(%ebp),%ecx
    2659:	0f b6 11             	movzbl (%ecx),%edx
    265c:	83 fa 01             	cmp    $0x1,%edx
    265f:	0f 84 6b 02 00 00    	je     28d0 <UpdateClientUCState+0x300>
    2665:	83 fa 01             	cmp    $0x1,%edx
    2668:	0f 82 d2 01 00 00    	jb     2840 <UpdateClientUCState+0x270>
    266e:	83 fa 02             	cmp    $0x2,%edx
    2671:	0f 84 71 01 00 00    	je     27e8 <UpdateClientUCState+0x218>
    2677:	83 fa 04             	cmp    $0x4,%edx
    267a:	0f 85 5f 01 00 00    	jne    27df <UpdateClientUCState+0x20f>
		case UC_INCOMPLETE: {
			struct WireUC_CVT_IncompleteResponse *incompleteResp = 
				(struct WireUC_CVT_IncompleteResponse *) hdr;
			int res;
			if(ucont_len < sizeof(*incompleteResp)) {
				printk("User continuation too short for incomplete response\n");
				return;
			}
			switch(tp->t.conversionState) {
			case CONVERSION_WAITFORSERVER:
				res = processIncompleteResponse(sk,incompleteResp,ucont_len);
				if(res) {
					printk("Error while processing incompleteResponse\n");
					return;
				}
				break;
			case CONVERSION_IDLE:
			case CONVERSION_WAITFORUSER:
				printk("Invalid conversion state (supposed to be WAITFORSERVER) hwhile processing incompleteResponse\n");
				return;
			default:
				printk("Invalid state!\n");
				BUG();
				return;
			}
			break;
		}
		case UC_COMPLETE: {
			struct WireUC_CVT_CompleteResponse *completeResp = 
				(struct WireUC_CVT_CompleteResponse *) hdr;
			struct UC_Continuation *ucont;
			if(ucont_len < sizeof(*completeResp)) {
				printk("User continuation too short for complete response\n");
				return;
			}
			switch(tp->t.conversionState) {
				struct UC_Continuation *newConvCont;
				unsigned ackSeq;
			case CONVERSION_WAITFORSERVER:
				ucont = unmarshallUC_Continuation(&completeResp->newCont, 
								  ucont_len - ((char*)&completeResp->newCont - (char*)ucont_start));
				if(ucont == NULL) {
					printk("Error while unmarshalling UC Continuation for UC_Complete packet\n");
					return;
				}
				/* Save continuation for use in subsequent conversion request */
				newConvCont = copyUC_Continuation(ucont);
				atomic_set(&newConvCont->refcnt, 1);
				if(newConvCont == NULL) {
					printk("Error while saving convCont in prevConvCont\n");
					kfree(ucont);
					return;
				}
				if(tp->t.prevConvCont) {
					// XXX Leave these FINDING_LEAK defines in here to find the lurking memory leak
#ifdef FINDING_LEAK
					printk("prevConvCont: \n");
					UC_Continuation_dump(tp->t.prevConvCont);
#endif
					UC_CONTINUATION_TRYFREE(tp->t.prevConvCont);
#ifdef FINDING_LEAK
					printk("newConvCont0: \n");
					UC_Continuation_dump(ucont);
					printk("newConvCont1: \n");
					UC_Continuation_dump(newConvCont);
#endif
				}
				tp->t.prevConvCont = newConvCont;

				ackSeq = ntohl(completeResp->ack_seq);
				if(ackSeq > tp->t.snd_una) {
					tp->t.snd_una = ackSeq;
					if(tp->t.snd_una > tp->t.write_seq) {
						printk("Error! snd_una %d > tp->t.write_seq %d while processing CompleteConversion\n", tp->t.snd_una, tp->t.write_seq);
						tp->t.snd_una = tp->t.write_seq;
					}
				}
#if FINDING_LEAK
				printk("ackseq = %d snd_una = %d\n", ackSeq, tp->t.snd_una);
#endif
				if(addNewUC_Continuation(sk, ucont)) {
					printk("UC_COMPLETE: error while adding new continuation\n");
					kfree(ucont);
					// xxx don't need to check refcnt on prevConvCont, since we 
					// know that there's only  one reference
					kfree(tp->t.prevConvCont);
					tp->t.prevConvCont = NULL;
					return;
				}
				requestReleasedData(sk);
				if(tp->t.write_seq - tp->t.snd_una > 0) {
					queueConversionRequests(sk);
					tp->t.conversionState = CONVERSION_WAITFORSERVER;
#if 0 // 0426 - do not push out requests in interrupt context, since the requests will be sent automatically
					pushRequests(sk);
#endif
					//printk("update client state set conversion state to waitforserver\n");
				} else {
					cleanTxQueue(sk);
					tp->t.conversionState = CONVERSION_IDLE;
					//printk("update client state set conversion state to IDLE: %d\n", tp->t.conversionState);
				}
				break;
			case CONVERSION_IDLE:
				printk("Invalid state: CONVERSION_IDLE while processing completeResponse\n");
				return;
			case CONVERSION_WAITFORUSER:
				printk("Invalid state: CONVERSION_WAITFORUSER while processing completeResponse\n");
				return;
			default:
				printk("Invalid state!\n");
				BUG();
				return;
			}
			break;
		}
		case UC_UPDATE: {
			/* This code was written 3/25, but never
			   used. See UC_NCONT code path below for New
			   CONTinuation Update technique */
			struct WireUC_MGMT_UpdateResponse *updateResp = 
				(struct WireUC_MGMT_UpdateResponse *) hdr;
			struct UC_Continuation *ucont;
			if(ucont_len < sizeof(*updateResp)) {
				printk("User continuation too short for update response\n");
				return;
			}
			ucont =	unmarshallUC_Continuation(&updateResp->newCont, 
							  ucont_len - ((char*)&updateResp->newCont - (char*)ucont_start));
			if(ucont == NULL) {
				printk("UC_Update: out of memory while unmarshalling new continuation\n");
				return;
			}
			addedUCont = ucont;
			if(addNewUC_Continuation(sk, addedUCont)) {
				printk("UC_Update: error while adding new continuation\n");
				return;
			}
			requestReleasedData(sk);
			break;
		}
		case UC_NEWCONT: {
			struct WireUC_NewContinuationResponse *newContResp = 
				(struct WireUC_NewContinuationResponse *) hdr;
			struct UC_Continuation *ucont;
			if(ucont_len < sizeof(*newContResp)) {
    2680:	83 f8 11             	cmp    $0x11,%eax
    2683:	0f 86 43 01 00 00    	jbe    27cc <UpdateClientUCState+0x1fc>
				printk("User continuation too short for UC_NEWCONT\n");
				return;
			}
			ucont = unmarshallUC_Continuation(&newContResp->newCont, 
    2689:	83 e8 04             	sub    $0x4,%eax
    268c:	89 44 24 04          	mov    %eax,0x4(%esp,1)
    2690:	8b 45 d0             	mov    0xffffffd0(%ebp),%eax
    2693:	83 c0 04             	add    $0x4,%eax
    2696:	89 04 24             	mov    %eax,(%esp,1)
    2699:	e8 82 5e 00 00       	call   8520 <unmarshallUC_Continuation>
							  ucont_len - ((char*)&newContResp->newCont - (char*)ucont_start));
			if(ucont == NULL) {
    269e:	85 c0                	test   %eax,%eax
    26a0:	89 c3                	mov    %eax,%ebx
    26a2:	0f 84 13 01 00 00    	je     27bb <UpdateClientUCState+0x1eb>
				printk("Error while unmarshalling UC Continuation for UC_NEWCONT packet\n");
			}
			addedUCont = ucont;
    26a8:	89 5d e0             	mov    %ebx,0xffffffe0(%ebp)
			if(addNewUC_Continuation(sk, ucont)) {
    26ab:	89 5c 24 04          	mov    %ebx,0x4(%esp,1)
    26af:	8b 4d f0             	mov    0xfffffff0(%ebp),%ecx
    26b2:	89 0c 24             	mov    %ecx,(%esp,1)
    26b5:	e8 e6 63 00 00       	call   8aa0 <addNewUC_Continuation>
    26ba:	85 c0                	test   %eax,%eax
    26bc:	0f 85 db 00 00 00    	jne    279d <UpdateClientUCState+0x1cd>
				printk("UC_NEWCONT: error while adding new continuation\n");
				kfree(ucont);
				return;
			}
			requestReleasedData(sk);
			break;
		}
		default:
			printk("Invalid UC response \n");
			return;
		}
		/* 
		 * Update parent, removing from reliable queues if necessary
		 */
		if(isSynack) {
    26c2:	8b 5d dc             	mov    0xffffffdc(%ebp),%ebx
    26c5:	85 db                	test   %ebx,%ebx
    26c7:	74 3f                	je     2708 <UpdateClientUCState+0x138>
			// synack does not have a parent
			tp->t.request_rcv_nxt = 1;
    26c9:	8b 55 e4             	mov    0xffffffe4(%ebp),%edx
    26cc:	b9 01 00 00 00       	mov    $0x1,%ecx
			tp->t.request_snd_nxt = 1;
    26d1:	b8 01 00 00 00       	mov    $0x1,%eax
    26d6:	89 8a 48 0a 00 00    	mov    %ecx,0xa48(%edx)
    26dc:	89 82 4c 0a 00 00    	mov    %eax,0xa4c(%edx)
    26e2:	8b 55 d0             	mov    0xffffffd0(%ebp),%edx
#endif /* OPTIMIZE */


static __inline__ __const__ __u16 __fswab16(__u16 x)
{
    26e5:	8b 4d e8             	mov    0xffffffe8(%ebp),%ecx
    26e8:	0f b7 42 02          	movzwl 0x2(%edx),%eax
/* gcc should generate this for open coded C now too. May be worth switching to 
   it because inline assembly cannot be scheduled. -AK */
static __inline__ __const__ __u16 ___arch__swab16(__u16 x)
{
	__asm__("xchgb %b0,%h0"		/* swap bytes		*/
    26ec:	86 c4                	xchg   %al,%ah
#endif /* OPTIMIZE */


static __inline__ __const__ __u16 __fswab16(__u16 x)
{
    26ee:	0f b7 c0             	movzwl %ax,%eax
    26f1:	01 45 d8             	add    %eax,0xffffffd8(%ebp)
    26f4:	8b 45 d8             	mov    0xffffffd8(%ebp),%eax
    26f7:	3b 41 7c             	cmp    0x7c(%ecx),%eax
    26fa:	0f 8c 30 ff ff ff    	jl     2630 <UpdateClientUCState+0x60>
		} else {
			enum UserRequestType type;
			unsigned start, end;
			switch(hdr->type) {
			case UC_INCOMPLETE:
			case UC_COMPLETE:
				type = MREQ_CONVERSION;
				start = -1;
				end = -1;
				goto update_parent;
			case UC_UPDATE:
				BUG_TRAP(addedUCont);
				type = MREQ_CONTINUATION;
				start = addedUCont->validStart;
				end = addedUCont->validEnd;
			update_parent:
				updateParent(sk, type, TCP_SKB_CB(skb)->parent, 
					     TCP_SKB_CB(skb)->numSiblings, TCP_SKB_CB(skb)->position,
					     start, end);
				break;
			case UC_NEWCONT:
				/// do nothing
				break;
			default:
				printk("Invalid Uc response \n");
			}
		}
	}
}
    2700:	83 c4 44             	add    $0x44,%esp
    2703:	5b                   	pop    %ebx
    2704:	5e                   	pop    %esi
    2705:	5f                   	pop    %edi
    2706:	5d                   	pop    %ebp
    2707:	c3                   	ret    
    2708:	8b 4d d0             	mov    0xffffffd0(%ebp),%ecx
    270b:	0f b6 01             	movzbl (%ecx),%eax
    270e:	83 f8 02             	cmp    $0x2,%eax
    2711:	74 5d                	je     2770 <UpdateClientUCState+0x1a0>
    2713:	31 db                	xor    %ebx,%ebx
    2715:	83 f8 02             	cmp    $0x2,%eax
    2718:	b9 ff ff ff ff       	mov    $0xffffffff,%ecx
    271d:	ba ff ff ff ff       	mov    $0xffffffff,%edx
    2722:	7e 13                	jle    2737 <UpdateClientUCState+0x167>
    2724:	83 f8 04             	cmp    $0x4,%eax
    2727:	74 b9                	je     26e2 <UpdateClientUCState+0x112>
    2729:	c7 04 24 b6 01 00 00 	movl   $0x1b6,(%esp,1)
    2730:	e8 fc ff ff ff       	call   2731 <UpdateClientUCState+0x161>
    2735:	eb ab                	jmp    26e2 <UpdateClientUCState+0x112>
    2737:	89 54 24 18          	mov    %edx,0x18(%esp,1)
    273b:	89 4c 24 14          	mov    %ecx,0x14(%esp,1)
    273f:	8b 55 ec             	mov    0xffffffec(%ebp),%edx
    2742:	0f b6 42 69          	movzbl 0x69(%edx),%eax
    2746:	89 44 24 10          	mov    %eax,0x10(%esp,1)
    274a:	0f b6 42 68          	movzbl 0x68(%edx),%eax
    274e:	89 44 24 0c          	mov    %eax,0xc(%esp,1)
    2752:	8b 42 64             	mov    0x64(%edx),%eax
    2755:	89 5c 24 04          	mov    %ebx,0x4(%esp,1)
    2759:	89 44 24 08          	mov    %eax,0x8(%esp,1)
    275d:	8b 4d f0             	mov    0xfffffff0(%ebp),%ecx
    2760:	89 0c 24             	mov    %ecx,(%esp,1)
    2763:	e8 fc ff ff ff       	call   2764 <UpdateClientUCState+0x194>
    2768:	e9 75 ff ff ff       	jmp    26e2 <UpdateClientUCState+0x112>
    276d:	8d 76 00             	lea    0x0(%esi),%esi
    2770:	8b 45 e0             	mov    0xffffffe0(%ebp),%eax
    2773:	85 c0                	test   %eax,%eax
    2775:	74 10                	je     2787 <UpdateClientUCState+0x1b7>
    2777:	8b 45 e0             	mov    0xffffffe0(%ebp),%eax
    277a:	bb 01 00 00 00       	mov    $0x1,%ebx
    277f:	8b 48 10             	mov    0x10(%eax),%ecx
    2782:	8b 50 14             	mov    0x14(%eax),%edx
    2785:	eb b0                	jmp    2737 <UpdateClientUCState+0x167>
    2787:	c7 44 24 04 bb 07 00 	movl   $0x7bb,0x4(%esp,1)
    278e:	00 
    278f:	c7 04 24 a0 0b 00 00 	movl   $0xba0,(%esp,1)
    2796:	e8 fc ff ff ff       	call   2797 <UpdateClientUCState+0x1c7>
    279b:	eb da                	jmp    2777 <UpdateClientUCState+0x1a7>
    279d:	c7 04 24 e0 0b 00 00 	movl   $0xbe0,(%esp,1)
    27a4:	e8 fc ff ff ff       	call   27a5 <UpdateClientUCState+0x1d5>
    27a9:	8b 45 e0             	mov    0xffffffe0(%ebp),%eax
    27ac:	89 45 08             	mov    %eax,0x8(%ebp)
    27af:	83 c4 44             	add    $0x44,%esp
    27b2:	5b                   	pop    %ebx
    27b3:	5e                   	pop    %esi
    27b4:	5f                   	pop    %edi
    27b5:	5d                   	pop    %ebp
    27b6:	e9 fc ff ff ff       	jmp    27b7 <UpdateClientUCState+0x1e7>
    27bb:	c7 04 24 20 0c 00 00 	movl   $0xc20,(%esp,1)
    27c2:	e8 fc ff ff ff       	call   27c3 <UpdateClientUCState+0x1f3>
    27c7:	e9 dc fe ff ff       	jmp    26a8 <UpdateClientUCState+0xd8>
    27cc:	c7 45 08 80 0c 00 00 	movl   $0xc80,0x8(%ebp)
    27d3:	83 c4 44             	add    $0x44,%esp
    27d6:	5b                   	pop    %ebx
    27d7:	5e                   	pop    %esi
    27d8:	5f                   	pop    %edi
    27d9:	5d                   	pop    %ebp
    27da:	e9 fc ff ff ff       	jmp    27db <UpdateClientUCState+0x20b>
    27df:	c7 45 08 cc 01 00 00 	movl   $0x1cc,0x8(%ebp)
    27e6:	eb eb                	jmp    27d3 <UpdateClientUCState+0x203>
    27e8:	83 f8 10             	cmp    $0x10,%eax
    27eb:	76 45                	jbe    2832 <UpdateClientUCState+0x262>
    27ed:	83 e8 04             	sub    $0x4,%eax
    27f0:	89 44 24 04          	mov    %eax,0x4(%esp,1)
    27f4:	8b 45 d0             	mov    0xffffffd0(%ebp),%eax
    27f7:	83 c0 04             	add    $0x4,%eax
    27fa:	89 04 24             	mov    %eax,(%esp,1)
    27fd:	e8 1e 5d 00 00       	call   8520 <unmarshallUC_Continuation>
    2802:	85 c0                	test   %eax,%eax
    2804:	74 23                	je     2829 <UpdateClientUCState+0x259>
    2806:	89 45 e0             	mov    %eax,0xffffffe0(%ebp)
    2809:	89 44 24 04          	mov    %eax,0x4(%esp,1)
    280d:	8b 55 f0             	mov    0xfffffff0(%ebp),%edx
    2810:	89 14 24             	mov    %edx,(%esp,1)
    2813:	e8 88 62 00 00       	call   8aa0 <addNewUC_Continuation>
    2818:	85 c0                	test   %eax,%eax
    281a:	0f 84 a2 fe ff ff    	je     26c2 <UpdateClientUCState+0xf2>
    2820:	c7 45 08 c0 0c 00 00 	movl   $0xcc0,0x8(%ebp)
    2827:	eb aa                	jmp    27d3 <UpdateClientUCState+0x203>
    2829:	c7 45 08 00 0d 00 00 	movl   $0xd00,0x8(%ebp)
    2830:	eb a1                	jmp    27d3 <UpdateClientUCState+0x203>
    2832:	c7 45 08 40 0d 00 00 	movl   $0xd40,0x8(%ebp)
    2839:	eb 98                	jmp    27d3 <UpdateClientUCState+0x203>
    283b:	90                   	nop    
    283c:	8d 74 26 00          	lea    0x0(%esi,1),%esi
    2840:	83 f8 0b             	cmp    $0xb,%eax
    2843:	76 7e                	jbe    28c3 <UpdateClientUCState+0x2f3>
    2845:	8b 4d e4             	mov    0xffffffe4(%ebp),%ecx
    2848:	8b 91 c0 0a 00 00    	mov    0xac0(%ecx),%edx
    284e:	83 fa 01             	cmp    $0x1,%edx
    2851:	75 2a                	jne    287d <UpdateClientUCState+0x2ad>
    2853:	89 44 24 08          	mov    %eax,0x8(%esp,1)
    2857:	8b 45 d0             	mov    0xffffffd0(%ebp),%eax
    285a:	89 44 24 04          	mov    %eax,0x4(%esp,1)
    285e:	8b 55 f0             	mov    0xfffffff0(%ebp),%edx
    2861:	89 14 24             	mov    %edx,(%esp,1)
    2864:	e8 77 5e 00 00       	call   86e0 <processIncompleteResponse>
    2869:	85 c0                	test   %eax,%eax
    286b:	0f 84 51 fe ff ff    	je     26c2 <UpdateClientUCState+0xf2>
    2871:	c7 45 08 80 0d 00 00 	movl   $0xd80,0x8(%ebp)
    2878:	e9 56 ff ff ff       	jmp    27d3 <UpdateClientUCState+0x203>
    287d:	83 fa 01             	cmp    $0x1,%edx
    2880:	7e 3d                	jle    28bf <UpdateClientUCState+0x2ef>
    2882:	83 fa 02             	cmp    $0x2,%edx
    2885:	74 2c                	je     28b3 <UpdateClientUCState+0x2e3>
    2887:	c7 04 24 e2 01 00 00 	movl   $0x1e2,(%esp,1)
    288e:	e8 fc ff ff ff       	call   288f <UpdateClientUCState+0x2bf>
    2893:	c7 44 24 04 0d 00 00 	movl   $0xd,0x4(%esp,1)
    289a:	00 
    289b:	c7 04 24 11 00 00 00 	movl   $0x11,(%esp,1)
    28a2:	e8 fc ff ff ff       	call   28a3 <UpdateClientUCState+0x2d3>
    28a7:	83 c4 44             	add    $0x44,%esp
    28aa:	5b                   	pop    %ebx
    28ab:	5e                   	pop    %esi
    28ac:	5f                   	pop    %edi
    28ad:	5d                   	pop    %ebp
    28ae:	e9 fc ff ff ff       	jmp    28af <UpdateClientUCState+0x2df>
    28b3:	c7 45 08 c0 0d 00 00 	movl   $0xdc0,0x8(%ebp)
    28ba:	e9 14 ff ff ff       	jmp    27d3 <UpdateClientUCState+0x203>
    28bf:	85 d2                	test   %edx,%edx
    28c1:	eb c2                	jmp    2885 <UpdateClientUCState+0x2b5>
    28c3:	c7 45 08 20 0e 00 00 	movl   $0xe20,0x8(%ebp)
    28ca:	e9 04 ff ff ff       	jmp    27d3 <UpdateClientUCState+0x203>
    28cf:	90                   	nop    
    28d0:	83 f8 14             	cmp    $0x14,%eax
    28d3:	0f 86 c7 02 00 00    	jbe    2ba0 <UpdateClientUCState+0x5d0>
    28d9:	8b 4d e4             	mov    0xffffffe4(%ebp),%ecx
    28dc:	8b 91 c0 0a 00 00    	mov    0xac0(%ecx),%edx
    28e2:	83 fa 01             	cmp    $0x1,%edx
    28e5:	0f 85 84 02 00 00    	jne    2b6f <UpdateClientUCState+0x59f>
    28eb:	83 e8 08             	sub    $0x8,%eax
    28ee:	89 44 24 04          	mov    %eax,0x4(%esp,1)
    28f2:	8b 45 d0             	mov    0xffffffd0(%ebp),%eax
    28f5:	83 c0 08             	add    $0x8,%eax
    28f8:	89 04 24             	mov    %eax,(%esp,1)
    28fb:	e8 20 5c 00 00       	call   8520 <unmarshallUC_Continuation>
    2900:	85 c0                	test   %eax,%eax
    2902:	89 c3                	mov    %eax,%ebx
    2904:	0f 84 59 02 00 00    	je     2b63 <UpdateClientUCState+0x593>
}

static inline struct UC_Continuation *copyUC_Continuation(struct UC_Continuation *scont) {
  /* create a separate copy */
  int dataLen = scont->dataLen;
    290a:	8b 40 28             	mov    0x28(%eax),%eax
    290d:	89 45 cc             	mov    %eax,0xffffffcc(%ebp)
  struct UC_Continuation *rval = kmalloc(sizeof(*rval) + dataLen, GFP_ATOMIC);
    2910:	83 c0 30             	add    $0x30,%eax
    2913:	c7 44 24 04 20 00 00 	movl   $0x20,0x4(%esp,1)
    291a:	00 
    291b:	89 04 24             	mov    %eax,(%esp,1)
    291e:	e8 fc ff ff ff       	call   291f <UpdateClientUCState+0x34f>
  if(rval == NULL) {
    2923:	85 c0                	test   %eax,%eax
    2925:	89 c2                	mov    %eax,%edx
    2927:	0f 84 23 02 00 00    	je     2b50 <UpdateClientUCState+0x580>
    printk("Out of memory while copying UC_Continuation\n");
    return NULL;
  }
  *rval = *scont;
    292d:	8b 03                	mov    (%ebx),%eax
return __res;
}

static inline void * __memcpy(void * to, const void * from, size_t n)
{
    292f:	8d 7a 30             	lea    0x30(%edx),%edi
    2932:	8d 73 30             	lea    0x30(%ebx),%esi
  if(rval == NULL) {
    printk("Out of memory while copying UC_Continuation\n");
    return NULL;
  }
  *rval = *scont;
    2935:	89 02                	mov    %eax,(%edx)
    2937:	8b 43 04             	mov    0x4(%ebx),%eax
    293a:	89 42 04             	mov    %eax,0x4(%edx)
    293d:	8b 43 08             	mov    0x8(%ebx),%eax
    2940:	89 42 08             	mov    %eax,0x8(%edx)
    2943:	8b 43 0c             	mov    0xc(%ebx),%eax
    2946:	89 42 0c             	mov    %eax,0xc(%edx)
    2949:	8b 43 10             	mov    0x10(%ebx),%eax
    294c:	89 42 10             	mov    %eax,0x10(%edx)
    294f:	8b 43 14             	mov    0x14(%ebx),%eax
    2952:	89 42 14             	mov    %eax,0x14(%edx)
    2955:	8b 43 18             	mov    0x18(%ebx),%eax
    2958:	89 42 18             	mov    %eax,0x18(%edx)
    295b:	8b 43 1c             	mov    0x1c(%ebx),%eax
    295e:	89 42 1c             	mov    %eax,0x1c(%edx)
    2961:	8b 43 20             	mov    0x20(%ebx),%eax
    2964:	89 42 20             	mov    %eax,0x20(%edx)
    2967:	8b 43 24             	mov    0x24(%ebx),%eax
    296a:	89 42 24             	mov    %eax,0x24(%edx)
    296d:	8b 43 28             	mov    0x28(%ebx),%eax
    2970:	89 42 28             	mov    %eax,0x28(%edx)
    2973:	8b 43 2c             	mov    0x2c(%ebx),%eax
  rval->prev = rval->next = NULL;
    2976:	c7 42 04 00 00 00 00 	movl   $0x0,0x4(%edx)
    297d:	c7 02 00 00 00 00    	movl   $0x0,(%edx)
  rval->list = NULL;
    2983:	c7 42 08 00 00 00 00 	movl   $0x0,0x8(%edx)
    298a:	89 42 2c             	mov    %eax,0x2c(%edx)

static inline void * __memcpy(void * to, const void * from, size_t n)
{
int d0, d1, d2;
__asm__ __volatile__(
    298d:	8b 4d cc             	mov    0xffffffcc(%ebp),%ecx
    2990:	8b 45 cc             	mov    0xffffffcc(%ebp),%eax
    2993:	c1 e9 02             	shr    $0x2,%ecx
    2996:	f3 a5                	repz movsl %ds:(%esi),%es:(%edi)
    2998:	a8 02                	test   $0x2,%al
    299a:	74 02                	je     299e <UpdateClientUCState+0x3ce>
    299c:	66 a5                	movsw  %ds:(%esi),%es:(%edi)
    299e:	a8 01                	test   $0x1,%al
    29a0:	74 01                	je     29a3 <UpdateClientUCState+0x3d3>
    29a2:	a4                   	movsb  %ds:(%esi),%es:(%edi)
  *rval = *scont;
  rval->prev = rval->next = NULL;
  rval->list = NULL;

  memcpy(rval->kernel.data, scont->kernel.data, dataLen);
    29a3:	89 d6                	mov    %edx,%esi
