
trickles-mod.o:     file format elf32-i386

Disassembly of section .text:

00000000 <htonl>:
       0:	8b 44 24 04          	mov    0x4(%esp,1),%eax
       4:	66 c1 c8 08          	ror    $0x8,%ax
       8:	c1 c8 10             	ror    $0x10,%eax
       b:	66 c1 c8 08          	ror    $0x8,%ax
       f:	c3                   	ret    

00000010 <htons>:
      10:	8b 44 24 04          	mov    0x4(%esp,1),%eax
      14:	25 ff ff 00 00       	and    $0xffff,%eax
      19:	66 c1 c8 08          	ror    $0x8,%ax
      1d:	c3                   	ret    
      1e:	90                   	nop    
      1f:	90                   	nop    

00000020 <record_transfer_skb>:
void record_free_skb_head(struct sk_buff *skb) {
}

static inline 
void record_transfer_skb(struct sk_buff *skb, int newType) {
      20:	55                   	push   %ebp
      21:	89 e5                	mov    %esp,%ebp
}
      23:	5d                   	pop    %ebp
      24:	c3                   	ret    

00000025 <free_trickles_msk>:
/* Two phase free: first phase disconnects socket from event list,
   sets to ALLOC_PROCESSING; second phase adds the socket to free
   list, sets to ALLOC_FREE and ready for reuse */
#ifndef USERTEST
static inline void free_trickles_msk(struct sock *sk, struct cminisock *msk) {
      25:	55                   	push   %ebp
      26:	89 e5                	mov    %esp,%ebp
      28:	83 ec 08             	sub    $0x8,%esp
	if(!SIMULATION_MODE(sk)) {
      2b:	8b 45 08             	mov    0x8(%ebp),%eax
      2e:	8b 80 a8 02 00 00    	mov    0x2a8(%eax),%eax
      34:	83 e0 01             	and    $0x1,%eax
      37:	85 c0                	test   %eax,%eax
      39:	74 1b                	je     56 <free_trickles_msk+0x31>
      3b:	8b 55 08             	mov    0x8(%ebp),%edx
      3e:	8b 45 08             	mov    0x8(%ebp),%eax
      41:	8b 80 a8 02 00 00    	mov    0x2a8(%eax),%eax
      47:	23 82 a8 02 00 00    	and    0x2a8(%edx),%eax
      4d:	83 e0 08             	and    $0x8,%eax
      50:	85 c0                	test   %eax,%eax
      52:	75 02                	jne    56 <free_trickles_msk+0x31>
      54:	eb 6b                	jmp    c1 <free_trickles_msk+0x9c>
		if(msk->ctl == ALLOC_FREE || msk->ctl == ALLOC_PROCESSING) {
      56:	8b 45 0c             	mov    0xc(%ebp),%eax
      59:	83 78 0c 00          	cmpl   $0x0,0xc(%eax)
      5d:	74 0b                	je     6a <free_trickles_msk+0x45>
      5f:	8b 45 0c             	mov    0xc(%ebp),%eax
      62:	83 78 0c 03          	cmpl   $0x3,0xc(%eax)
      66:	74 02                	je     6a <free_trickles_msk+0x45>
      68:	eb 31                	jmp    9b <free_trickles_msk+0x76>
			printk("double free\n");
      6a:	c7 04 24 2c 00 00 00 	movl   $0x2c,(%esp,1)
      71:	e8 fc ff ff ff       	call   72 <free_trickles_msk+0x4d>
			BUG();
      76:	c7 44 24 04 39 00 00 	movl   $0x39,0x4(%esp,1)
      7d:	00 
      7e:	c7 04 24 3d 00 00 00 	movl   $0x3d,(%esp,1)
      85:	e8 fc ff ff ff       	call   86 <free_trickles_msk+0x61>
      8a:	c7 04 24 00 00 00 00 	movl   $0x0,(%esp,1)
      91:	e8 fc ff ff ff       	call   92 <free_trickles_msk+0x6d>
      96:	e8 fc ff ff ff       	call   97 <free_trickles_msk+0x72>
		}
		if(msk->ctl == ALLOC_READY && msk->prev != NULL) {
      9b:	8b 45 0c             	mov    0xc(%ebp),%eax
      9e:	83 78 0c 01          	cmpl   $0x1,0xc(%eax)
      a2:	75 13                	jne    b7 <free_trickles_msk+0x92>
      a4:	8b 45 0c             	mov    0xc(%ebp),%eax
      a7:	83 38 00             	cmpl   $0x0,(%eax)
      aa:	74 0b                	je     b7 <free_trickles_msk+0x92>
			unlink((struct alloc_head *)msk);
      ac:	8b 45 0c             	mov    0xc(%ebp),%eax
      af:	89 04 24             	mov    %eax,(%esp,1)
      b2:	e8 35 92 00 00       	call   92ec <unlink>
		}
		msk->ctl = ALLOC_PROCESSING;
      b7:	8b 45 0c             	mov    0xc(%ebp),%eax
      ba:	c7 40 0c 03 00 00 00 	movl   $0x3,0xc(%eax)
	}
}
      c1:	c9                   	leave  
      c2:	c3                   	ret    

000000c3 <free_trickles_msk_finish>:

static inline void msk_release(struct sock *sk, struct cminisock *msk) {
	// Perform actual deallocation. This function is common to
	// state cache and event queue
	msk->refCnt--;
	BUG_TRAP(msk->refCnt >= 0);
	if(msk->refCnt == 0) {
		// printk("release: refcnt %p\n", msk);
		struct tcp_opt *tp = &(sk->tp_pinfo.af_tcp);
		struct alloc_head_list *head = &tp->cminisock_api_config.msk_freelist;

		free_minisock(sk,msk);
		if(!SIMULATION_MODE(sk)) {
			insert_head(head, (struct alloc_head *)msk);
			msk->ctl = ALLOC_FREE;
		} else {
			if(msk == tp->t.responseMSK) {
			} else {
				// overflow
				unlink((struct alloc_head*)msk);
				kfree(msk);
			}
			tp->t.responseCount--;
		}
	} else {
		//printk("release: refcnt == %d\n", msk->refCnt);
	}
}

static inline void free_trickles_msk_finish(struct sock *sk, struct cminisock *msk) {
      c3:	55                   	push   %ebp
      c4:	89 e5                	mov    %esp,%ebp
      c6:	83 ec 08             	sub    $0x8,%esp
	if(!SIMULATION_MODE(sk)) {
      c9:	8b 45 08             	mov    0x8(%ebp),%eax
      cc:	8b 80 a8 02 00 00    	mov    0x2a8(%eax),%eax
      d2:	83 e0 01             	and    $0x1,%eax
      d5:	85 c0                	test   %eax,%eax
      d7:	74 1b                	je     f4 <free_trickles_msk_finish+0x31>
      d9:	8b 55 08             	mov    0x8(%ebp),%edx
      dc:	8b 45 08             	mov    0x8(%ebp),%eax
      df:	8b 80 a8 02 00 00    	mov    0x2a8(%eax),%eax
      e5:	23 82 a8 02 00 00    	and    0x2a8(%edx),%eax
      eb:	83 e0 08             	and    $0x8,%eax
      ee:	85 c0                	test   %eax,%eax
      f0:	75 02                	jne    f4 <free_trickles_msk_finish+0x31>
      f2:	eb 4d                	jmp    141 <free_trickles_msk_finish+0x7e>
		if(msk->ctl != ALLOC_PROCESSING && msk->ctl != ALLOC_HALFFREE) {
      f4:	8b 45 0c             	mov    0xc(%ebp),%eax
      f7:	83 78 0c 03          	cmpl   $0x3,0xc(%eax)
      fb:	74 44                	je     141 <free_trickles_msk_finish+0x7e>
      fd:	8b 45 0c             	mov    0xc(%ebp),%eax
     100:	83 78 0c 04          	cmpl   $0x4,0xc(%eax)
     104:	74 3b                	je     141 <free_trickles_msk_finish+0x7e>
			printk("(free_trickles_msk_finish) without corresponding free_trickles_msk: msk->ctl = %d\n", msk->ctl);
     106:	8b 45 0c             	mov    0xc(%ebp),%eax
     109:	8b 40 0c             	mov    0xc(%eax),%eax
     10c:	89 44 24 04          	mov    %eax,0x4(%esp,1)
     110:	c7 04 24 60 00 00 00 	movl   $0x60,(%esp,1)
     117:	e8 fc ff ff ff       	call   118 <free_trickles_msk_finish+0x55>
			BUG();
     11c:	c7 44 24 04 39 00 00 	movl   $0x39,0x4(%esp,1)
     123:	00 
     124:	c7 04 24 3d 00 00 00 	movl   $0x3d,(%esp,1)
     12b:	e8 fc ff ff ff       	call   12c <free_trickles_msk_finish+0x69>
     130:	c7 04 24 00 00 00 00 	movl   $0x0,(%esp,1)
     137:	e8 fc ff ff ff       	call   138 <free_trickles_msk_finish+0x75>
     13c:	e8 fc ff ff ff       	call   13d <free_trickles_msk_finish+0x7a>
		}
	}
	msk_release(sk,msk);
     141:	8b 45 0c             	mov    0xc(%ebp),%eax
     144:	89 44 24 04          	mov    %eax,0x4(%esp,1)
     148:	8b 45 08             	mov    0x8(%ebp),%eax
     14b:	89 04 24             	mov    %eax,(%esp,1)
     14e:	e8 bc a6 00 00       	call   a80f <msk_release>
}
     153:	c9                   	leave  
     154:	c3                   	ret    

00000155 <SKBStat_update>:
};

#define SAFEAVG(SUM,COUNT)  (((__u32)((COUNT) >> 4)) ? ((__u32)((SUM) >> 4)) / ((__u32)((COUNT) >> 4)) : 0)

void SKBStat_update(struct SKBStat *sstat, struct sk_buff *skb, int overhead) {
     155:	55                   	push   %ebp
     156:	89 e5                	mov    %esp,%ebp
     158:	56                   	push   %esi
     159:	53                   	push   %ebx
	sstat->count++;
     15a:	8b 45 08             	mov    0x8(%ebp),%eax
     15d:	83 00 01             	addl   $0x1,(%eax)
     160:	83 50 04 00          	adcl   $0x0,0x4(%eax)
	sstat->totalBytes += skb->tail - skb->head;
     164:	8b 5d 08             	mov    0x8(%ebp),%ebx
     167:	8b 75 08             	mov    0x8(%ebp),%esi
     16a:	8b 4d 0c             	mov    0xc(%ebp),%ecx
     16d:	8b 45 0c             	mov    0xc(%ebp),%eax
     170:	8b 90 b4 00 00 00    	mov    0xb4(%eax),%edx
     176:	8b 81 bc 00 00 00    	mov    0xbc(%ecx),%eax
     17c:	29 d0                	sub    %edx,%eax
     17e:	99                   	cltd   
     17f:	03 46 08             	add    0x8(%esi),%eax
     182:	13 56 0c             	adc    0xc(%esi),%edx
     185:	89 43 08             	mov    %eax,0x8(%ebx)
     188:	89 53 0c             	mov    %edx,0xc(%ebx)
	sstat->totalOverheadBytes += overhead;
     18b:	8b 5d 08             	mov    0x8(%ebp),%ebx
     18e:	8b 4d 08             	mov    0x8(%ebp),%ecx
     191:	8b 45 10             	mov    0x10(%ebp),%eax
     194:	99                   	cltd   
     195:	03 41 10             	add    0x10(%ecx),%eax
     198:	13 51 14             	adc    0x14(%ecx),%edx
     19b:	89 43 10             	mov    %eax,0x10(%ebx)
     19e:	89 53 14             	mov    %edx,0x14(%ebx)
}
     1a1:	5b                   	pop    %ebx
     1a2:	5e                   	pop    %esi
     1a3:	5d                   	pop    %ebp
     1a4:	c3                   	ret    

000001a5 <SKBStat_dump>:

void SKBStat_dump(struct SKBStat *sstat) {
     1a5:	55                   	push   %ebp
     1a6:	89 e5                	mov    %esp,%ebp
     1a8:	83 ec 28             	sub    $0x28,%esp
	printk("total = %d, totalBytes = %d (%d), totalOverhead = %d (%d)\n",
     1ab:	8b 45 08             	mov    0x8(%ebp),%eax
     1ae:	8b 50 04             	mov    0x4(%eax),%edx
     1b1:	8b 00                	mov    (%eax),%eax
     1b3:	0f ac d0 04          	shrd   $0x4,%edx,%eax
     1b7:	c1 ea 04             	shr    $0x4,%edx
     1ba:	85 c0                	test   %eax,%eax
     1bc:	74 3e                	je     1fc <SKBStat_dump+0x57>
     1be:	8b 45 08             	mov    0x8(%ebp),%eax
     1c1:	8b 50 14             	mov    0x14(%eax),%edx
     1c4:	8b 40 10             	mov    0x10(%eax),%eax
     1c7:	0f ac d0 04          	shrd   $0x4,%edx,%eax
     1cb:	c1 ea 04             	shr    $0x4,%edx
     1ce:	89 45 fc             	mov    %eax,0xfffffffc(%ebp)
     1d1:	8b 45 08             	mov    0x8(%ebp),%eax
     1d4:	8b 50 04             	mov    0x4(%eax),%edx
     1d7:	8b 00                	mov    (%eax),%eax
     1d9:	0f ac d0 04          	shrd   $0x4,%edx,%eax
     1dd:	c1 ea 04             	shr    $0x4,%edx
     1e0:	89 45 f0             	mov    %eax,0xfffffff0(%ebp)
     1e3:	89 55 f4             	mov    %edx,0xfffffff4(%ebp)
     1e6:	8b 45 fc             	mov    0xfffffffc(%ebp),%eax
     1e9:	ba 00 00 00 00       	mov    $0x0,%edx
     1ee:	f7 75 f0             	divl   0xfffffff0(%ebp)
     1f1:	89 45 f0             	mov    %eax,0xfffffff0(%ebp)
     1f4:	8b 45 f0             	mov    0xfffffff0(%ebp),%eax
     1f7:	89 45 fc             	mov    %eax,0xfffffffc(%ebp)
     1fa:	eb 07                	jmp    203 <SKBStat_dump+0x5e>
     1fc:	c7 45 fc 00 00 00 00 	movl   $0x0,0xfffffffc(%ebp)
     203:	8b 45 fc             	mov    0xfffffffc(%ebp),%eax
     206:	89 44 24 14          	mov    %eax,0x14(%esp,1)
     20a:	8b 45 08             	mov    0x8(%ebp),%eax
     20d:	8b 40 10             	mov    0x10(%eax),%eax
     210:	89 44 24 10          	mov    %eax,0x10(%esp,1)
     214:	8b 45 08             	mov    0x8(%ebp),%eax
     217:	8b 50 04             	mov    0x4(%eax),%edx
     21a:	8b 00                	mov    (%eax),%eax
     21c:	0f ac d0 04          	shrd   $0x4,%edx,%eax
     220:	c1 ea 04             	shr    $0x4,%edx
     223:	85 c0                	test   %eax,%eax
     225:	74 3e                	je     265 <SKBStat_dump+0xc0>
     227:	8b 45 08             	mov    0x8(%ebp),%eax
     22a:	8b 50 0c             	mov    0xc(%eax),%edx
     22d:	8b 40 08             	mov    0x8(%eax),%eax
     230:	0f ac d0 04          	shrd   $0x4,%edx,%eax
     234:	c1 ea 04             	shr    $0x4,%edx
     237:	89 45 f8             	mov    %eax,0xfffffff8(%ebp)
     23a:	8b 45 08             	mov    0x8(%ebp),%eax
     23d:	8b 50 04             	mov    0x4(%eax),%edx
     240:	8b 00                	mov    (%eax),%eax
     242:	0f ac d0 04          	shrd   $0x4,%edx,%eax
     246:	c1 ea 04             	shr    $0x4,%edx
     249:	89 45 f0             	mov    %eax,0xfffffff0(%ebp)
     24c:	89 55 f4             	mov    %edx,0xfffffff4(%ebp)
     24f:	8b 45 f8             	mov    0xfffffff8(%ebp),%eax
     252:	ba 00 00 00 00       	mov    $0x0,%edx
     257:	f7 75 f0             	divl   0xfffffff0(%ebp)
     25a:	89 45 f0             	mov    %eax,0xfffffff0(%ebp)
     25d:	8b 45 f0             	mov    0xfffffff0(%ebp),%eax
     260:	89 45 f8             	mov    %eax,0xfffffff8(%ebp)
     263:	eb 07                	jmp    26c <SKBStat_dump+0xc7>
     265:	c7 45 f8 00 00 00 00 	movl   $0x0,0xfffffff8(%ebp)
     26c:	8b 45 f8             	mov    0xfffffff8(%ebp),%eax
     26f:	89 44 24 0c          	mov    %eax,0xc(%esp,1)
     273:	8b 45 08             	mov    0x8(%ebp),%eax
     276:	8b 40 08             	mov    0x8(%eax),%eax
     279:	89 44 24 08          	mov    %eax,0x8(%esp,1)
     27d:	8b 45 08             	mov    0x8(%ebp),%eax
     280:	8b 00                	mov    (%eax),%eax
     282:	89 44 24 04          	mov    %eax,0x4(%esp,1)
     286:	c7 04 24 c0 00 00 00 	movl   $0xc0,(%esp,1)
     28d:	e8 fc ff ff ff       	call   28e <SKBStat_dump+0xe9>
	       (__u32) sstat->count, 
	       (__u32) sstat->totalBytes, (__u32) SAFEAVG(sstat->totalBytes, sstat->count), 
	       (__u32) sstat->totalOverheadBytes, (__u32) SAFEAVG(sstat->totalOverheadBytes, sstat->count));
}
     292:	c9                   	leave  
     293:	c3                   	ret    

00000294 <mem_dump>:
	RECORD_MISSINGDATAMAP_INSERTION_HELPER((REQ)->start, (REQ)->end)

//#define FINDUC_DBG

void mem_dump(char *start, int len) {
     294:	55                   	push   %ebp
     295:	89 e5                	mov    %esp,%ebp
     297:	83 ec 0c             	sub    $0xc,%esp
	int i;
	for(i=0; i < len; i++) {
     29a:	c7 45 fc 00 00 00 00 	movl   $0x0,0xfffffffc(%ebp)
     2a1:	8b 45 fc             	mov    0xfffffffc(%ebp),%eax
     2a4:	3b 45 0c             	cmp    0xc(%ebp),%eax
     2a7:	7c 02                	jl     2ab <mem_dump+0x17>
     2a9:	eb 74                	jmp    31f <mem_dump+0x8b>
		if(i > 0 && i % 8 == 0) {
     2ab:	83 7d fc 00          	cmpl   $0x0,0xfffffffc(%ebp)
     2af:	7e 16                	jle    2c7 <mem_dump+0x33>
     2b1:	8b 45 fc             	mov    0xfffffffc(%ebp),%eax
     2b4:	83 e0 07             	and    $0x7,%eax
     2b7:	85 c0                	test   %eax,%eax
     2b9:	75 0c                	jne    2c7 <mem_dump+0x33>
			printk(" - ");
     2bb:	c7 04 24 fb 00 00 00 	movl   $0xfb,(%esp,1)
     2c2:	e8 fc ff ff ff       	call   2c3 <mem_dump+0x2f>
		}
		printk("%.2x ", start[i]);
     2c7:	8b 45 fc             	mov    0xfffffffc(%ebp),%eax
     2ca:	03 45 08             	add    0x8(%ebp),%eax
     2cd:	0f be 00             	movsbl (%eax),%eax
     2d0:	89 44 24 04          	mov    %eax,0x4(%esp,1)
     2d4:	c7 04 24 ff 00 00 00 	movl   $0xff,(%esp,1)
     2db:	e8 fc ff ff ff       	call   2dc <mem_dump+0x48>
		if(i > 0 && i % 72 == 0) {
     2e0:	83 7d fc 00          	cmpl   $0x0,0xfffffffc(%ebp)
     2e4:	7e 32                	jle    318 <mem_dump+0x84>
     2e6:	8b 4d fc             	mov    0xfffffffc(%ebp),%ecx
     2e9:	b8 39 8e e3 38       	mov    $0x38e38e39,%eax
     2ee:	f7 e9                	imul   %ecx
     2f0:	c1 fa 04             	sar    $0x4,%edx
     2f3:	89 c8                	mov    %ecx,%eax
     2f5:	c1 f8 1f             	sar    $0x1f,%eax
     2f8:	29 c2                	sub    %eax,%edx
     2fa:	89 d0                	mov    %edx,%eax
     2fc:	c1 e0 03             	shl    $0x3,%eax
     2ff:	01 d0                	add    %edx,%eax
     301:	c1 e0 03             	shl    $0x3,%eax
     304:	29 c1                	sub    %eax,%ecx
     306:	89 c8                	mov    %ecx,%eax
     308:	85 c0                	test   %eax,%eax
     30a:	75 0c                	jne    318 <mem_dump+0x84>
			printk("\n");
     30c:	c7 04 24 05 01 00 00 	movl   $0x105,(%esp,1)
     313:	e8 fc ff ff ff       	call   314 <mem_dump+0x80>
     318:	8d 45 fc             	lea    0xfffffffc(%ebp),%eax
     31b:	ff 00                	incl   (%eax)
     31d:	eb 82                	jmp    2a1 <mem_dump+0xd>
		}
	}
}
     31f:	c9                   	leave  
     320:	c3                   	ret    

00000321 <kmalloc_ConversionRequest>:

int total_csum_bytes = 0;
static int csum_complete_user_count = 0;
static int gNumNomemEvents = 0;
int gNumSetUCont = 0;
int gNumSendv = 0;
int gNumSendbulk = 0;
int gNumSendbulkDesc = 0;

int gUpdateSincePollTotal = 0;
int gUpdateSincePollCount = 0;
int gInvalidReqnum = 0;
int gNumSlowstart = 0;
int gNumRecovery = 0;

__u64 gTotalTimeoutInterval = 0;
int gTotalTimeoutCount = 0;

int gNumRecoveryStates = 0;
int gNumBootstrapStates = 0;
int gNumBootstrapResponses = 0;

static inline void record_delay(int delay) {
	gTotalTimeoutInterval += delay;
	gTotalTimeoutCount++;
}

const int dbgBadChunk = 0;

struct SKBStat gOuterSKBStat, gNoDataSKBStat, gReceivedSKBStat;
struct histogram a_histogram, d_histogram, timeout_histogram;

#define SAVE_ESTIMATOR_STATS(SK)				\
	({ struct tcp_opt *_tp = &(SK)->tp_pinfo.af_tcp;	\
		hist_addPoint(&a_histogram, _tp->t.A);		\
		hist_addPoint(&d_histogram, _tp->t.D);		\
	})

#define SAVE_DELAY_STATS(SK)				\
	({ struct tcp_opt *_tp = &(SK)->tp_pinfo.af_tcp;	\
		hist_addPoint(&timeout_histogram, _tp->t.RTO);		\
	})


int gNumReceivedBytes, gNumUncopiedBytes;
#define NUM_OVERLAPPED (8)
struct {
	int count;
	int total;
	int lineNum;
} gNumOverlapped[NUM_OVERLAPPED];

#define RECORD_OVERLAP(X,Y) do { gNumOverlapped[X].count++; gNumOverlapped[X].total += (Y); gNumOverlapped[X].lineNum = __LINE__; } while(0)

#define RECORD_NOMEM() do { gNumNomemEvents++; } while(0)

static inline int skb_can_put(struct sk_buff *skb, int amt) {
	return skb->tail + amt <= skb->end;
}

#ifdef USERTEST
static inline int addOfoSkb(struct sk_buff *skb) {
	return 1;
}

static inline  void delOfoSkb(struct sk_buff *skb) {
	return;
}

void zap_virt(void *address) {
}
#else

// xxx HACK TO ALLOW > 2000 clients
// The memory allocation scheme results in bursts of memory
atomic_t ofoBufSize = ATOMIC_INIT(0);

// maximum of 256 mb allowed in ofo queue
#define OFO_BUF_LIMIT (256 * 1024 * 1024)
static inline int addOfoSkb(struct sk_buff *skb) {
	if(atomic_read(&ofoBufSize) > OFO_BUF_LIMIT) {
#if 0
		if(trickles_ratelimit())
			printk("%d > ofo limit\n", atomic_read(&ofoBufSize));
#endif
		return 0;
	}
	atomic_add(skb->end - skb->head,&ofoBufSize);
	return 1;
}

static inline  void delOfoSkb(struct sk_buff *skb) {
	atomic_sub(skb->end - skb->head,&ofoBufSize);
}
#endif // USERTEST

// 0425 debug variables to determine goodput
__u64 numRxPackets = 0;
__u64 numRxBytes = 0;
__u64 numRxOverhead = 0;

// 0418 debug variables
int numDataRequestMappings;

int numContinuations;

#if 0
#define MARK_PC(CONT) (CONT)->mark |= (__LINE__) << 18
#else
#define MARK_PC(CONT)
#endif

static inline void unlinkCont(CONTINUATION_TYPE *cont) {
	unlink((struct alloc_head*)cont);
}

#if 0
#define CHECK_IF_ZEROREQUEST(REQ) CHECK_IF_ZEROREQUEST_helper(REQ, __LINE__)
void CHECK_IF_ZEROREQUEST_helper(struct Request *req, int lineno) {
	if(req->type == MREQ_CONVERSION && ) {
		xxx code not don;
	}
}
#else
#define CHECK_IF_ZEROREQUEST(REQ)
#endif

#ifdef DO_INTEGRITY_CHECK
void INTEGRITY_CHECK(struct sock *sk, struct cminisock *msk) {
	return;
	struct tcp_opt *tp = &sk->tp_pinfo.af_tcp;
	struct cminisock *ptr;
	int found = 0;

	if(msk->list != &tp->t.cont_list) {
		BUG();
	}
	alloc_head_walk(&tp->t.cont_list, ptr) {
		if(ptr == msk) {
			found = 1;
			break;
		}
	}
	if(!found) BUG();
}
#else
#define INTEGRITY_CHECK(X,Y)
#endif // DO_INTEGRITY_CHECK

#ifdef SAVE_APHIST
#define SAVE_ACK_PREV(TP) { save_ack_prev(TP, __LINE__); }

void save_ack_prev(struct tcp_opt *tp, int lineno) {
	int pos = tp->t.aphistpos;
	if(tp->t.ack_prev != 0) {
		tp->t.aphist[pos] = *tp->t.ack_prev;
	} else {
		memset(&tp->t.aphist[pos], 0xff, sizeof(tp->t.aphist[pos]));
	}
	tp->t.aphist[pos].mark |= (lineno & 0x3fff) << 2;
	pos = (pos + 1) % ACK_PREV_HISTORY_ENTRIES;
	tp->t.aphistpos = pos;
}
#else
#define SAVE_ACK_PREV(TP)
#endif // SAVE_APHIST


static int numConversionRequests = 0;

static int sendAckHelper(struct sock *sk, CONTINUATION_TYPE *cont, enum TrickleRequestType type);

struct ConversionRequest *kmalloc_ConversionRequest(int gfp) {
     321:	55                   	push   %ebp
     322:	89 e5                	mov    %esp,%ebp
     324:	83 ec 08             	sub    $0x8,%esp
	numConversionRequests++;
     327:	ff 05 68 00 00 00    	incl   0x68
	return kmalloc(sizeof(struct ConversionRequest), gfp);
     32d:	8b 45 08             	mov    0x8(%ebp),%eax
     330:	89 44 24 04          	mov    %eax,0x4(%esp,1)
     334:	c7 04 24 68 00 00 00 	movl   $0x68,(%esp,1)
     33b:	e8 fc ff ff ff       	call   33c <kmalloc_ConversionRequest+0x1b>
}
     340:	c9                   	leave  
     341:	c3                   	ret    

00000342 <kmalloc_ContinuationRequest>:

int numContinuationRequests = 0;

struct ContinuationRequest *kmalloc_ContinuationRequest(int gfp) {
     342:	55                   	push   %ebp
     343:	89 e5                	mov    %esp,%ebp
     345:	83 ec 08             	sub    $0x8,%esp
	numContinuationRequests++;
     348:	ff 05 00 00 00 00    	incl   0x0
	return kmalloc(sizeof(struct ContinuationRequest), gfp);
     34e:	8b 45 08             	mov    0x8(%ebp),%eax
     351:	89 44 24 04          	mov    %eax,0x4(%esp,1)
     355:	c7 04 24 5c 00 00 00 	movl   $0x5c,(%esp,1)
     35c:	e8 fc ff ff ff       	call   35d <kmalloc_ContinuationRequest+0x1b>
}
     361:	c9                   	leave  
     362:	c3                   	ret    

00000363 <trickles_add_clientsock>:

#ifdef USE_FLOATINGPOINT
// FSAVE/FRESTORE areas to support use of FPU in bottom half
static char fpu_user_save[NR_CPUS][512];
static char fpu_kernel_save[NR_CPUS][512];

// Based on code from asm-i386/xor.h
#define FPU_SAVE(X)							\
  do {									\
	if (!(current->flags & PF_USEDFPU)) {				\
		__asm__ __volatile__ (" clts;\n");			\
	} else 								\
  		__asm__ __volatile__ ("fsave %0; fwait": "=m"((X)[0]));	\
  } while (0)

#define FPU_RESTORE(X)							\
  do {									\
	if (!(current->flags & PF_USEDFPU)) {				\
		stts();							\
	} else 								\
		__asm__ __volatile__ ("frstor %0": : "m"((X)[0]));	\
  } while (0)
#endif // USE_FLOATINGPOINT

#ifndef USERTEST
struct proto trickles_client_prot;

spinlock_t trickles_sockets_head_lock = SPIN_LOCK_UNLOCKED;
struct sock trickles_sockets_head;

void trickles_add_clientsock(struct sock *sk) {
     363:	55                   	push   %ebp
     364:	89 e5                	mov    %esp,%ebp
     366:	83 ec 08             	sub    $0x8,%esp
	struct tcp_opt *tp = &sk->tp_pinfo.af_tcp;
     369:	8b 45 08             	mov    0x8(%ebp),%eax
     36c:	05 bc 00 00 00       	add    $0xbc,%eax
     371:	89 45 fc             	mov    %eax,0xfffffffc(%ebp)
	struct tcp_opt *htp = &trickles_sockets_head.tp_pinfo.af_tcp;
     374:	c7 45 f8 bc 00 00 00 	movl   $0xbc,0xfffffff8(%ebp)
	spin_lock(&trickles_sockets_head_lock);
	tp->t.dnext = htp->t.dnext;
     37b:	8b 55 fc             	mov    0xfffffffc(%ebp),%edx
     37e:	8b 45 f8             	mov    0xfffffff8(%ebp),%eax
     381:	8b 80 28 09 00 00    	mov    0x928(%eax),%eax
     387:	89 82 28 09 00 00    	mov    %eax,0x928(%edx)
	htp->t.dnext = sk;
     38d:	8b 55 f8             	mov    0xfffffff8(%ebp),%edx
     390:	8b 45 08             	mov    0x8(%ebp),%eax
     393:	89 82 28 09 00 00    	mov    %eax,0x928(%edx)
	tp->t.dprev = &trickles_sockets_head;
     399:	8b 45 fc             	mov    0xfffffffc(%ebp),%eax
     39c:	c7 80 24 09 00 00 00 	movl   $0x0,0x924(%eax)
     3a3:	00 00 00 
	tp->t.dnext->tp_pinfo.af_tcp.t.dprev = sk;
     3a6:	8b 45 fc             	mov    0xfffffffc(%ebp),%eax
     3a9:	8b 90 28 09 00 00    	mov    0x928(%eax),%edx
     3af:	8b 45 08             	mov    0x8(%ebp),%eax
     3b2:	89 82 e0 09 00 00    	mov    %eax,0x9e0(%edx)
	spin_unlock(&trickles_sockets_head_lock);
}
     3b8:	c9                   	leave  
     3b9:	c3                   	ret    

000003ba <trickles_del_clientsock>:

void trickles_del_clientsock(struct sock *sk) {
     3ba:	55                   	push   %ebp
     3bb:	89 e5                	mov    %esp,%ebp
     3bd:	83 ec 0c             	sub    $0xc,%esp
	struct tcp_opt *tp = &sk->tp_pinfo.af_tcp;
     3c0:	8b 45 08             	mov    0x8(%ebp),%eax
     3c3:	05 bc 00 00 00       	add    $0xbc,%eax
     3c8:	89 45 fc             	mov    %eax,0xfffffffc(%ebp)
	if(tp->t.dprev == NULL) {
     3cb:	8b 45 fc             	mov    0xfffffffc(%ebp),%eax
     3ce:	83 b8 24 09 00 00 00 	cmpl   $0x0,0x924(%eax)
     3d5:	75 31                	jne    408 <trickles_del_clientsock+0x4e>
		BUG_TRAP(tp->t.dnext != NULL);
     3d7:	8b 45 fc             	mov    0xfffffffc(%ebp),%eax
     3da:	83 b8 28 09 00 00 00 	cmpl   $0x0,0x928(%eax)
     3e1:	75 14                	jne    3f7 <trickles_del_clientsock+0x3d>
     3e3:	c7 44 24 04 2a 01 00 	movl   $0x12a,0x4(%esp,1)
     3ea:	00 
     3eb:	c7 04 24 20 01 00 00 	movl   $0x120,(%esp,1)
     3f2:	e8 fc ff ff ff       	call   3f3 <trickles_del_clientsock+0x39>
		printk("Socket not on clientsock list\n");
     3f7:	c7 04 24 80 01 00 00 	movl   $0x180,(%esp,1)
     3fe:	e8 fc ff ff ff       	call   3ff <trickles_del_clientsock+0x45>
		return;
     403:	e9 9a 00 00 00       	jmp    4a2 <trickles_del_clientsock+0xe8>
	}
	spin_lock(&trickles_sockets_head_lock);
	BUG_TRAP(tp->t.dprev->tp_pinfo.af_tcp.t.dnext == sk);
     408:	8b 45 fc             	mov    0xfffffffc(%ebp),%eax
     40b:	8b 80 24 09 00 00    	mov    0x924(%eax),%eax
     411:	8b 80 e4 09 00 00    	mov    0x9e4(%eax),%eax
     417:	3b 45 08             	cmp    0x8(%ebp),%eax
     41a:	74 14                	je     430 <trickles_del_clientsock+0x76>
     41c:	c7 44 24 04 2f 01 00 	movl   $0x12f,0x4(%esp,1)
     423:	00 
     424:	c7 04 24 a0 01 00 00 	movl   $0x1a0,(%esp,1)
     42b:	e8 fc ff ff ff       	call   42c <trickles_del_clientsock+0x72>
	BUG_TRAP(tp->t.dnext->tp_pinfo.af_tcp.t.dprev == sk);
     430:	8b 45 fc             	mov    0xfffffffc(%ebp),%eax
     433:	8b 80 28 09 00 00    	mov    0x928(%eax),%eax
     439:	8b 80 e0 09 00 00    	mov    0x9e0(%eax),%eax
     43f:	3b 45 08             	cmp    0x8(%ebp),%eax
     442:	74 14                	je     458 <trickles_del_clientsock+0x9e>
     444:	c7 44 24 04 30 01 00 	movl   $0x130,0x4(%esp,1)
     44b:	00 
     44c:	c7 04 24 00 02 00 00 	movl   $0x200,(%esp,1)
     453:	e8 fc ff ff ff       	call   454 <trickles_del_clientsock+0x9a>
	tp->t.dprev->tp_pinfo.af_tcp.t.dnext = tp->t.dnext;
     458:	8b 45 fc             	mov    0xfffffffc(%ebp),%eax
     45b:	8b 90 24 09 00 00    	mov    0x924(%eax),%edx
     461:	8b 45 fc             	mov    0xfffffffc(%ebp),%eax
     464:	8b 80 28 09 00 00    	mov    0x928(%eax),%eax
     46a:	89 82 e4 09 00 00    	mov    %eax,0x9e4(%edx)
	tp->t.dnext->tp_pinfo.af_tcp.t.dprev = tp->t.dprev;
     470:	8b 45 fc             	mov    0xfffffffc(%ebp),%eax
     473:	8b 90 28 09 00 00    	mov    0x928(%eax),%edx
     479:	8b 45 fc             	mov    0xfffffffc(%ebp),%eax
     47c:	8b 80 24 09 00 00    	mov    0x924(%eax),%eax
     482:	89 82 e0 09 00 00    	mov    %eax,0x9e0(%edx)

	tp->t.dprev = tp->t.dnext = NULL;
     488:	8b 55 fc             	mov    0xfffffffc(%ebp),%edx
     48b:	8b 45 fc             	mov    0xfffffffc(%ebp),%eax
     48e:	c7 80 28 09 00 00 00 	movl   $0x0,0x928(%eax)
     495:	00 00 00 
     498:	c7 82 24 09 00 00 00 	movl   $0x0,0x924(%edx)
     49f:	00 00 00 
	spin_unlock(&trickles_sockets_head_lock);
}
     4a2:	c9                   	leave  
     4a3:	c3                   	ret    

000004a4 <trickles_kfree_skb>:
#endif

#define SKB_CONTAINS(SKB, SEQ) \
	((TCP_SKB_CB(SKB)->seq <= (SEQ)) && (TCP_SKB_CB(SKB)->end_seq > (SEQ)))

static inline void trickles_kfree_skb(struct sk_buff *skb) {
     4a4:	55                   	push   %ebp
     4a5:	89 e5                	mov    %esp,%ebp
     4a7:	53                   	push   %ebx
     4a8:	83 ec 20             	sub    $0x20,%esp
	if(TCP_SKB_CB(skb)->cont) {
     4ab:	8b 45 08             	mov    0x8(%ebp),%eax
     4ae:	83 c0 30             	add    $0x30,%eax
     4b1:	83 78 2c 00          	cmpl   $0x0,0x2c(%eax)
     4b5:	74 11                	je     4c8 <trickles_kfree_skb+0x24>
		// 0810 - used to be a straight kfree
		freeClientSide_Continuation(TCP_SKB_CB(skb)->cont);
     4b7:	8b 45 08             	mov    0x8(%ebp),%eax
     4ba:	83 c0 30             	add    $0x30,%eax
     4bd:	8b 40 2c             	mov    0x2c(%eax),%eax
     4c0:	89 04 24             	mov    %eax,(%esp,1)
     4c3:	e8 67 9b 00 00       	call   a02f <freeClientSide_Continuation>
	}
	int i;
	for(i=0; i < TCP_SKB_CB(skb)->numDataChunks-1; i++) {
     4c8:	c7 45 f8 00 00 00 00 	movl   $0x0,0xfffffff8(%ebp)
     4cf:	8b 45 08             	mov    0x8(%ebp),%eax
     4d2:	83 c0 30             	add    $0x30,%eax
     4d5:	8b 40 34             	mov    0x34(%eax),%eax
     4d8:	48                   	dec    %eax
     4d9:	39 45 f8             	cmp    %eax,0xfffffff8(%ebp)
     4dc:	7c 05                	jl     4e3 <trickles_kfree_skb+0x3f>
     4de:	e9 e5 00 00 00       	jmp    5c8 <trickles_kfree_skb+0x124>
		struct sk_buff **pskb = GET_CHUNK(skb,i);
     4e3:	8b 45 08             	mov    0x8(%ebp),%eax
     4e6:	83 c0 30             	add    $0x30,%eax
     4e9:	89 45 ec             	mov    %eax,0xffffffec(%ebp)
     4ec:	83 7d f8 00          	cmpl   $0x0,0xfffffff8(%ebp)
     4f0:	78 08                	js     4fa <trickles_kfree_skb+0x56>
     4f2:	83 7d f8 31          	cmpl   $0x31,0xfffffff8(%ebp)
     4f6:	7f 02                	jg     4fa <trickles_kfree_skb+0x56>
     4f8:	eb 25                	jmp    51f <trickles_kfree_skb+0x7b>
     4fa:	c7 44 24 04 39 00 00 	movl   $0x39,0x4(%esp,1)
     501:	00 
     502:	c7 04 24 3d 00 00 00 	movl   $0x3d,(%esp,1)
     509:	e8 fc ff ff ff       	call   50a <trickles_kfree_skb+0x66>
     50e:	c7 04 24 00 00 00 00 	movl   $0x0,(%esp,1)
     515:	e8 fc ff ff ff       	call   516 <trickles_kfree_skb+0x72>
     51a:	e8 fc ff ff ff       	call   51b <trickles_kfree_skb+0x77>
     51f:	83 7d f8 04          	cmpl   $0x4,0xfffffff8(%ebp)
     523:	7f 11                	jg     536 <trickles_kfree_skb+0x92>
     525:	8b 45 f8             	mov    0xfffffff8(%ebp),%eax
     528:	c1 e0 02             	shl    $0x2,%eax
     52b:	03 45 ec             	add    0xffffffec(%ebp),%eax
     52e:	83 c0 38             	add    $0x38,%eax
     531:	89 45 f0             	mov    %eax,0xfffffff0(%ebp)
     534:	eb 6d                	jmp    5a3 <trickles_kfree_skb+0xff>
     536:	8b 45 ec             	mov    0xffffffec(%ebp),%eax
     539:	83 78 4c 00          	cmpl   $0x0,0x4c(%eax)
     53d:	75 52                	jne    591 <trickles_kfree_skb+0xed>
     53f:	c7 45 e8 2d 00 00 00 	movl   $0x2d,0xffffffe8(%ebp)
     546:	8b 5d ec             	mov    0xffffffec(%ebp),%ebx
     549:	c7 44 24 04 20 00 00 	movl   $0x20,0x4(%esp,1)
     550:	00 
     551:	8b 45 e8             	mov    0xffffffe8(%ebp),%eax
     554:	c1 e0 02             	shl    $0x2,%eax
     557:	89 04 24             	mov    %eax,(%esp,1)
     55a:	e8 fc ff ff ff       	call   55b <trickles_kfree_skb+0xb7>
     55f:	89 43 4c             	mov    %eax,0x4c(%ebx)
     562:	c7 45 e4 00 00 00 00 	movl   $0x0,0xffffffe4(%ebp)
     569:	8b 45 e4             	mov    0xffffffe4(%ebp),%eax
     56c:	3b 45 e8             	cmp    0xffffffe8(%ebp),%eax
     56f:	7c 02                	jl     573 <trickles_kfree_skb+0xcf>
     571:	eb 1e                	jmp    591 <trickles_kfree_skb+0xed>
     573:	8b 4d ec             	mov    0xffffffec(%ebp),%ecx
     576:	8b 45 e4             	mov    0xffffffe4(%ebp),%eax
     579:	8d 14 85 00 00 00 00 	lea    0x0(,%eax,4),%edx
     580:	8b 41 4c             	mov    0x4c(%ecx),%eax
     583:	c7 04 10 00 00 00 00 	movl   $0x0,(%eax,%edx,1)
     58a:	8d 45 e4             	lea    0xffffffe4(%ebp),%eax
     58d:	ff 00                	incl   (%eax)
     58f:	eb d8                	jmp    569 <trickles_kfree_skb+0xc5>
     591:	8b 55 ec             	mov    0xffffffec(%ebp),%edx
     594:	8b 45 f8             	mov    0xfffffff8(%ebp),%eax
     597:	c1 e0 02             	shl    $0x2,%eax
     59a:	03 42 4c             	add    0x4c(%edx),%eax
     59d:	83 e8 14             	sub    $0x14,%eax
     5a0:	89 45 f0             	mov    %eax,0xfffffff0(%ebp)
     5a3:	8b 45 f0             	mov    0xfffffff0(%ebp),%eax
     5a6:	89 45 f4             	mov    %eax,0xfffffff4(%ebp)
		if(*pskb != NULL) {
     5a9:	8b 45 f4             	mov    0xfffffff4(%ebp),%eax
     5ac:	83 38 00             	cmpl   $0x0,(%eax)
     5af:	74 0d                	je     5be <trickles_kfree_skb+0x11a>
			trickles_kfree_skb(*pskb);
     5b1:	8b 45 f4             	mov    0xfffffff4(%ebp),%eax
     5b4:	8b 00                	mov    (%eax),%eax
     5b6:	89 04 24             	mov    %eax,(%esp,1)
     5b9:	e8 e6 fe ff ff       	call   4a4 <trickles_kfree_skb>
     5be:	8d 45 f8             	lea    0xfffffff8(%ebp),%eax
     5c1:	ff 00                	incl   (%eax)
     5c3:	e9 07 ff ff ff       	jmp    4cf <trickles_kfree_skb+0x2b>
			if(0 && trickles_ratelimit())
				printk("Freeing undetached skb\n");
		}
	}
	if(TCP_SKB_CB(skb)->chunksOverflow != NULL) {
     5c8:	8b 45 08             	mov    0x8(%ebp),%eax
     5cb:	83 c0 30             	add    $0x30,%eax
     5ce:	83 78 4c 00          	cmpl   $0x0,0x4c(%eax)
     5d2:	74 11                	je     5e5 <trickles_kfree_skb+0x141>
		kfree(TCP_SKB_CB(skb)->chunksOverflow);
     5d4:	8b 45 08             	mov    0x8(%ebp),%eax
     5d7:	83 c0 30             	add    $0x30,%eax
     5da:	8b 40 4c             	mov    0x4c(%eax),%eax
     5dd:	89 04 24             	mov    %eax,(%esp,1)
     5e0:	e8 fc ff ff ff       	call   5e1 <trickles_kfree_skb+0x13d>
	}
	__kfree_skb(skb);
     5e5:	8b 45 08             	mov    0x8(%ebp),%eax
     5e8:	89 04 24             	mov    %eax,(%esp,1)
     5eb:	e8 fc ff ff ff       	call   5ec <trickles_kfree_skb+0x148>
 }
     5f0:	83 c4 20             	add    $0x20,%esp
     5f3:	5b                   	pop    %ebx
     5f4:	5d                   	pop    %ebp
     5f5:	c3                   	ret    

000005f6 <dump_global_stats>:

static void dump_global_stats(void) {
     5f6:	55                   	push   %ebp
     5f7:	89 e5                	mov    %esp,%ebp
     5f9:	83 ec 58             	sub    $0x58,%esp
	printk("numRxPackets = %llu, numRxBytes = %llu, avgRxPacketSize = %d, avgRxOverhead = %d, numTxPackets = %llu, numTxBytes = %llu, avgTxPacketSize = %d\n",
     5fc:	a1 00 00 00 00       	mov    0x0,%eax
     601:	8b 15 04 00 00 00    	mov    0x4,%edx
     607:	0f ac d0 04          	shrd   $0x4,%edx,%eax
     60b:	c1 ea 04             	shr    $0x4,%edx
     60e:	85 c0                	test   %eax,%eax
     610:	74 43                	je     655 <dump_global_stats+0x5f>
     612:	a1 00 00 00 00       	mov    0x0,%eax
     617:	8b 15 04 00 00 00    	mov    0x4,%edx
     61d:	0f ac d0 04          	shrd   $0x4,%edx,%eax
     621:	c1 ea 04             	shr    $0x4,%edx
     624:	89 45 f4             	mov    %eax,0xfffffff4(%ebp)
     627:	a1 00 00 00 00       	mov    0x0,%eax
     62c:	8b 15 04 00 00 00    	mov    0x4,%edx
     632:	0f ac d0 04          	shrd   $0x4,%edx,%eax
     636:	c1 ea 04             	shr    $0x4,%edx
     639:	89 45 d8             	mov    %eax,0xffffffd8(%ebp)
     63c:	89 55 dc             	mov    %edx,0xffffffdc(%ebp)
     63f:	8b 45 f4             	mov    0xfffffff4(%ebp),%eax
     642:	ba 00 00 00 00       	mov    $0x0,%edx
     647:	f7 75 d8             	divl   0xffffffd8(%ebp)
     64a:	89 45 d8             	mov    %eax,0xffffffd8(%ebp)
     64d:	8b 45 d8             	mov    0xffffffd8(%ebp),%eax
     650:	89 45 f4             	mov    %eax,0xfffffff4(%ebp)
     653:	eb 07                	jmp    65c <dump_global_stats+0x66>
     655:	c7 45 f4 00 00 00 00 	movl   $0x0,0xfffffff4(%ebp)
     65c:	8b 45 f4             	mov    0xfffffff4(%ebp),%eax
     65f:	89 44 24 2c          	mov    %eax,0x2c(%esp,1)
     663:	a1 00 00 00 00       	mov    0x0,%eax
     668:	8b 15 04 00 00 00    	mov    0x4,%edx
     66e:	89 44 24 24          	mov    %eax,0x24(%esp,1)
     672:	89 54 24 28          	mov    %edx,0x28(%esp,1)
     676:	a1 00 00 00 00       	mov    0x0,%eax
     67b:	8b 15 04 00 00 00    	mov    0x4,%edx
     681:	89 44 24 1c          	mov    %eax,0x1c(%esp,1)
     685:	89 54 24 20          	mov    %edx,0x20(%esp,1)
     689:	a1 00 00 00 00       	mov    0x0,%eax
     68e:	8b 15 04 00 00 00    	mov    0x4,%edx
     694:	0f ac d0 04          	shrd   $0x4,%edx,%eax
     698:	c1 ea 04             	shr    $0x4,%edx
     69b:	85 c0                	test   %eax,%eax
     69d:	74 43                	je     6e2 <dump_global_stats+0xec>
     69f:	a1 00 00 00 00       	mov    0x0,%eax
     6a4:	8b 15 04 00 00 00    	mov    0x4,%edx
     6aa:	0f ac d0 04          	shrd   $0x4,%edx,%eax
     6ae:	c1 ea 04             	shr    $0x4,%edx
     6b1:	89 45 f0             	mov    %eax,0xfffffff0(%ebp)
     6b4:	a1 00 00 00 00       	mov    0x0,%eax
     6b9:	8b 15 04 00 00 00    	mov    0x4,%edx
     6bf:	0f ac d0 04          	shrd   $0x4,%edx,%eax
     6c3:	c1 ea 04             	shr    $0x4,%edx
     6c6:	89 45 d8             	mov    %eax,0xffffffd8(%ebp)
     6c9:	89 55 dc             	mov    %edx,0xffffffdc(%ebp)
     6cc:	8b 45 f0             	mov    0xfffffff0(%ebp),%eax
     6cf:	ba 00 00 00 00       	mov    $0x0,%edx
     6d4:	f7 75 d8             	divl   0xffffffd8(%ebp)
     6d7:	89 45 d8             	mov    %eax,0xffffffd8(%ebp)
     6da:	8b 45 d8             	mov    0xffffffd8(%ebp),%eax
     6dd:	89 45 f0             	mov    %eax,0xfffffff0(%ebp)
     6e0:	eb 07                	jmp    6e9 <dump_global_stats+0xf3>
     6e2:	c7 45 f0 00 00 00 00 	movl   $0x0,0xfffffff0(%ebp)
     6e9:	8b 45 f0             	mov    0xfffffff0(%ebp),%eax
     6ec:	89 44 24 18          	mov    %eax,0x18(%esp,1)
     6f0:	a1 00 00 00 00       	mov    0x0,%eax
     6f5:	8b 15 04 00 00 00    	mov    0x4,%edx
     6fb:	0f ac d0 04          	shrd   $0x4,%edx,%eax
     6ff:	c1 ea 04             	shr    $0x4,%edx
     702:	85 c0                	test   %eax,%eax
     704:	74 43                	je     749 <dump_global_stats+0x153>
     706:	a1 00 00 00 00       	mov    0x0,%eax
     70b:	8b 15 04 00 00 00    	mov    0x4,%edx
     711:	0f ac d0 04          	shrd   $0x4,%edx,%eax
     715:	c1 ea 04             	shr    $0x4,%edx
     718:	89 45 ec             	mov    %eax,0xffffffec(%ebp)
     71b:	a1 00 00 00 00       	mov    0x0,%eax
     720:	8b 15 04 00 00 00    	mov    0x4,%edx
     726:	0f ac d0 04          	shrd   $0x4,%edx,%eax
     72a:	c1 ea 04             	shr    $0x4,%edx
     72d:	89 45 d8             	mov    %eax,0xffffffd8(%ebp)
     730:	89 55 dc             	mov    %edx,0xffffffdc(%ebp)
     733:	8b 45 ec             	mov    0xffffffec(%ebp),%eax
     736:	ba 00 00 00 00       	mov    $0x0,%edx
     73b:	f7 75 d8             	divl   0xffffffd8(%ebp)
     73e:	89 45 d8             	mov    %eax,0xffffffd8(%ebp)
     741:	8b 45 d8             	mov    0xffffffd8(%ebp),%eax
     744:	89 45 ec             	mov    %eax,0xffffffec(%ebp)
     747:	eb 07                	jmp    750 <dump_global_stats+0x15a>
     749:	c7 45 ec 00 00 00 00 	movl   $0x0,0xffffffec(%ebp)
     750:	8b 45 ec             	mov    0xffffffec(%ebp),%eax
     753:	89 44 24 14          	mov    %eax,0x14(%esp,1)
     757:	a1 00 00 00 00       	mov    0x0,%eax
     75c:	8b 15 04 00 00 00    	mov    0x4,%edx
     762:	89 44 24 0c          	mov    %eax,0xc(%esp,1)
     766:	89 54 24 10          	mov    %edx,0x10(%esp,1)
     76a:	a1 00 00 00 00       	mov    0x0,%eax
     76f:	8b 15 04 00 00 00    	mov    0x4,%edx
     775:	89 44 24 04          	mov    %eax,0x4(%esp,1)
     779:	89 54 24 08          	mov    %edx,0x8(%esp,1)
     77d:	c7 04 24 60 02 00 00 	movl   $0x260,(%esp,1)
     784:	e8 fc ff ff ff       	call   785 <dump_global_stats+0x18f>
	       numRxPackets, numRxBytes, (__u32)(numRxPackets >> 4) ? (__u32)(numRxBytes >> 4) / (__u32)(numRxPackets >> 4) : 0,
	       (__u32)(numRxPackets >> 4) ? (__u32)(numRxOverhead >> 4) / (__u32)(numRxPackets >> 4) : 0,
	       numTxPackets, numTxBytes, (__u32)(numTxPackets >> 4) ? (__u32)(numTxBytes >> 4) / (__u32)(numTxPackets >> 4) : 0);
	numRxPackets = numRxBytes = numTxPackets = numTxBytes = 0;
     789:	c7 05 00 00 00 00 00 	movl   $0x0,0x0
     790:	00 00 00 
     793:	c7 05 04 00 00 00 00 	movl   $0x0,0x4
     79a:	00 00 00 
     79d:	c7 05 00 00 00 00 00 	movl   $0x0,0x0
     7a4:	00 00 00 
     7a7:	c7 05 04 00 00 00 00 	movl   $0x0,0x4
     7ae:	00 00 00 
     7b1:	c7 05 00 00 00 00 00 	movl   $0x0,0x0
     7b8:	00 00 00 
     7bb:	c7 05 04 00 00 00 00 	movl   $0x0,0x4
     7c2:	00 00 00 
     7c5:	c7 05 00 00 00 00 00 	movl   $0x0,0x0
     7cc:	00 00 00 
     7cf:	c7 05 04 00 00 00 00 	movl   $0x0,0x4
     7d6:	00 00 00 

	printk("Number of no memory events: %d\n", gNumNomemEvents);
     7d9:	a1 08 00 00 00       	mov    0x8,%eax
     7de:	89 44 24 04          	mov    %eax,0x4(%esp,1)
     7e2:	c7 04 24 00 03 00 00 	movl   $0x300,(%esp,1)
     7e9:	e8 fc ff ff ff       	call   7ea <dump_global_stats+0x1f4>
	printk("Number of csum bytes %d, ", total_csum_bytes);
     7ee:	a1 00 00 00 00       	mov    0x0,%eax
     7f3:	89 44 24 04          	mov    %eax,0x4(%esp,1)
     7f7:	c7 04 24 20 03 00 00 	movl   $0x320,(%esp,1)
     7fe:	e8 fc ff ff ff       	call   7ff <dump_global_stats+0x209>
	printk("TCP Complete count %d, ", csum_complete_user_count);
     803:	a1 04 00 00 00       	mov    0x4,%eax
     808:	89 44 24 04          	mov    %eax,0x4(%esp,1)
     80c:	c7 04 24 3a 03 00 00 	movl   $0x33a,(%esp,1)
     813:	e8 fc ff ff ff       	call   814 <dump_global_stats+0x21e>
	printk("setucont %d, sendv %d\n", gNumSetUCont, gNumSendv);
     818:	a1 00 00 00 00       	mov    0x0,%eax
     81d:	89 44 24 08          	mov    %eax,0x8(%esp,1)
     821:	a1 00 00 00 00       	mov    0x0,%eax
     826:	89 44 24 04          	mov    %eax,0x4(%esp,1)
     82a:	c7 04 24 52 03 00 00 	movl   $0x352,(%esp,1)
     831:	e8 fc ff ff ff       	call   832 <dump_global_stats+0x23c>
	printk("Num of sendbulk: %d, descs: %d\n", gNumSendbulk, gNumSendbulkDesc);
     836:	a1 00 00 00 00       	mov    0x0,%eax
     83b:	89 44 24 08          	mov    %eax,0x8(%esp,1)
     83f:	a1 00 00 00 00       	mov    0x0,%eax
     844:	89 44 24 04          	mov    %eax,0x4(%esp,1)
     848:	c7 04 24 80 03 00 00 	movl   $0x380,(%esp,1)
     84f:	e8 fc ff ff ff       	call   850 <dump_global_stats+0x25a>
	printk("Average updates per poll %d (%d/%d)\n",
     854:	a1 00 00 00 00       	mov    0x0,%eax
     859:	89 44 24 0c          	mov    %eax,0xc(%esp,1)
     85d:	a1 00 00 00 00       	mov    0x0,%eax
     862:	89 44 24 08          	mov    %eax,0x8(%esp,1)
     866:	83 3d 00 00 00 00 00 	cmpl   $0x0,0x0
     86d:	74 11                	je     880 <dump_global_stats+0x28a>
     86f:	a1 00 00 00 00       	mov    0x0,%eax
     874:	99                   	cltd   
     875:	f7 3d 00 00 00 00    	idivl  0x0
     87b:	89 45 e8             	mov    %eax,0xffffffe8(%ebp)
     87e:	eb 07                	jmp    887 <dump_global_stats+0x291>
     880:	c7 45 e8 ff ff ff ff 	movl   $0xffffffff,0xffffffe8(%ebp)
     887:	8b 45 e8             	mov    0xffffffe8(%ebp),%eax
     88a:	89 44 24 04          	mov    %eax,0x4(%esp,1)
     88e:	c7 04 24 a0 03 00 00 	movl   $0x3a0,(%esp,1)
     895:	e8 fc ff ff ff       	call   896 <dump_global_stats+0x2a0>
	       gUpdateSincePollCount ?
	       gUpdateSincePollTotal / gUpdateSincePollCount : -1,
	       gUpdateSincePollTotal, gUpdateSincePollCount);
	printk("Invalid reqnum %d\n", gInvalidReqnum);
     89a:	a1 00 00 00 00       	mov    0x0,%eax
     89f:	89 44 24 04          	mov    %eax,0x4(%esp,1)
     8a3:	c7 04 24 c5 03 00 00 	movl   $0x3c5,(%esp,1)
     8aa:	e8 fc ff ff ff       	call   8ab <dump_global_stats+0x2b5>
	printk("NumSlowstart %d\n", gNumSlowstart);
     8af:	a1 00 00 00 00       	mov    0x0,%eax
     8b4:	89 44 24 04          	mov    %eax,0x4(%esp,1)
     8b8:	c7 04 24 d8 03 00 00 	movl   $0x3d8,(%esp,1)
     8bf:	e8 fc ff ff ff       	call   8c0 <dump_global_stats+0x2ca>
	printk("NumRecovery %d\n", gNumRecovery);
     8c4:	a1 00 00 00 00       	mov    0x0,%eax
     8c9:	89 44 24 04          	mov    %eax,0x4(%esp,1)
     8cd:	c7 04 24 e9 03 00 00 	movl   $0x3e9,(%esp,1)
     8d4:	e8 fc ff ff ff       	call   8d5 <dump_global_stats+0x2df>

	printk("Outer skb stat: "); SKBStat_dump(&gOuterSKBStat);
     8d9:	c7 04 24 f9 03 00 00 	movl   $0x3f9,(%esp,1)
     8e0:	e8 fc ff ff ff       	call   8e1 <dump_global_stats+0x2eb>
     8e5:	c7 04 24 00 00 00 00 	movl   $0x0,(%esp,1)
     8ec:	e8 fc ff ff ff       	call   8ed <dump_global_stats+0x2f7>
	printk("NoData skb stat: "); SKBStat_dump(&gNoDataSKBStat);
     8f1:	c7 04 24 0a 04 00 00 	movl   $0x40a,(%esp,1)
     8f8:	e8 fc ff ff ff       	call   8f9 <dump_global_stats+0x303>
     8fd:	c7 04 24 00 00 00 00 	movl   $0x0,(%esp,1)
     904:	e8 fc ff ff ff       	call   905 <dump_global_stats+0x30f>
	printk("Received skb stat: "); SKBStat_dump(&gReceivedSKBStat);
     909:	c7 04 24 1c 04 00 00 	movl   $0x41c,(%esp,1)
     910:	e8 fc ff ff ff       	call   911 <dump_global_stats+0x31b>
     915:	c7 04 24 00 00 00 00 	movl   $0x0,(%esp,1)
     91c:	e8 fc ff ff ff       	call   91d <dump_global_stats+0x327>
	printk("Num received bytes: %d\n", gNumReceivedBytes);
     921:	a1 00 00 00 00       	mov    0x0,%eax
     926:	89 44 24 04          	mov    %eax,0x4(%esp,1)
     92a:	c7 04 24 30 04 00 00 	movl   $0x430,(%esp,1)
     931:	e8 fc ff ff ff       	call   932 <dump_global_stats+0x33c>
	printk("Num uncopied bytes: %d\n", gNumUncopiedBytes);
     936:	a1 00 00 00 00       	mov    0x0,%eax
     93b:	89 44 24 04          	mov    %eax,0x4(%esp,1)
     93f:	c7 04 24 48 04 00 00 	movl   $0x448,(%esp,1)
     946:	e8 fc ff ff ff       	call   947 <dump_global_stats+0x351>
	//hist_dump(&a_histogram);
	//hist_dump(&d_histogram);
	//hist_dump(&timeout_histogram);

	int i;
	int overlappedTotal = 0;
     94b:	c7 45 f8 00 00 00 00 	movl   $0x0,0xfffffff8(%ebp)
	for(i=0; i < NUM_OVERLAPPED; i++) {
     952:	c7 45 fc 00 00 00 00 	movl   $0x0,0xfffffffc(%ebp)
     959:	83 7d fc 07          	cmpl   $0x7,0xfffffffc(%ebp)
     95d:	7e 05                	jle    964 <dump_global_stats+0x36e>
     95f:	e9 dc 00 00 00       	jmp    a40 <dump_global_stats+0x44a>
		printk("Overlapped[lineno=%d] = %d / %d = %d\n", gNumOverlapped[i].lineNum,
     964:	8b 55 fc             	mov    0xfffffffc(%ebp),%edx
     967:	89 d0                	mov    %edx,%eax
     969:	01 c0                	add    %eax,%eax
     96b:	01 d0                	add    %edx,%eax
     96d:	c1 e0 02             	shl    $0x2,%eax
     970:	8b 80 00 00 00 00    	mov    0x0(%eax),%eax
     976:	c1 f8 04             	sar    $0x4,%eax
     979:	85 c0                	test   %eax,%eax
     97b:	74 46                	je     9c3 <dump_global_stats+0x3cd>
     97d:	8b 55 fc             	mov    0xfffffffc(%ebp),%edx
     980:	89 d0                	mov    %edx,%eax
     982:	01 c0                	add    %eax,%eax
     984:	01 d0                	add    %edx,%eax
     986:	c1 e0 02             	shl    $0x2,%eax
     989:	8b 80 04 00 00 00    	mov    0x4(%eax),%eax
     98f:	c1 f8 04             	sar    $0x4,%eax
     992:	89 45 e4             	mov    %eax,0xffffffe4(%ebp)
     995:	8b 55 fc             	mov    0xfffffffc(%ebp),%edx
     998:	89 d0                	mov    %edx,%eax
     99a:	01 c0                	add    %eax,%eax
     99c:	01 d0                	add    %edx,%eax
     99e:	c1 e0 02             	shl    $0x2,%eax
     9a1:	8b 80 00 00 00 00    	mov    0x0(%eax),%eax
     9a7:	c1 f8 04             	sar    $0x4,%eax
     9aa:	89 45 d8             	mov    %eax,0xffffffd8(%ebp)
     9ad:	8b 45 e4             	mov    0xffffffe4(%ebp),%eax
     9b0:	ba 00 00 00 00       	mov    $0x0,%edx
     9b5:	f7 75 d8             	divl   0xffffffd8(%ebp)
     9b8:	89 45 d8             	mov    %eax,0xffffffd8(%ebp)
     9bb:	8b 45 d8             	mov    0xffffffd8(%ebp),%eax
     9be:	89 45 e4             	mov    %eax,0xffffffe4(%ebp)
     9c1:	eb 07                	jmp    9ca <dump_global_stats+0x3d4>
     9c3:	c7 45 e4 00 00 00 00 	movl   $0x0,0xffffffe4(%ebp)
     9ca:	8b 45 e4             	mov    0xffffffe4(%ebp),%eax
     9cd:	89 44 24 10          	mov    %eax,0x10(%esp,1)
     9d1:	8b 55 fc             	mov    0xfffffffc(%ebp),%edx
     9d4:	89 d0                	mov    %edx,%eax
     9d6:	01 c0                	add    %eax,%eax
     9d8:	01 d0                	add    %edx,%eax
     9da:	c1 e0 02             	shl    $0x2,%eax
     9dd:	8b 80 00 00 00 00    	mov    0x0(%eax),%eax
     9e3:	89 44 24 0c          	mov    %eax,0xc(%esp,1)
     9e7:	8b 55 fc             	mov    0xfffffffc(%ebp),%edx
     9ea:	89 d0                	mov    %edx,%eax
     9ec:	01 c0                	add    %eax,%eax
     9ee:	01 d0                	add    %edx,%eax
     9f0:	c1 e0 02             	shl    $0x2,%eax
     9f3:	8b 80 04 00 00 00    	mov    0x4(%eax),%eax
     9f9:	89 44 24 08          	mov    %eax,0x8(%esp,1)
     9fd:	8b 55 fc             	mov    0xfffffffc(%ebp),%edx
     a00:	89 d0                	mov    %edx,%eax
     a02:	01 c0                	add    %eax,%eax
     a04:	01 d0                	add    %edx,%eax
     a06:	c1 e0 02             	shl    $0x2,%eax
     a09:	8b 80 08 00 00 00    	mov    0x8(%eax),%eax
     a0f:	89 44 24 04          	mov    %eax,0x4(%esp,1)
     a13:	c7 04 24 60 04 00 00 	movl   $0x460,(%esp,1)
     a1a:	e8 fc ff ff ff       	call   a1b <dump_global_stats+0x425>
		       gNumOverlapped[i].total, gNumOverlapped[i].count,
		       SAFEAVG(gNumOverlapped[i].total, gNumOverlapped[i].count));
		overlappedTotal += gNumOverlapped[i].total;
     a1f:	8b 55 fc             	mov    0xfffffffc(%ebp),%edx
     a22:	89 d0                	mov    %edx,%eax
     a24:	01 c0                	add    %eax,%eax
     a26:	01 d0                	add    %edx,%eax
     a28:	c1 e0 02             	shl    $0x2,%eax
     a2b:	8b 90 04 00 00 00    	mov    0x4(%eax),%edx
     a31:	8d 45 f8             	lea    0xfffffff8(%ebp),%eax
     a34:	01 10                	add    %edx,(%eax)
     a36:	8d 45 fc             	lea    0xfffffffc(%ebp),%eax
     a39:	ff 00                	incl   (%eax)
     a3b:	e9 19 ff ff ff       	jmp    959 <dump_global_stats+0x363>
	}
	printk("Total overlap total = %d\n", overlappedTotal);
     a40:	8b 45 f8             	mov    0xfffffff8(%ebp),%eax
     a43:	89 44 24 04          	mov    %eax,0x4(%esp,1)
     a47:	c7 04 24 86 04 00 00 	movl   $0x486,(%esp,1)
     a4e:	e8 fc ff ff ff       	call   a4f <dump_global_stats+0x459>

	printk("Delay updates: avg=%d (cnt=%d)\n", SAFEAVG(gTotalTimeoutInterval, gTotalTimeoutCount),
     a53:	a1 00 00 00 00       	mov    0x0,%eax
     a58:	89 44 24 08          	mov    %eax,0x8(%esp,1)
     a5c:	a1 00 00 00 00       	mov    0x0,%eax
     a61:	c1 f8 04             	sar    $0x4,%eax
     a64:	85 c0                	test   %eax,%eax
     a66:	74 36                	je     a9e <dump_global_stats+0x4a8>
     a68:	a1 00 00 00 00       	mov    0x0,%eax
     a6d:	8b 15 04 00 00 00    	mov    0x4,%edx
     a73:	0f ac d0 04          	shrd   $0x4,%edx,%eax
     a77:	c1 ea 04             	shr    $0x4,%edx
     a7a:	89 45 e0             	mov    %eax,0xffffffe0(%ebp)
     a7d:	a1 00 00 00 00       	mov    0x0,%eax
     a82:	c1 f8 04             	sar    $0x4,%eax
     a85:	89 45 d8             	mov    %eax,0xffffffd8(%ebp)
     a88:	8b 45 e0             	mov    0xffffffe0(%ebp),%eax
     a8b:	ba 00 00 00 00       	mov    $0x0,%edx
     a90:	f7 75 d8             	divl   0xffffffd8(%ebp)
     a93:	89 45 d8             	mov    %eax,0xffffffd8(%ebp)
     a96:	8b 45 d8             	mov    0xffffffd8(%ebp),%eax
     a99:	89 45 e0             	mov    %eax,0xffffffe0(%ebp)
     a9c:	eb 07                	jmp    aa5 <dump_global_stats+0x4af>
     a9e:	c7 45 e0 00 00 00 00 	movl   $0x0,0xffffffe0(%ebp)
     aa5:	8b 45 e0             	mov    0xffffffe0(%ebp),%eax
     aa8:	89 44 24 04          	mov    %eax,0x4(%esp,1)
     aac:	c7 04 24 a0 04 00 00 	movl   $0x4a0,(%esp,1)
     ab3:	e8 fc ff ff ff       	call   ab4 <dump_global_stats+0x4be>
	       gTotalTimeoutCount);
	printk("NumRecoveryStates = %d\n", gNumRecoveryStates);
     ab8:	a1 00 00 00 00       	mov    0x0,%eax
     abd:	89 44 24 04          	mov    %eax,0x4(%esp,1)
     ac1:	c7 04 24 c0 04 00 00 	movl   $0x4c0,(%esp,1)
     ac8:	e8 fc ff ff ff       	call   ac9 <dump_global_stats+0x4d3>
	printk("NumBootstrapStates = %d\n", gNumBootstrapStates);
     acd:	a1 00 00 00 00       	mov    0x0,%eax
     ad2:	89 44 24 04          	mov    %eax,0x4(%esp,1)
     ad6:	c7 04 24 d8 04 00 00 	movl   $0x4d8,(%esp,1)
     add:	e8 fc ff ff ff       	call   ade <dump_global_stats+0x4e8>
	printk("NumBootstrapResponses = %d\n", gNumBootstrapResponses);
     ae2:	a1 00 00 00 00       	mov    0x0,%eax
     ae7:	89 44 24 04          	mov    %eax,0x4(%esp,1)
     aeb:	c7 04 24 f1 04 00 00 	movl   $0x4f1,(%esp,1)
     af2:	e8 fc ff ff ff       	call   af3 <dump_global_stats+0x4fd>
}
     af7:	c9                   	leave  
     af8:	c3                   	ret    

00000af9 <hmac_setup>:

#define requestReleasedData(X) // XXX Deprecated!

/* Simple random number generator */

static unsigned long rand;

static inline unsigned char random(void) {
  /* See "Numerical Recipes in C", second edition, p. 284 */
  rand = rand * 1664525L + 1013904223L;
  return (unsigned char) (rand >> 24);
}

/*
 * Crypto support
 */

#define generateHMAC_VAL (1)
#define generateNonces_VAL (1)

const int generateHMAC = generateHMAC_VAL;
const int generateNonces = generateNonces_VAL;

// hack to give gcc more information about constants
#define generateHMAC (generateHMAC_VAL)
#define generateNonces (generateNonces_VAL)


// Debugging control
int enableDataRecovery = 1;
int serverDebugLevel = 0;
int debugDrops = 0;
int debugTransitions = 0;

#define PRINT_TRANSITION(SK, S)						\
({ struct sock *_sk = (SK);						\
   struct tcp_opt *_tp = &_sk->tp_pinfo.af_tcp;				\
   printk("%p: %s data rcv_nxt = %d t.rcv_nxt = %d\n", _sk, (S), _tp->rcv_nxt, _tp->t.rcv_nxt); })

int debugProofDrops = 1;
int clientDebugLevel = 0;
//#define SPEW_PARTIAL
int disableSevereErrors = 1;
int printOverlap = 0;
int disableTimeout = 0;

#ifdef OPENSSL_HMAC

void hmac_setup(HMAC_CTX *ctx, char *key, int len) {
     af9:	55                   	push   %ebp
     afa:	89 e5                	mov    %esp,%ebp
     afc:	83 ec 50             	sub    $0x50,%esp
  BUG_TRAP(len <= HMAC_BLOCKSIZE);
     aff:	83 7d 10 40          	cmpl   $0x40,0x10(%ebp)
     b03:	7e 14                	jle    b19 <hmac_setup+0x20>
     b05:	c7 44 24 04 ae 01 00 	movl   $0x1ae,0x4(%esp,1)
     b0c:	00 
     b0d:	c7 04 24 20 05 00 00 	movl   $0x520,(%esp,1)
     b14:	e8 fc ff ff ff       	call   b15 <hmac_setup+0x1c>
  memset(ctx->key, 0, HMAC_BLOCKSIZE);
     b19:	c7 44 24 08 40 00 00 	movl   $0x40,0x8(%esp,1)
     b20:	00 
     b21:	c7 44 24 04 00 00 00 	movl   $0x0,0x4(%esp,1)
     b28:	00 
     b29:	8b 45 08             	mov    0x8(%ebp),%eax
     b2c:	89 04 24             	mov    %eax,(%esp,1)
     b2f:	e8 1d 81 00 00       	call   8c51 <__constant_c_and_count_memset>
  memcpy(ctx->key, key, len);
     b34:	8b 45 10             	mov    0x10(%ebp),%eax
     b37:	89 44 24 08          	mov    %eax,0x8(%esp,1)
     b3b:	8b 45 0c             	mov    0xc(%ebp),%eax
     b3e:	89 44 24 04          	mov    %eax,0x4(%esp,1)
     b42:	8b 45 08             	mov    0x8(%ebp),%eax
     b45:	89 04 24             	mov    %eax,(%esp,1)
     b48:	e8 c5 80 00 00       	call   8c12 <__memcpy>

  int i;
  char pad[HMAC_BLOCKSIZE];

  for (i=0; i<HMAC_BLOCKSIZE; i++)
     b4d:	c7 45 fc 00 00 00 00 	movl   $0x0,0xfffffffc(%ebp)
     b54:	83 7d fc 3f          	cmpl   $0x3f,0xfffffffc(%ebp)
     b58:	7e 02                	jle    b5c <hmac_setup+0x63>
     b5a:	eb 1d                	jmp    b79 <hmac_setup+0x80>
    pad[i]=0x36^ctx->key[i];
     b5c:	8d 45 bc             	lea    0xffffffbc(%ebp),%eax
     b5f:	89 c1                	mov    %eax,%ecx
     b61:	03 4d fc             	add    0xfffffffc(%ebp),%ecx
     b64:	8b 55 08             	mov    0x8(%ebp),%edx
     b67:	8b 45 fc             	mov    0xfffffffc(%ebp),%eax
     b6a:	0f b6 04 10          	movzbl (%eax,%edx,1),%eax
     b6e:	34 36                	xor    $0x36,%al
     b70:	88 01                	mov    %al,(%ecx)
     b72:	8d 45 fc             	lea    0xfffffffc(%ebp),%eax
     b75:	ff 00                	incl   (%eax)
     b77:	eb db                	jmp    b54 <hmac_setup+0x5b>
  DIGEST_Init(&ctx->in_ctx);
     b79:	8b 45 08             	mov    0x8(%ebp),%eax
     b7c:	83 c0 40             	add    $0x40,%eax
     b7f:	89 04 24             	mov    %eax,(%esp,1)
     b82:	e8 fc ff ff ff       	call   b83 <hmac_setup+0x8a>
  DIGEST_Update(&ctx->in_ctx, pad, HMAC_BLOCKSIZE);
     b87:	c7 44 24 08 40 00 00 	movl   $0x40,0x8(%esp,1)
     b8e:	00 
     b8f:	8d 45 bc             	lea    0xffffffbc(%ebp),%eax
     b92:	89 44 24 04          	mov    %eax,0x4(%esp,1)
     b96:	8b 45 08             	mov    0x8(%ebp),%eax
     b99:	83 c0 40             	add    $0x40,%eax
     b9c:	89 04 24             	mov    %eax,(%esp,1)
     b9f:	e8 fc ff ff ff       	call   ba0 <hmac_setup+0xa7>

  for (i=0; i<HMAC_BLOCKSIZE; i++)
     ba4:	c7 45 fc 00 00 00 00 	movl   $0x0,0xfffffffc(%ebp)
     bab:	83 7d fc 3f          	cmpl   $0x3f,0xfffffffc(%ebp)
     baf:	7e 02                	jle    bb3 <hmac_setup+0xba>
     bb1:	eb 1d                	jmp    bd0 <hmac_setup+0xd7>
    pad[i]=0x5c^ctx->key[i];
     bb3:	8d 45 bc             	lea    0xffffffbc(%ebp),%eax
     bb6:	89 c1                	mov    %eax,%ecx
     bb8:	03 4d fc             	add    0xfffffffc(%ebp),%ecx
     bbb:	8b 55 08             	mov    0x8(%ebp),%edx
     bbe:	8b 45 fc             	mov    0xfffffffc(%ebp),%eax
     bc1:	0f b6 04 10          	movzbl (%eax,%edx,1),%eax
     bc5:	34 5c                	xor    $0x5c,%al
     bc7:	88 01                	mov    %al,(%ecx)
     bc9:	8d 45 fc             	lea    0xfffffffc(%ebp),%eax
     bcc:	ff 00                	incl   (%eax)
     bce:	eb db                	jmp    bab <hmac_setup+0xb2>
  DIGEST_Init(&ctx->out_ctx);
     bd0:	8b 45 08             	mov    0x8(%ebp),%eax
     bd3:	05 9c 00 00 00       	add    $0x9c,%eax
     bd8:	89 04 24             	mov    %eax,(%esp,1)
     bdb:	e8 fc ff ff ff       	call   bdc <hmac_setup+0xe3>
  DIGEST_Update(&ctx->out_ctx, pad, HMAC_BLOCKSIZE);
     be0:	c7 44 24 08 40 00 00 	movl   $0x40,0x8(%esp,1)
     be7:	00 
     be8:	8d 45 bc             	lea    0xffffffbc(%ebp),%eax
     beb:	89 44 24 04          	mov    %eax,0x4(%esp,1)
     bef:	8b 45 08             	mov    0x8(%ebp),%eax
     bf2:	05 9c 00 00 00       	add    $0x9c,%eax
     bf7:	89 04 24             	mov    %eax,(%esp,1)
     bfa:	e8 fc ff ff ff       	call   bfb <hmac_setup+0x102>
}
     bff:	c9                   	leave  
     c00:	c3                   	ret    

00000c01 <hmac_init>:

void hmac_init(HMAC_CTX *ctx) {
     c01:	55                   	push   %ebp
     c02:	89 e5                	mov    %esp,%ebp
     c04:	57                   	push   %edi
     c05:	56                   	push   %esi
  ctx->digest_ctx = ctx->in_ctx;
     c06:	8b 45 08             	mov    0x8(%ebp),%eax
     c09:	8b 55 08             	mov    0x8(%ebp),%edx
     c0c:	8d b8 f8 00 00 00    	lea    0xf8(%eax),%edi
     c12:	8d 72 40             	lea    0x40(%edx),%esi
     c15:	b8 5c 00 00 00       	mov    $0x5c,%eax
     c1a:	fc                   	cld    
     c1b:	89 c1                	mov    %eax,%ecx
     c1d:	c1 e9 02             	shr    $0x2,%ecx
     c20:	f3 a5                	repz movsl %ds:(%esi),%es:(%edi)
  ctx->len = 0;
     c22:	8b 45 08             	mov    0x8(%ebp),%eax
     c25:	c7 80 54 01 00 00 00 	movl   $0x0,0x154(%eax)
     c2c:	00 00 00 
}
     c2f:	5e                   	pop    %esi
     c30:	5f                   	pop    %edi
     c31:	5d                   	pop    %ebp
     c32:	c3                   	ret    

00000c33 <hmac_update>:

void hmac_update(HMAC_CTX *ctx, void *data, int len) {
     c33:	55                   	push   %ebp
     c34:	89 e5                	mov    %esp,%ebp
     c36:	83 ec 0c             	sub    $0xc,%esp
  DIGEST_Update(&ctx->digest_ctx, data, len);
     c39:	8b 45 10             	mov    0x10(%ebp),%eax
     c3c:	89 44 24 08          	mov    %eax,0x8(%esp,1)
     c40:	8b 45 0c             	mov    0xc(%ebp),%eax
     c43:	89 44 24 04          	mov    %eax,0x4(%esp,1)
     c47:	8b 45 08             	mov    0x8(%ebp),%eax
     c4a:	05 f8 00 00 00       	add    $0xf8,%eax
     c4f:	89 04 24             	mov    %eax,(%esp,1)
     c52:	e8 fc ff ff ff       	call   c53 <hmac_update+0x20>
  ctx->len += len;
     c57:	8b 4d 08             	mov    0x8(%ebp),%ecx
     c5a:	8b 55 08             	mov    0x8(%ebp),%edx
     c5d:	8b 45 10             	mov    0x10(%ebp),%eax
     c60:	03 82 54 01 00 00    	add    0x154(%edx),%eax
     c66:	89 81 54 01 00 00    	mov    %eax,0x154(%ecx)
  //printk("hmac'ed %d\n", len);
}
     c6c:	c9                   	leave  
     c6d:	c3                   	ret    

00000c6e <hmac_final>:

void hmac_final(HMAC_CTX *ctx, char *output) {
     c6e:	55                   	push   %ebp
     c6f:	89 e5                	mov    %esp,%ebp
     c71:	57                   	push   %edi
     c72:	56                   	push   %esi
     c73:	83 ec 4c             	sub    $0x4c,%esp
  char buf[HMAC_BLOCKSIZE];
  DIGEST_Final(buf, &ctx->digest_ctx);
     c76:	8b 45 08             	mov    0x8(%ebp),%eax
     c79:	05 f8 00 00 00       	add    $0xf8,%eax
     c7e:	89 44 24 04          	mov    %eax,0x4(%esp,1)
     c82:	8d 45 b8             	lea    0xffffffb8(%ebp),%eax
     c85:	89 04 24             	mov    %eax,(%esp,1)
     c88:	e8 fc ff ff ff       	call   c89 <hmac_final+0x1b>
  ctx->digest_ctx = ctx->out_ctx;
     c8d:	8b 45 08             	mov    0x8(%ebp),%eax
     c90:	8b 55 08             	mov    0x8(%ebp),%edx
     c93:	8d b8 f8 00 00 00    	lea    0xf8(%eax),%edi
     c99:	8d b2 9c 00 00 00    	lea    0x9c(%edx),%esi
     c9f:	b8 5c 00 00 00       	mov    $0x5c,%eax
     ca4:	fc                   	cld    
     ca5:	89 c1                	mov    %eax,%ecx
     ca7:	c1 e9 02             	shr    $0x2,%ecx
     caa:	f3 a5                	repz movsl %ds:(%esi),%es:(%edi)
  DIGEST_Update(&ctx->digest_ctx, buf, HMACLEN);
     cac:	c7 44 24 08 10 00 00 	movl   $0x10,0x8(%esp,1)
     cb3:	00 
     cb4:	8d 45 b8             	lea    0xffffffb8(%ebp),%eax
     cb7:	89 44 24 04          	mov    %eax,0x4(%esp,1)
     cbb:	8b 45 08             	mov    0x8(%ebp),%eax
     cbe:	05 f8 00 00 00       	add    $0xf8,%eax
     cc3:	89 04 24             	mov    %eax,(%esp,1)
     cc6:	e8 fc ff ff ff       	call   cc7 <hmac_final+0x59>
  DIGEST_Final(output, &ctx->digest_ctx);
     ccb:	8b 45 08             	mov    0x8(%ebp),%eax
     cce:	05 f8 00 00 00       	add    $0xf8,%eax
     cd3:	89 44 24 04          	mov    %eax,0x4(%esp,1)
     cd7:	8b 45 0c             	mov    0xc(%ebp),%eax
     cda:	89 04 24             	mov    %eax,(%esp,1)
     cdd:	e8 fc ff ff ff       	call   cde <hmac_final+0x70>
}
     ce2:	83 c4 4c             	add    $0x4c,%esp
     ce5:	5e                   	pop    %esi
     ce6:	5f                   	pop    %edi
     ce7:	5d                   	pop    %ebp
     ce8:	c3                   	ret    

00000ce9 <computeMAC>:

#endif // OPENSSL_HMAC

/* NONCE uses AES */

void computeMAC(struct sock *sk, PseudoHeader *phdr, const WireContinuation *cont, char *dest) {
     ce9:	55                   	push   %ebp
     cea:	89 e5                	mov    %esp,%ebp
     cec:	83 ec 14             	sub    $0x14,%esp
	struct tcp_opt *tp = &(sk->tp_pinfo.af_tcp);
     cef:	8b 45 08             	mov    0x8(%ebp),%eax
     cf2:	05 bc 00 00 00       	add    $0xbc,%eax
     cf7:	89 45 fc             	mov    %eax,0xfffffffc(%ebp)
	if(generateHMAC) {
#ifdef OPENSSL_HMAC
		HMAC_CTX *ctx = tp->t.hmacCTX;
     cfa:	8b 45 fc             	mov    0xfffffffc(%ebp),%eax
     cfd:	8b 80 28 0a 00 00    	mov    0xa28(%eax),%eax
     d03:	89 45 f8             	mov    %eax,0xfffffff8(%ebp)
#ifdef DISABLE_SADDR_HMAC
		phdr->serverAddr = 0;
     d06:	8b 45 0c             	mov    0xc(%ebp),%eax
     d09:	c7 40 06 00 00 00 00 	movl   $0x0,0x6(%eax)
#endif
		hmac_init(ctx);
     d10:	8b 45 f8             	mov    0xfffffff8(%ebp),%eax
     d13:	89 04 24             	mov    %eax,(%esp,1)
     d16:	e8 fc ff ff ff       	call   d17 <computeMAC+0x2e>
		hmac_update(ctx, (char*)phdr, HMAC_PHEADER_LEN);
     d1b:	c7 44 24 08 12 00 00 	movl   $0x12,0x8(%esp,1)
     d22:	00 
     d23:	8b 45 0c             	mov    0xc(%ebp),%eax
     d26:	89 44 24 04          	mov    %eax,0x4(%esp,1)
     d2a:	8b 45 f8             	mov    0xfffffff8(%ebp),%eax
     d2d:	89 04 24             	mov    %eax,(%esp,1)
     d30:	e8 fc ff ff ff       	call   d31 <computeMAC+0x48>
		hmac_update(ctx, (char*)cont->hmac_start, WIRECONT_MAC_LEN);
     d35:	c7 44 24 08 25 00 00 	movl   $0x25,0x8(%esp,1)
     d3c:	00 
     d3d:	8b 45 10             	mov    0x10(%ebp),%eax
     d40:	83 c0 25             	add    $0x25,%eax
     d43:	89 44 24 04          	mov    %eax,0x4(%esp,1)
     d47:	8b 45 f8             	mov    0xfffffff8(%ebp),%eax
     d4a:	89 04 24             	mov    %eax,(%esp,1)
     d4d:	e8 fc ff ff ff       	call   d4e <computeMAC+0x65>
		hmac_final(ctx, dest);
     d52:	8b 45 14             	mov    0x14(%ebp),%eax
     d55:	89 44 24 04          	mov    %eax,0x4(%esp,1)
     d59:	8b 45 f8             	mov    0xfffffff8(%ebp),%eax
     d5c:	89 04 24             	mov    %eax,(%esp,1)
     d5f:	e8 fc ff ff ff       	call   d60 <computeMAC+0x77>
#if 0
		printk("Hmac input\n");
		int position = hexdump((char*)phdr, HMAC_PHEADER_LEN);
		hexdump_helper((char*)cont->hmac_start,
			       WIRECONT_MAC_LEN, position);
		printk("\n");
		printk("Hmac output\n");
		hexdump((char*)dest, HMACLEN);
		printk("\n");
#endif
#else
#error "not implemented"
		// improve parallelism by making local copy
		hmac_sha(tp->t.hmacKey, HMACLEN,
			 (char*)cont->hmac_start - HMAC_PHEADER_LEN, WIRECONT_MAC_LEN,
			 dest, HMACLEN);
#endif
	} else {
		memset(dest, 0, HMACLEN);
	}
}
     d64:	c9                   	leave  
     d65:	c3                   	ret    

00000d66 <generateRangeNonce>:
#define NUM_NONCES_PER_BLOCK (NONCE_BLOCKSIZE / sizeof(__u32))

static inline
__u32 generateCryptoRangeNonceHelper(aes_encrypt_ctx *ctx, __u64 seqNumLeft, __u64 seqNumRight) {
	int i;
	__u64 nums[2] = {seqNumLeft, seqNumRight+1};
	__u64 oldNum = -1;
	__u32 nonce = 0;
	char nonce_out[NONCE_BLOCKSIZE];

	for(i=0; i < 2; i++) {
		__u64 number = nums[i] / NUM_NONCES_PER_BLOCK;
		int offset = nums[i] % NUM_NONCES_PER_BLOCK;
		char nonce_in[NONCE_BLOCKSIZE];
		if(i > 0 && oldNum == number) {
			goto skip_generation;
		}
		memset(nonce_in, 0, NONCE_BLOCKSIZE);
		*((__u64*)nonce_in) = number;
		aes_encrypt(nonce_in, nonce_out, ctx);
	skip_generation:
		nonce ^= ((__u32*)nonce_out)[offset];
		oldNum = number;
	}
	return nonce;
}

__u32 generateRangeNonce(struct sock *sk, __u64 seqNumLeft, __u64 seqNumRight) {
     d66:	55                   	push   %ebp
     d67:	89 e5                	mov    %esp,%ebp
     d69:	83 ec 4c             	sub    $0x4c,%esp
     d6c:	8b 45 0c             	mov    0xc(%ebp),%eax
     d6f:	8b 55 10             	mov    0x10(%ebp),%edx
     d72:	89 45 f8             	mov    %eax,0xfffffff8(%ebp)
     d75:	89 55 fc             	mov    %edx,0xfffffffc(%ebp)
     d78:	8b 45 14             	mov    0x14(%ebp),%eax
     d7b:	8b 55 18             	mov    0x18(%ebp),%edx
     d7e:	89 45 f0             	mov    %eax,0xfffffff0(%ebp)
     d81:	89 55 f4             	mov    %edx,0xfffffff4(%ebp)
	if(SIMULATION_MODE(sk)) {
     d84:	8b 45 08             	mov    0x8(%ebp),%eax
     d87:	8b 80 a8 02 00 00    	mov    0x2a8(%eax),%eax
     d8d:	83 e0 01             	and    $0x1,%eax
     d90:	85 c0                	test   %eax,%eax
     d92:	74 56                	je     dea <generateRangeNonce+0x84>
     d94:	8b 55 08             	mov    0x8(%ebp),%edx
     d97:	8b 45 08             	mov    0x8(%ebp),%eax
     d9a:	8b 80 a8 02 00 00    	mov    0x2a8(%eax),%eax
     da0:	23 82 a8 02 00 00    	and    0x2a8(%edx),%eax
     da6:	83 e0 08             	and    $0x8,%eax
     da9:	85 c0                	test   %eax,%eax
     dab:	75 3d                	jne    dea <generateRangeNonce+0x84>
		BUG_TRAP(!SIMULATION_MODE(sk));
     dad:	8b 45 08             	mov    0x8(%ebp),%eax
     db0:	8b 80 a8 02 00 00    	mov    0x2a8(%eax),%eax
     db6:	83 e0 01             	and    $0x1,%eax
     db9:	85 c0                	test   %eax,%eax
     dbb:	74 2d                	je     dea <generateRangeNonce+0x84>
     dbd:	8b 55 08             	mov    0x8(%ebp),%edx
     dc0:	8b 45 08             	mov    0x8(%ebp),%eax
     dc3:	8b 80 a8 02 00 00    	mov    0x2a8(%eax),%eax
     dc9:	23 82 a8 02 00 00    	and    0x2a8(%edx),%eax
     dcf:	83 e0 08             	and    $0x8,%eax
     dd2:	85 c0                	test   %eax,%eax
     dd4:	75 14                	jne    dea <generateRangeNonce+0x84>
     dd6:	c7 44 24 04 15 02 00 	movl   $0x215,0x4(%esp,1)
     ddd:	00 
     dde:	c7 04 24 80 05 00 00 	movl   $0x580,(%esp,1)
     de5:	e8 fc ff ff ff       	call   de6 <generateRangeNonce+0x80>
	}
	struct tcp_opt *tp = &(sk->tp_pinfo.af_tcp);
     dea:	8b 45 08             	mov    0x8(%ebp),%eax
     ded:	05 bc 00 00 00       	add    $0xbc,%eax
     df2:	89 45 ec             	mov    %eax,0xffffffec(%ebp)
	int myGenerateNonces = generateNonces && !SIMULATION_MODE(sk);
     df5:	c7 45 c8 00 00 00 00 	movl   $0x0,0xffffffc8(%ebp)
     dfc:	8b 45 08             	mov    0x8(%ebp),%eax
     dff:	8b 80 a8 02 00 00    	mov    0x2a8(%eax),%eax
     e05:	83 e0 01             	and    $0x1,%eax
     e08:	85 c0                	test   %eax,%eax
     e0a:	74 1b                	je     e27 <generateRangeNonce+0xc1>
     e0c:	8b 55 08             	mov    0x8(%ebp),%edx
     e0f:	8b 45 08             	mov    0x8(%ebp),%eax
     e12:	8b 80 a8 02 00 00    	mov    0x2a8(%eax),%eax
     e18:	23 82 a8 02 00 00    	and    0x2a8(%edx),%eax
     e1e:	83 e0 08             	and    $0x8,%eax
     e21:	85 c0                	test   %eax,%eax
     e23:	75 02                	jne    e27 <generateRangeNonce+0xc1>
     e25:	eb 07                	jmp    e2e <generateRangeNonce+0xc8>
     e27:	c7 45 c8 01 00 00 00 	movl   $0x1,0xffffffc8(%ebp)
     e2e:	8b 45 c8             	mov    0xffffffc8(%ebp),%eax
     e31:	89 45 e8             	mov    %eax,0xffffffe8(%ebp)
	if(myGenerateNonces) {
     e34:	83 7d e8 00          	cmpl   $0x0,0xffffffe8(%ebp)
     e38:	74 32                	je     e6c <generateRangeNonce+0x106>
		return generateCryptoRangeNonceHelper(tp->t.nonceCTX, seqNumLeft, seqNumRight);
     e3a:	8b 45 f0             	mov    0xfffffff0(%ebp),%eax
     e3d:	8b 55 f4             	mov    0xfffffff4(%ebp),%edx
     e40:	89 44 24 0c          	mov    %eax,0xc(%esp,1)
     e44:	89 54 24 10          	mov    %edx,0x10(%esp,1)
     e48:	8b 45 f8             	mov    0xfffffff8(%ebp),%eax
     e4b:	8b 55 fc             	mov    0xfffffffc(%ebp),%edx
     e4e:	89 44 24 04          	mov    %eax,0x4(%esp,1)
     e52:	89 54 24 08          	mov    %edx,0x8(%esp,1)
     e56:	8b 45 ec             	mov    0xffffffec(%ebp),%eax
     e59:	8b 80 3c 0a 00 00    	mov    0xa3c(%eax),%eax
     e5f:	89 04 24             	mov    %eax,(%esp,1)
     e62:	e8 ea 9d 00 00       	call   ac51 <generateCryptoRangeNonceHelper>
     e67:	89 45 cc             	mov    %eax,0xffffffcc(%ebp)
     e6a:	eb 4d                	jmp    eb9 <generateRangeNonce+0x153>
	} else {
		int i;
		__u64 nums[2] = {seqNumLeft, seqNumRight+1};
     e6c:	8b 45 f8             	mov    0xfffffff8(%ebp),%eax
     e6f:	8b 55 fc             	mov    0xfffffffc(%ebp),%edx
     e72:	89 45 d4             	mov    %eax,0xffffffd4(%ebp)
     e75:	89 55 d8             	mov    %edx,0xffffffd8(%ebp)
     e78:	8b 45 f0             	mov    0xfffffff0(%ebp),%eax
     e7b:	8b 55 f4             	mov    0xfffffff4(%ebp),%edx
     e7e:	83 c0 01             	add    $0x1,%eax
     e81:	83 d2 00             	adc    $0x0,%edx
     e84:	89 45 dc             	mov    %eax,0xffffffdc(%ebp)
     e87:	89 55 e0             	mov    %edx,0xffffffe0(%ebp)
		__u32 nonce = 0;
     e8a:	c7 45 d0 00 00 00 00 	movl   $0x0,0xffffffd0(%ebp)
		for(i=0; i < 2; i++) {
     e91:	c7 45 e4 00 00 00 00 	movl   $0x0,0xffffffe4(%ebp)
     e98:	83 7d e4 01          	cmpl   $0x1,0xffffffe4(%ebp)
     e9c:	7e 02                	jle    ea0 <generateRangeNonce+0x13a>
     e9e:	eb 13                	jmp    eb3 <generateRangeNonce+0x14d>
			nonce ^= nums[i];
     ea0:	8b 45 e4             	mov    0xffffffe4(%ebp),%eax
     ea3:	8b 54 c5 d4          	mov    0xffffffd4(%ebp,%eax,8),%edx
     ea7:	8d 45 d0             	lea    0xffffffd0(%ebp),%eax
     eaa:	31 10                	xor    %edx,(%eax)
     eac:	8d 45 e4             	lea    0xffffffe4(%ebp),%eax
     eaf:	ff 00                	incl   (%eax)
     eb1:	eb e5                	jmp    e98 <generateRangeNonce+0x132>
		}
		return nonce;
     eb3:	8b 45 d0             	mov    0xffffffd0(%ebp),%eax
     eb6:	89 45 cc             	mov    %eax,0xffffffcc(%ebp)
	}
}
     eb9:	8b 45 cc             	mov    0xffffffcc(%ebp),%eax
     ebc:	c9                   	leave  
     ebd:	c3                   	ret    

00000ebe <generateSingleNonce>:

static inline
__u32 generateCryptoSingleNonceHelper(aes_encrypt_ctx *ctx, __u64 seqNum, struct NonceCtx *prevCtx) {
	__u64 number = seqNum / NUM_NONCES_PER_BLOCK;
	int offset = seqNum % NUM_NONCES_PER_BLOCK;
	char nonce_in[NONCE_BLOCKSIZE];
	char nonce_out_data[NONCE_BLOCKSIZE], *nonce_out = nonce_out_data;
	memset(nonce_in, 0, NONCE_BLOCKSIZE);
	__u32 nonce;

	if(prevCtx) {
		nonce_out = prevCtx->prevBlock;
		if(prevCtx->new) {
			prevCtx->prevNumber = number;
			prevCtx->new = 0;
		} else if(prevCtx->prevNumber == number) {
			goto skipGeneration;
		} else {
			prevCtx->prevNumber = number;
		}
	}
	*((__u64*)nonce_in) = number;

	aes_encrypt(nonce_in, nonce_out, ctx);
 skipGeneration:
	nonce = ((__u32*)nonce_out)[offset];
	if(offset == NUM_NONCES_PER_BLOCK-1) {
		number += 1;
		*((__u64*)nonce_in) = number;
		aes_encrypt(nonce_in, nonce_out, ctx);
		nonce ^= ((__u32*)nonce_out)[0];
		if(prevCtx) {
			prevCtx->prevNumber = number;
		}
	} else {
		nonce ^= ((__u32*)nonce_out)[offset + 1];
	}
	return nonce;
}

__u32 generateSingleNonce(struct sock *sk, __u64 seqNum, struct NonceCtx *prevCtx) {
     ebe:	55                   	push   %ebp
     ebf:	89 e5                	mov    %esp,%ebp
     ec1:	83 ec 28             	sub    $0x28,%esp
     ec4:	8b 45 0c             	mov    0xc(%ebp),%eax
     ec7:	8b 55 10             	mov    0x10(%ebp),%edx
     eca:	89 45 f8             	mov    %eax,0xfffffff8(%ebp)
     ecd:	89 55 fc             	mov    %edx,0xfffffffc(%ebp)
	BUG_TRAP(!SIMULATION_MODE(sk));
     ed0:	8b 45 08             	mov    0x8(%ebp),%eax
     ed3:	8b 80 a8 02 00 00    	mov    0x2a8(%eax),%eax
     ed9:	83 e0 01             	and    $0x1,%eax
     edc:	85 c0                	test   %eax,%eax
     ede:	74 2d                	je     f0d <generateSingleNonce+0x4f>
     ee0:	8b 55 08             	mov    0x8(%ebp),%edx
     ee3:	8b 45 08             	mov    0x8(%ebp),%eax
     ee6:	8b 80 a8 02 00 00    	mov    0x2a8(%eax),%eax
     eec:	23 82 a8 02 00 00    	and    0x2a8(%edx),%eax
     ef2:	83 e0 08             	and    $0x8,%eax
     ef5:	85 c0                	test   %eax,%eax
     ef7:	75 14                	jne    f0d <generateSingleNonce+0x4f>
     ef9:	c7 44 24 04 4e 02 00 	movl   $0x24e,0x4(%esp,1)
     f00:	00 
     f01:	c7 04 24 80 05 00 00 	movl   $0x580,(%esp,1)
     f08:	e8 fc ff ff ff       	call   f09 <generateSingleNonce+0x4b>
	struct tcp_opt *tp = &(sk->tp_pinfo.af_tcp);
     f0d:	8b 45 08             	mov    0x8(%ebp),%eax
     f10:	05 bc 00 00 00       	add    $0xbc,%eax
     f15:	89 45 f4             	mov    %eax,0xfffffff4(%ebp)
	int myGenerateNonces = generateNonces && !SIMULATION_MODE(sk);
     f18:	c7 45 e8 00 00 00 00 	movl   $0x0,0xffffffe8(%ebp)
     f1f:	8b 45 08             	mov    0x8(%ebp),%eax
     f22:	8b 80 a8 02 00 00    	mov    0x2a8(%eax),%eax
     f28:	83 e0 01             	and    $0x1,%eax
     f2b:	85 c0                	test   %eax,%eax
     f2d:	74 1b                	je     f4a <generateSingleNonce+0x8c>
     f2f:	8b 55 08             	mov    0x8(%ebp),%edx
     f32:	8b 45 08             	mov    0x8(%ebp),%eax
     f35:	8b 80 a8 02 00 00    	mov    0x2a8(%eax),%eax
     f3b:	23 82 a8 02 00 00    	and    0x2a8(%edx),%eax
     f41:	83 e0 08             	and    $0x8,%eax
     f44:	85 c0                	test   %eax,%eax
     f46:	75 02                	jne    f4a <generateSingleNonce+0x8c>
     f48:	eb 07                	jmp    f51 <generateSingleNonce+0x93>
     f4a:	c7 45 e8 01 00 00 00 	movl   $0x1,0xffffffe8(%ebp)
     f51:	8b 45 e8             	mov    0xffffffe8(%ebp),%eax
     f54:	89 45 f0             	mov    %eax,0xfffffff0(%ebp)

	if(myGenerateNonces) {
     f57:	83 7d f0 00          	cmpl   $0x0,0xfffffff0(%ebp)
     f5b:	74 2b                	je     f88 <generateSingleNonce+0xca>
		return generateCryptoSingleNonceHelper(tp->t.nonceCTX, seqNum, prevCtx);
     f5d:	8b 45 14             	mov    0x14(%ebp),%eax
     f60:	89 44 24 0c          	mov    %eax,0xc(%esp,1)
     f64:	8b 45 f8             	mov    0xfffffff8(%ebp),%eax
     f67:	8b 55 fc             	mov    0xfffffffc(%ebp),%edx
     f6a:	89 44 24 04          	mov    %eax,0x4(%esp,1)
     f6e:	89 54 24 08          	mov    %edx,0x8(%esp,1)
     f72:	8b 45 f4             	mov    0xfffffff4(%ebp),%eax
     f75:	8b 80 3c 0a 00 00    	mov    0xa3c(%eax),%eax
     f7b:	89 04 24             	mov    %eax,(%esp,1)
     f7e:	e8 e9 9d 00 00       	call   ad6c <generateCryptoSingleNonceHelper>
     f83:	89 45 ec             	mov    %eax,0xffffffec(%ebp)
     f86:	eb 0c                	jmp    f94 <generateSingleNonce+0xd6>
	} else {
		return seqNum ^ (seqNum+1);
     f88:	8b 45 f8             	mov    0xfffffff8(%ebp),%eax
     f8b:	8b 55 f8             	mov    0xfffffff8(%ebp),%edx
     f8e:	42                   	inc    %edx
     f8f:	31 d0                	xor    %edx,%eax
     f91:	89 45 ec             	mov    %eax,0xffffffec(%ebp)
	}
}
     f94:	8b 45 ec             	mov    0xffffffec(%ebp),%eax
     f97:	c9                   	leave  
     f98:	c3                   	ret    

00000f99 <__tcp_checksum_complete_user>:

#ifndef USERTEST

/* begin functions copied from tcp_input.c */
static int __tcp_checksum_complete_user(struct sock *sk, struct sk_buff *skb)
{
     f99:	55                   	push   %ebp
     f9a:	89 e5                	mov    %esp,%ebp
     f9c:	83 ec 20             	sub    $0x20,%esp
        int result;

	if(skb->ip_summed == CHECKSUM_HW) {
     f9f:	8b 45 0c             	mov    0xc(%ebp),%eax
     fa2:	80 b8 a3 00 00 00 01 	cmpb   $0x1,0xa3(%eax)
     fa9:	75 6f                	jne    101a <__tcp_checksum_complete_user+0x81>
		skb->ip_summed = CHECKSUM_UNNECESSARY;
     fab:	8b 45 0c             	mov    0xc(%ebp),%eax
     fae:	c6 80 a3 00 00 00 02 	movb   $0x2,0xa3(%eax)
		if(!tcp_v4_check(skb->h.th, skb->len, skb->nh.iph->saddr, skb->nh.iph->daddr,
     fb5:	8b 45 0c             	mov    0xc(%ebp),%eax
     fb8:	8b 80 9c 00 00 00    	mov    0x9c(%eax),%eax
     fbe:	89 44 24 10          	mov    %eax,0x10(%esp,1)
     fc2:	8b 45 0c             	mov    0xc(%ebp),%eax
     fc5:	8b 40 24             	mov    0x24(%eax),%eax
     fc8:	8b 40 10             	mov    0x10(%eax),%eax
     fcb:	89 44 24 0c          	mov    %eax,0xc(%esp,1)
     fcf:	8b 45 0c             	mov    0xc(%ebp),%eax
     fd2:	8b 40 24             	mov    0x24(%eax),%eax
     fd5:	8b 40 0c             	mov    0xc(%eax),%eax
     fd8:	89 44 24 08          	mov    %eax,0x8(%esp,1)
     fdc:	8b 45 0c             	mov    0xc(%ebp),%eax
     fdf:	8b 80 94 00 00 00    	mov    0x94(%eax),%eax
     fe5:	89 44 24 04          	mov    %eax,0x4(%esp,1)
     fe9:	8b 45 0c             	mov    0xc(%ebp),%eax
     fec:	8b 40 20             	mov    0x20(%eax),%eax
     fef:	89 04 24             	mov    %eax,(%esp,1)
     ff2:	e8 48 84 00 00       	call   943f <tcp_v4_check>
     ff7:	66 85 c0             	test   %ax,%ax
     ffa:	75 09                	jne    1005 <__tcp_checksum_complete_user+0x6c>
				 skb->csum))
			return 0;
     ffc:	c7 45 f4 00 00 00 00 	movl   $0x0,0xfffffff4(%ebp)
    1003:	eb 66                	jmp    106b <__tcp_checksum_complete_user+0xd2>
		printk("hw tcp checksum failed\n");
    1005:	c7 04 24 c3 05 00 00 	movl   $0x5c3,(%esp,1)
    100c:	e8 fc ff ff ff       	call   100d <__tcp_checksum_complete_user+0x74>
		return -1;
    1011:	c7 45 f4 ff ff ff ff 	movl   $0xffffffff,0xfffffff4(%ebp)
    1018:	eb 51                	jmp    106b <__tcp_checksum_complete_user+0xd2>
	}
        if (sk->lock.users) {
    101a:	8b 45 08             	mov    0x8(%ebp),%eax
    101d:	83 78 2c 00          	cmpl   $0x0,0x2c(%eax)
    1021:	74 34                	je     1057 <__tcp_checksum_complete_user+0xbe>
                local_bh_enable();
    1023:	c7 45 f8 08 00 00 00 	movl   $0x8,0xfffffff8(%ebp)
    102a:	8b 45 f8             	mov    0xfffffff8(%ebp),%eax
    102d:	ff 08                	decl   (%eax)
    102f:	83 38 00             	cmpl   $0x0,(%eax)
    1032:	75 0d                	jne    1041 <__tcp_checksum_complete_user+0xa8>
    1034:	8b 45 f8             	mov    0xfffffff8(%ebp),%eax
    1037:	83 78 f8 00          	cmpl   $0x0,0xfffffff8(%eax)
    103b:	0f 85 11 b6 00 00    	jne    c652 <.text.lock.tmalloc>
                result = __tcp_checksum_complete(skb);
    1041:	8b 45 0c             	mov    0xc(%ebp),%eax
    1044:	89 04 24             	mov    %eax,(%esp,1)
    1047:	e8 27 84 00 00       	call   9473 <__tcp_checksum_complete>
    104c:	89 45 fc             	mov    %eax,0xfffffffc(%ebp)
                local_bh_disable();
    104f:	ff 05 08 00 00 00    	incl   0x8
    1055:	eb 0e                	jmp    1065 <__tcp_checksum_complete_user+0xcc>
        } else {
                result = __tcp_checksum_complete(skb);
    1057:	8b 45 0c             	mov    0xc(%ebp),%eax
    105a:	89 04 24             	mov    %eax,(%esp,1)
    105d:	e8 11 84 00 00       	call   9473 <__tcp_checksum_complete>
    1062:	89 45 fc             	mov    %eax,0xfffffffc(%ebp)
        }
        return result;
    1065:	8b 45 fc             	mov    0xfffffffc(%ebp),%eax
    1068:	89 45 f4             	mov    %eax,0xfffffff4(%ebp)
}
    106b:	8b 45 f4             	mov    0xfffffff4(%ebp),%eax
    106e:	c9                   	leave  
    106f:	c3                   	ret    

00001070 <update_rx_stats_helper>:

static __inline__ int
tcp_checksum_complete_user(struct sock *sk, struct sk_buff *skb)
{
	csum_complete_user_count++;
        return skb->ip_summed != CHECKSUM_UNNECESSARY &&
                __tcp_checksum_complete_user(sk, skb);
}

/* end functions copied from tcp_input.c */

#define update_rx_stats(IN_SKB) update_rx_stats_helper((IN_SKB), 0)
static void update_rx_stats_helper(struct sk_buff *in_skb, int print) {
    1070:	55                   	push   %ebp
    1071:	89 e5                	mov    %esp,%ebp
    1073:	83 ec 14             	sub    $0x14,%esp
	numRxPackets++;
    1076:	83 05 00 00 00 00 01 	addl   $0x1,0x0
    107d:	83 15 04 00 00 00 00 	adcl   $0x0,0x4
#if 0
	numRxBytes += in_skb->h.th->doff * 4 + in_skb->len;
#else
	numRxBytes += in_skb->len - TCP_SKB_CB(in_skb)->numDataChunks * sizeof(struct DataChunk);
    1084:	8b 4d 08             	mov    0x8(%ebp),%ecx
    1087:	8b 45 08             	mov    0x8(%ebp),%eax
    108a:	83 c0 30             	add    $0x30,%eax
    108d:	8b 50 34             	mov    0x34(%eax),%edx
    1090:	89 d0                	mov    %edx,%eax
    1092:	c1 e0 02             	shl    $0x2,%eax
    1095:	01 d0                	add    %edx,%eax
    1097:	01 c0                	add    %eax,%eax
    1099:	01 d0                	add    %edx,%eax
    109b:	8b 91 94 00 00 00    	mov    0x94(%ecx),%edx
    10a1:	29 c2                	sub    %eax,%edx
    10a3:	89 d0                	mov    %edx,%eax
    10a5:	ba 00 00 00 00       	mov    $0x0,%edx
    10aa:	01 05 00 00 00 00    	add    %eax,0x0
    10b0:	11 15 04 00 00 00    	adc    %edx,0x4
	int overhead = TCP_SKB_CB(in_skb)->numDataChunks * sizeof(struct DataChunk) + in_skb->data - in_skb->head;
    10b6:	8b 4d 08             	mov    0x8(%ebp),%ecx
    10b9:	8b 45 08             	mov    0x8(%ebp),%eax
    10bc:	83 c0 30             	add    $0x30,%eax
    10bf:	8b 50 34             	mov    0x34(%eax),%edx
    10c2:	89 d0                	mov    %edx,%eax
    10c4:	c1 e0 02             	shl    $0x2,%eax
    10c7:	01 d0                	add    %edx,%eax
    10c9:	01 c0                	add    %eax,%eax
    10cb:	01 d0                	add    %edx,%eax
    10cd:	89 c2                	mov    %eax,%edx
    10cf:	03 91 b8 00 00 00    	add    0xb8(%ecx),%edx
    10d5:	8b 45 08             	mov    0x8(%ebp),%eax
    10d8:	2b 90 b4 00 00 00    	sub    0xb4(%eax),%edx
    10de:	89 d0                	mov    %edx,%eax
    10e0:	89 45 fc             	mov    %eax,0xfffffffc(%ebp)
	if(0 || print) {
    10e3:	83 7d 0c 00          	cmpl   $0x0,0xc(%ebp)
    10e7:	74 2d                	je     1116 <update_rx_stats_helper+0xa6>
		printk("len = %d overhead = %d (%d)\n", in_skb->len, overhead, TCP_SKB_CB(in_skb)->numDataChunks);
    10e9:	8b 45 08             	mov    0x8(%ebp),%eax
    10ec:	83 c0 30             	add    $0x30,%eax
    10ef:	8b 40 34             	mov    0x34(%eax),%eax
    10f2:	89 44 24 0c          	mov    %eax,0xc(%esp,1)
    10f6:	8b 45 fc             	mov    0xfffffffc(%ebp),%eax
    10f9:	89 44 24 08          	mov    %eax,0x8(%esp,1)
    10fd:	8b 45 08             	mov    0x8(%ebp),%eax
    1100:	8b 80 94 00 00 00    	mov    0x94(%eax),%eax
    1106:	89 44 24 04          	mov    %eax,0x4(%esp,1)
    110a:	c7 04 24 db 05 00 00 	movl   $0x5db,(%esp,1)
    1111:	e8 fc ff ff ff       	call   1112 <update_rx_stats_helper+0xa2>
	}
	numRxOverhead += overhead;
    1116:	8b 45 fc             	mov    0xfffffffc(%ebp),%eax
    1119:	99                   	cltd   
    111a:	01 05 00 00 00 00    	add    %eax,0x0
    1120:	11 15 04 00 00 00    	adc    %edx,0x4
#endif
}
    1126:	c9                   	leave  
    1127:	c3                   	ret    

00001128 <trickles_rcv_impl>:

static inline void trickles_init_tcp_cb(struct sk_buff *skb) {
	TCP_SKB_CB(skb)->cont = NULL;
	TCP_SKB_CB(skb)->numDataChunks = 0;
	TCP_SKB_CB(skb)->chunksOverflow = NULL;
	TCP_SKB_CB(skb)->seq = -1;
	TCP_SKB_CB(skb)->end_seq = -1;
}

static int trickles_rcv_impl(struct sock *sk, struct sk_buff *in_skb) {
    1128:	55                   	push   %ebp
    1129:	89 e5                	mov    %esp,%ebp
    112b:	83 ec 18             	sub    $0x18,%esp
	static int count = 0;
	//printk("TricklesRcvImpl %d\n", count++);

	struct tcp_opt *tp = &sk->tp_pinfo.af_tcp;
    112e:	8b 45 08             	mov    0x8(%ebp),%eax
    1131:	05 bc 00 00 00       	add    $0xbc,%eax
    1136:	89 45 fc             	mov    %eax,0xfffffffc(%ebp)
	trickles_init_tcp_cb(in_skb);
    1139:	8b 45 0c             	mov    0xc(%ebp),%eax
    113c:	89 04 24             	mov    %eax,(%esp,1)
    113f:	e8 c6 9d 00 00       	call   af0a <trickles_init_tcp_cb>

	if (tcp_checksum_complete_user(sk, in_skb))
    1144:	8b 45 0c             	mov    0xc(%ebp),%eax
    1147:	89 44 24 04          	mov    %eax,0x4(%esp,1)
    114b:	8b 45 08             	mov    0x8(%ebp),%eax
    114e:	89 04 24             	mov    %eax,(%esp,1)
    1151:	e8 73 9d 00 00       	call   aec9 <tcp_checksum_complete_user>
    1156:	85 c0                	test   %eax,%eax
    1158:	74 05                	je     115f <trickles_rcv_impl+0x37>
		goto csum_error;
    115a:	e9 67 02 00 00       	jmp    13c6 <trickles_rcv_impl+0x29e>
	__skb_pull(in_skb, in_skb->h.th->doff * 4);
    115f:	8b 45 0c             	mov    0xc(%ebp),%eax
    1162:	8b 40 20             	mov    0x20(%eax),%eax
    1165:	0f b6 40 0c          	movzbl 0xc(%eax),%eax
    1169:	c0 e8 04             	shr    $0x4,%al
    116c:	66 0f b6 c0          	movzbw %al,%ax
    1170:	0f b7 c0             	movzwl %ax,%eax
    1173:	c1 e0 02             	shl    $0x2,%eax
    1176:	89 44 24 04          	mov    %eax,0x4(%esp,1)
    117a:	8b 45 0c             	mov    0xc(%ebp),%eax
    117d:	89 04 24             	mov    %eax,(%esp,1)
    1180:	e8 e7 7e 00 00       	call   906c <__skb_pull>

	in_skb->ip_summed = CHECKSUM_UNNECESSARY;
    1185:	8b 45 0c             	mov    0xc(%ebp),%eax
    1188:	c6 80 a3 00 00 00 02 	movb   $0x2,0xa3(%eax)
	in_skb->sk = sk;
    118f:	8b 55 0c             	mov    0xc(%ebp),%edx
    1192:	8b 45 08             	mov    0x8(%ebp),%eax
    1195:	89 42 0c             	mov    %eax,0xc(%edx)

	if(sk->tp_pinfo.af_tcp.trickles_opt & TCP_TRICKLES_RSERVER) {
    1198:	8b 45 08             	mov    0x8(%ebp),%eax
    119b:	8b 80 a8 02 00 00    	mov    0x2a8(%eax),%eax
    11a1:	83 e0 08             	and    $0x8,%eax
    11a4:	85 c0                	test   %eax,%eax
    11a6:	0f 84 d8 01 00 00    	je     1384 <trickles_rcv_impl+0x25c>
		int result;
		// First process prequeue overflow
		struct sk_buff *pre_skb;

		LOG_PACKET(sk, -in_skb->h.th->ack_seq);
		while (can_alloc_trickles_msk(sk) &&
    11ac:	8b 45 08             	mov    0x8(%ebp),%eax
    11af:	89 04 24             	mov    %eax,(%esp,1)
    11b2:	e8 07 96 00 00       	call   a7be <can_alloc_trickles_msk>
    11b7:	85 c0                	test   %eax,%eax
    11b9:	0f 84 c2 00 00 00    	je     1281 <trickles_rcv_impl+0x159>
    11bf:	8b 45 fc             	mov    0xfffffffc(%ebp),%eax
    11c2:	05 40 0a 00 00       	add    $0xa40,%eax
    11c7:	89 04 24             	mov    %eax,(%esp,1)
    11ca:	e8 af 7c 00 00       	call   8e7e <__skb_dequeue>
    11cf:	89 45 f4             	mov    %eax,0xfffffff4(%ebp)
    11d2:	83 7d f4 00          	cmpl   $0x0,0xfffffff4(%ebp)
    11d6:	75 05                	jne    11dd <trickles_rcv_impl+0xb5>
    11d8:	e9 a4 00 00 00       	jmp    1281 <trickles_rcv_impl+0x159>
		       ((pre_skb = __skb_dequeue(&tp->t.prequeueOverflow))
			!= NULL)) {
			update_rx_stats(pre_skb);
    11dd:	c7 44 24 04 00 00 00 	movl   $0x0,0x4(%esp,1)
    11e4:	00 
    11e5:	8b 45 f4             	mov    0xfffffff4(%ebp),%eax
    11e8:	89 04 24             	mov    %eax,(%esp,1)
    11eb:	e8 80 fe ff ff       	call   1070 <update_rx_stats_helper>
			result = server_rcv_impl(sk, pre_skb);
    11f0:	8b 45 f4             	mov    0xfffffff4(%ebp),%eax
    11f3:	89 44 24 04          	mov    %eax,0x4(%esp,1)
    11f7:	8b 45 08             	mov    0x8(%ebp),%eax
    11fa:	89 04 24             	mov    %eax,(%esp,1)
    11fd:	e8 fc ff ff ff       	call   11fe <trickles_rcv_impl+0xd6>
    1202:	89 45 f8             	mov    %eax,0xfffffff8(%ebp)
			if(result == 0 || result == -EINVAL) {
    1205:	83 7d f8 00          	cmpl   $0x0,0xfffffff8(%ebp)
    1209:	74 08                	je     1213 <trickles_rcv_impl+0xeb>
    120b:	83 7d f8 ea          	cmpl   $0xffffffea,0xfffffff8(%ebp)
    120f:	74 02                	je     1213 <trickles_rcv_impl+0xeb>
    1211:	eb 14                	jmp    1227 <trickles_rcv_impl+0xff>
				save_for_recycle(sk, pre_skb);
    1213:	8b 45 f4             	mov    0xfffffff4(%ebp),%eax
    1216:	89 44 24 04          	mov    %eax,0x4(%esp,1)
    121a:	8b 45 08             	mov    0x8(%ebp),%eax
    121d:	89 04 24             	mov    %eax,(%esp,1)
    1220:	e8 cb 96 00 00       	call   a8f0 <save_for_recycle>
    1225:	eb 85                	jmp    11ac <trickles_rcv_impl+0x84>
			} else {
				BUG_TRAP(result == -ENOMEM);
    1227:	83 7d f8 f4          	cmpl   $0xfffffff4,0xfffffff8(%ebp)
    122b:	74 14                	je     1241 <trickles_rcv_impl+0x119>
    122d:	c7 44 24 04 af 02 00 	movl   $0x2af,0x4(%esp,1)
    1234:	00 
    1235:	c7 04 24 00 06 00 00 	movl   $0x600,(%esp,1)
    123c:	e8 fc ff ff ff       	call   123d <trickles_rcv_impl+0x115>
				RECORD_NOMEM();
    1241:	ff 05 08 00 00 00    	incl   0x8
				__skb_queue_head(&tp->t.prequeueOverflow, pre_skb);
    1247:	8b 45 f4             	mov    0xfffffff4(%ebp),%eax
    124a:	89 44 24 04          	mov    %eax,0x4(%esp,1)
    124e:	8b 45 fc             	mov    0xfffffffc(%ebp),%eax
    1251:	05 40 0a 00 00       	add    $0xa40,%eax
    1256:	89 04 24             	mov    %eax,(%esp,1)
    1259:	e8 91 7b 00 00       	call   8def <__skb_queue_head>
				__skb_queue_tail(&tp->t.prequeueOverflow, in_skb);
    125e:	8b 45 0c             	mov    0xc(%ebp),%eax
    1261:	89 44 24 04          	mov    %eax,0x4(%esp,1)
    1265:	8b 45 fc             	mov    0xfffffffc(%ebp),%eax
    1268:	05 40 0a 00 00       	add    $0xa40,%eax
    126d:	89 04 24             	mov    %eax,(%esp,1)
    1270:	e8 c1 7b 00 00       	call   8e36 <__skb_queue_tail>
				return 0;
    1275:	c7 45 f0 00 00 00 00 	movl   $0x0,0xfffffff0(%ebp)
    127c:	e9 58 01 00 00       	jmp    13d9 <trickles_rcv_impl+0x2b1>
			}
		}
		if(can_alloc_trickles_msk(sk)) {
    1281:	8b 45 08             	mov    0x8(%ebp),%eax
    1284:	89 04 24             	mov    %eax,(%esp,1)
    1287:	e8 32 95 00 00       	call   a7be <can_alloc_trickles_msk>
    128c:	85 c0                	test   %eax,%eax
    128e:	74 02                	je     1292 <trickles_rcv_impl+0x16a>
			goto process_first;
    1290:	eb 6a                	jmp    12fc <trickles_rcv_impl+0x1d4>
		} else {
			// XXX should defer until later
			if(tp->t.prequeueOverflow.qlen < 20000) {
    1292:	8b 45 fc             	mov    0xfffffffc(%ebp),%eax
    1295:	81 b8 48 0a 00 00 1f 	cmpl   $0x4e1f,0xa48(%eax)
    129c:	4e 00 00 
    129f:	77 23                	ja     12c4 <trickles_rcv_impl+0x19c>
				__skb_queue_tail(&tp->t.prequeueOverflow, in_skb);
    12a1:	8b 45 0c             	mov    0xc(%ebp),%eax
    12a4:	89 44 24 04          	mov    %eax,0x4(%esp,1)
    12a8:	8b 45 fc             	mov    0xfffffffc(%ebp),%eax
    12ab:	05 40 0a 00 00       	add    $0xa40,%eax
    12b0:	89 04 24             	mov    %eax,(%esp,1)
    12b3:	e8 7e 7b 00 00       	call   8e36 <__skb_queue_tail>
				return 0;
    12b8:	c7 45 f0 00 00 00 00 	movl   $0x0,0xfffffff0(%ebp)
    12bf:	e9 15 01 00 00       	jmp    13d9 <trickles_rcv_impl+0x2b1>
			} else {
				return -1;
    12c4:	c7 45 f0 ff ff ff ff 	movl   $0xffffffff,0xfffffff0(%ebp)
    12cb:	e9 09 01 00 00       	jmp    13d9 <trickles_rcv_impl+0x2b1>
			}
		}
		// optimization: process the rest of the prequeue before restoring FPU context
#ifndef USERTEST
		while (can_alloc_trickles_msk(sk) &&
    12d0:	8b 45 08             	mov    0x8(%ebp),%eax
    12d3:	89 04 24             	mov    %eax,(%esp,1)
    12d6:	e8 e3 94 00 00       	call   a7be <can_alloc_trickles_msk>
    12db:	85 c0                	test   %eax,%eax
    12dd:	0f 84 98 00 00 00    	je     137b <trickles_rcv_impl+0x253>
    12e3:	8b 45 fc             	mov    0xfffffffc(%ebp),%eax
    12e6:	83 c0 34             	add    $0x34,%eax
    12e9:	89 04 24             	mov    %eax,(%esp,1)
    12ec:	e8 8d 7b 00 00       	call   8e7e <__skb_dequeue>
    12f1:	89 45 0c             	mov    %eax,0xc(%ebp)
    12f4:	83 7d 0c 00          	cmpl   $0x0,0xc(%ebp)
    12f8:	75 02                	jne    12fc <trickles_rcv_impl+0x1d4>
    12fa:	eb 7f                	jmp    137b <trickles_rcv_impl+0x253>
		       ((in_skb = __skb_dequeue(&tp->ucopy.prequeue))
			!= NULL)) {
#endif
		process_first:
			update_rx_stats(in_skb);
    12fc:	c7 44 24 04 00 00 00 	movl   $0x0,0x4(%esp,1)
    1303:	00 
    1304:	8b 45 0c             	mov    0xc(%ebp),%eax
    1307:	89 04 24             	mov    %eax,(%esp,1)
    130a:	e8 61 fd ff ff       	call   1070 <update_rx_stats_helper>
			result = server_rcv_impl(sk, in_skb);
    130f:	8b 45 0c             	mov    0xc(%ebp),%eax
    1312:	89 44 24 04          	mov    %eax,0x4(%esp,1)
    1316:	8b 45 08             	mov    0x8(%ebp),%eax
    1319:	89 04 24             	mov    %eax,(%esp,1)
    131c:	e8 fc ff ff ff       	call   131d <trickles_rcv_impl+0x1f5>
    1321:	89 45 f8             	mov    %eax,0xfffffff8(%ebp)
			if(result == 0 || result == -EINVAL) {
    1324:	83 7d f8 00          	cmpl   $0x0,0xfffffff8(%ebp)
    1328:	74 08                	je     1332 <trickles_rcv_impl+0x20a>
    132a:	83 7d f8 ea          	cmpl   $0xffffffea,0xfffffff8(%ebp)
    132e:	74 02                	je     1332 <trickles_rcv_impl+0x20a>
    1330:	eb 14                	jmp    1346 <trickles_rcv_impl+0x21e>
				save_for_recycle(sk, in_skb);
    1332:	8b 45 0c             	mov    0xc(%ebp),%eax
    1335:	89 44 24 04          	mov    %eax,0x4(%esp,1)
    1339:	8b 45 08             	mov    0x8(%ebp),%eax
    133c:	89 04 24             	mov    %eax,(%esp,1)
    133f:	e8 ac 95 00 00       	call   a8f0 <save_for_recycle>
    1344:	eb 8a                	jmp    12d0 <trickles_rcv_impl+0x1a8>
			} else {
				BUG_TRAP(result == -ENOMEM);
    1346:	83 7d f8 f4          	cmpl   $0xfffffff4,0xfffffff8(%ebp)
    134a:	74 14                	je     1360 <trickles_rcv_impl+0x238>
    134c:	c7 44 24 04 cd 02 00 	movl   $0x2cd,0x4(%esp,1)
    1353:	00 
    1354:	c7 04 24 00 06 00 00 	movl   $0x600,(%esp,1)
    135b:	e8 fc ff ff ff       	call   135c <trickles_rcv_impl+0x234>
				RECORD_NOMEM();
    1360:	ff 05 08 00 00 00    	incl   0x8
				__skb_queue_tail(&tp->ucopy.prequeue, in_skb);
    1366:	8b 45 0c             	mov    0xc(%ebp),%eax
    1369:	89 44 24 04          	mov    %eax,0x4(%esp,1)
    136d:	8b 45 fc             	mov    0xfffffffc(%ebp),%eax
    1370:	83 c0 34             	add    $0x34,%eax
    1373:	89 04 24             	mov    %eax,(%esp,1)
    1376:	e8 bb 7a 00 00       	call   8e36 <__skb_queue_tail>
				break;
			}
#ifndef USERTEST
		}
#endif
		return 0;
    137b:	c7 45 f0 00 00 00 00 	movl   $0x0,0xfffffff0(%ebp)
    1382:	eb 55                	jmp    13d9 <trickles_rcv_impl+0x2b1>
	} else {
		int result;

		update_rx_stats(in_skb);
    1384:	c7 44 24 04 00 00 00 	movl   $0x0,0x4(%esp,1)
    138b:	00 
    138c:	8b 45 0c             	mov    0xc(%ebp),%eax
    138f:	89 04 24             	mov    %eax,(%esp,1)
    1392:	e8 d9 fc ff ff       	call   1070 <update_rx_stats_helper>
		//LOG_PACKET(sk, -in_skb->h.th->ack_seq);

		result = client_rcv_impl(sk, in_skb);
    1397:	8b 45 0c             	mov    0xc(%ebp),%eax
    139a:	89 44 24 04          	mov    %eax,0x4(%esp,1)
    139e:	8b 45 08             	mov    0x8(%ebp),%eax
    13a1:	89 04 24             	mov    %eax,(%esp,1)
    13a4:	e8 fc ff ff ff       	call   13a5 <trickles_rcv_impl+0x27d>
    13a9:	89 45 f4             	mov    %eax,0xfffffff4(%ebp)
		if(result) {
    13ac:	83 7d f4 00          	cmpl   $0x0,0xfffffff4(%ebp)
    13b0:	74 0b                	je     13bd <trickles_rcv_impl+0x295>
			__kfree_skb(in_skb);
    13b2:	8b 45 0c             	mov    0xc(%ebp),%eax
    13b5:	89 04 24             	mov    %eax,(%esp,1)
    13b8:	e8 fc ff ff ff       	call   13b9 <trickles_rcv_impl+0x291>
		}
		return 0;
    13bd:	c7 45 f0 00 00 00 00 	movl   $0x0,0xfffffff0(%ebp)
    13c4:	eb 13                	jmp    13d9 <trickles_rcv_impl+0x2b1>
	}
 csum_error:
	printk("CSUM error!\n");
    13c6:	c7 04 24 40 06 00 00 	movl   $0x640,(%esp,1)
    13cd:	e8 fc ff ff ff       	call   13ce <trickles_rcv_impl+0x2a6>
	return -1;
    13d2:	c7 45 f0 ff ff ff ff 	movl   $0xffffffff,0xfffffff0(%ebp)
}
    13d9:	8b 45 f0             	mov    0xfffffff0(%ebp),%eax
    13dc:	c9                   	leave  
    13dd:	c3                   	ret    

000013de <resetClientTimer>:

#endif // USERTEST

/*
 *
 * Client handling
 *
 */

static int findAckables(struct sock *sk, int skip, struct sk_buff **skip_skb);
static void requestSlowStart(struct sock *sk);
static inline void client_inseq(struct sock *sk, struct sk_buff *in_skb, int noCont);

#if 1

#ifdef HIDE_PREMATURE_LOSS_DETECTION // hack to work around a shortcoming in the client:
/*
During slow start, the old data request mappings are cleared. However, not all request packets were actually lost. So already requested data will be re-requested again during slow start.

    * This assumption will be annoying to remove. It involves getting rid of the byteReq reset, and also properly clearing old dataRequestMappings
    * Life is good if I crank up timeout to 2 seconds
*/

#define MIN_SS_TIMEOUT ((HZ/2))
#else
// RFC 2988 says 1 second is a good value
//#define MIN_SS_TIMEOUT ((HZ/20))
#define MIN_SS_TIMEOUT (HZ)
#endif
// RFC 2988 says 60 second is the right value
//#define MAX_SS_TIMEOUT (3*HZ)
#define MAX_SS_TIMEOUT (60*HZ)

#else

#define MIN_SS_TIMEOUT (2*HZ)
#define MAX_SS_TIMEOUT (HZ/2)

#endif

/* slow start moderation */
void resetClientTimer(struct sock *sk) {
    13de:	55                   	push   %ebp
    13df:	89 e5                	mov    %esp,%ebp
    13e1:	83 ec 28             	sub    $0x28,%esp
	struct tcp_opt *tp = &sk->tp_pinfo.af_tcp;
    13e4:	8b 45 08             	mov    0x8(%ebp),%eax
    13e7:	05 bc 00 00 00       	add    $0xbc,%eax
    13ec:	89 45 fc             	mov    %eax,0xfffffffc(%ebp)
	unsigned long expiration = jiffies;
    13ef:	a1 00 00 00 00       	mov    0x0,%eax
    13f4:	89 45 f8             	mov    %eax,0xfffffff8(%ebp)

	if(tp->t.state == TRICKLES_CLIENT_SYNACK) {
    13f7:	8b 45 fc             	mov    0xfffffffc(%ebp),%eax
    13fa:	83 b8 cc 02 00 00 04 	cmpl   $0x4,0x2cc(%eax)
    1401:	75 0e                	jne    1411 <resetClientTimer+0x33>
		expiration += 2 * HZ;
    1403:	8d 45 f8             	lea    0xfffffff8(%ebp),%eax
    1406:	81 00 c8 00 00 00    	addl   $0xc8,(%eax)
    140c:	e9 b2 00 00 00       	jmp    14c3 <resetClientTimer+0xe5>
	} else {
		int timeout = MAX(RTO_IN_JIFFIES(sk), MIN_SS_TIMEOUT);
    1411:	c7 45 f0 64 00 00 00 	movl   $0x64,0xfffffff0(%ebp)
    1418:	8b 45 08             	mov    0x8(%ebp),%eax
    141b:	05 bc 00 00 00       	add    $0xbc,%eax
    1420:	89 45 e8             	mov    %eax,0xffffffe8(%ebp)
    1423:	8b 45 e8             	mov    0xffffffe8(%ebp),%eax
    1426:	8b 80 d8 02 00 00    	mov    0x2d8(%eax),%eax
    142c:	c1 f8 03             	sar    $0x3,%eax
    142f:	89 45 ec             	mov    %eax,0xffffffec(%ebp)
    1432:	8b 45 f0             	mov    0xfffffff0(%ebp),%eax
    1435:	89 45 e8             	mov    %eax,0xffffffe8(%ebp)
    1438:	8b 45 e8             	mov    0xffffffe8(%ebp),%eax
    143b:	89 45 e4             	mov    %eax,0xffffffe4(%ebp)
    143e:	8b 45 e4             	mov    0xffffffe4(%ebp),%eax
    1441:	3b 45 ec             	cmp    0xffffffec(%ebp),%eax
    1444:	7d 06                	jge    144c <resetClientTimer+0x6e>
    1446:	8b 45 ec             	mov    0xffffffec(%ebp),%eax
    1449:	89 45 e4             	mov    %eax,0xffffffe4(%ebp)
    144c:	8b 45 e4             	mov    0xffffffe4(%ebp),%eax
    144f:	89 45 f4             	mov    %eax,0xfffffff4(%ebp)
		timeout = MIN(timeout, MAX_SS_TIMEOUT);
    1452:	c7 45 e8 70 17 00 00 	movl   $0x1770,0xffffffe8(%ebp)
    1459:	8b 45 f4             	mov    0xfffffff4(%ebp),%eax
    145c:	89 45 ec             	mov    %eax,0xffffffec(%ebp)
    145f:	8b 45 e8             	mov    0xffffffe8(%ebp),%eax
    1462:	89 45 f0             	mov    %eax,0xfffffff0(%ebp)
    1465:	8b 45 f0             	mov    0xfffffff0(%ebp),%eax
    1468:	89 45 e0             	mov    %eax,0xffffffe0(%ebp)
    146b:	8b 45 e0             	mov    0xffffffe0(%ebp),%eax
    146e:	3b 45 ec             	cmp    0xffffffec(%ebp),%eax
    1471:	7e 06                	jle    1479 <resetClientTimer+0x9b>
    1473:	8b 45 ec             	mov    0xffffffec(%ebp),%eax
    1476:	89 45 e0             	mov    %eax,0xffffffe0(%ebp)
    1479:	8b 45 e0             	mov    0xffffffe0(%ebp),%eax
    147c:	89 45 f4             	mov    %eax,0xfffffff4(%ebp)
#ifdef RANDOMIZE_SLOWSTART_TIMER
		timeout += random() % ((HZ * 30) / 1000);
    147f:	e8 a8 97 00 00       	call   ac2c <random>
    1484:	88 c1                	mov    %al,%cl
    1486:	66 0f b6 d1          	movzbw %cl,%dx
    148a:	89 d0                	mov    %edx,%eax
    148c:	c1 e0 03             	shl    $0x3,%eax
    148f:	8d 04 10             	lea    (%eax,%edx,1),%eax
    1492:	01 c0                	add    %eax,%eax
    1494:	8d 14 02             	lea    (%edx,%eax,1),%edx
    1497:	89 d0                	mov    %edx,%eax
    1499:	c1 e0 03             	shl    $0x3,%eax
    149c:	8d 04 10             	lea    (%eax,%edx,1),%eax
    149f:	0f b7 c0             	movzwl %ax,%eax
    14a2:	c1 e8 08             	shr    $0x8,%eax
    14a5:	88 c2                	mov    %al,%dl
    14a7:	d0 ea                	shr    %dl
    14a9:	88 d0                	mov    %dl,%al
    14ab:	00 c0                	add    %al,%al
    14ad:	00 d0                	add    %dl,%al
    14af:	28 c1                	sub    %al,%cl
    14b1:	88 c8                	mov    %cl,%al
    14b3:	0f b6 d0             	movzbl %al,%edx
    14b6:	8d 45 f4             	lea    0xfffffff4(%ebp),%eax
    14b9:	01 10                	add    %edx,(%eax)
#endif

		if(0 && trickles_ratelimit()) {
			printk("new timeout %d\n", timeout);
		}

		expiration += timeout;
    14bb:	8b 55 f4             	mov    0xfffffff4(%ebp),%edx
    14be:	8d 45 f8             	lea    0xfffffff8(%ebp),%eax
    14c1:	01 10                	add    %edx,(%eax)
	}
	// todo: change timeout to measured connection rtt
	if(!mod_timer(&tp->t.slowstart_timer, expiration)) {
    14c3:	8b 45 f8             	mov    0xfffffff8(%ebp),%eax
    14c6:	89 44 24 04          	mov    %eax,0x4(%esp,1)
    14ca:	8b 45 fc             	mov    0xfffffffc(%ebp),%eax
    14cd:	05 48 09 00 00       	add    $0x948,%eax
    14d2:	89 04 24             	mov    %eax,(%esp,1)
    14d5:	e8 fc ff ff ff       	call   14d6 <resetClientTimer+0xf8>
    14da:	85 c0                	test   %eax,%eax
    14dc:	75 0b                	jne    14e9 <resetClientTimer+0x10b>
		sock_hold(sk);
    14de:	8b 45 08             	mov    0x8(%ebp),%eax
    14e1:	89 04 24             	mov    %eax,(%esp,1)
    14e4:	e8 c3 7e 00 00       	call   93ac <sock_hold>
	}
}
    14e9:	c9                   	leave  
    14ea:	c3                   	ret    

000014eb <slow_start_timer>:

static void enterRecoveryState(struct sock *sk, int isSlowStart);
struct UC_Continuation *
findUCContinuation(struct sock *sk, unsigned start, unsigned end);

void slow_start_timer(unsigned long data) {
    14eb:	55                   	push   %ebp
    14ec:	89 e5                	mov    %esp,%ebp
    14ee:	83 ec 4c             	sub    $0x4c,%esp
	struct sock *sk = (struct sock *)data;
    14f1:	8b 45 08             	mov    0x8(%ebp),%eax
    14f4:	89 45 fc             	mov    %eax,0xfffffffc(%ebp)
	struct tcp_opt *tp = &sk->tp_pinfo.af_tcp;
    14f7:	8b 45 fc             	mov    0xfffffffc(%ebp),%eax
    14fa:	05 bc 00 00 00       	add    $0xbc,%eax
    14ff:	89 45 f8             	mov    %eax,0xfffffff8(%ebp)
	int numAcks = 0;
    1502:	c7 45 f4 00 00 00 00 	movl   $0x0,0xfffffff4(%ebp)
	int backedOff = 0;
    1509:	c7 45 f0 00 00 00 00 	movl   $0x0,0xfffffff0(%ebp)

	record_delay(tp->t.RTO);
    1510:	8b 45 f8             	mov    0xfffffff8(%ebp),%eax
    1513:	8b 80 d8 02 00 00    	mov    0x2d8(%eax),%eax
    1519:	89 04 24             	mov    %eax,(%esp,1)
    151c:	e8 66 96 00 00       	call   ab87 <record_delay>
	SAVE_DELAY_STATS(sk);
    1521:	8b 45 fc             	mov    0xfffffffc(%ebp),%eax
    1524:	05 bc 00 00 00       	add    $0xbc,%eax
    1529:	89 45 ec             	mov    %eax,0xffffffec(%ebp)
    152c:	8b 45 ec             	mov    0xffffffec(%ebp),%eax
    152f:	8b 80 d8 02 00 00    	mov    0x2d8(%eax),%eax
    1535:	89 44 24 04          	mov    %eax,0x4(%esp,1)
    1539:	c7 04 24 00 00 00 00 	movl   $0x0,(%esp,1)
    1540:	e8 77 95 00 00       	call   aabc <hist_addPoint>
	//printk("slow start timer 0\n");

	gNumSlowstart ++;
    1545:	ff 05 00 00 00 00    	incl   0x0
	//printk("slow start timer -2\n");
	if(0 && (clientDebugLevel >= 1 || ( 1 && gNumSlowstart % 10000 == 0) || usertest)) {
		printk("Slow start timer @ %lu, total = %d, numDataRequestMappings = %d, numContinuations = %d, numConversionRequests = %d, numContinuationRequests = %d, tp->copied_seq/rcv_nxt = %u/%u, tp->t.rcv_nxt = %u, sk = %p", jiffies, gNumSlowstart, numDataRequestMappings, numContinuations, numConversionRequests, numContinuationRequests, tp->copied_seq, tp->rcv_nxt, tp->t.rcv_nxt, sk);
		DUMP_RTO(sk);
		printk("\n");
	}
	tp->t.in_flight = 0;
    154b:	8b 45 f8             	mov    0xfffffff8(%ebp),%eax
    154e:	c7 80 00 03 00 00 00 	movl   $0x0,0x300(%eax)
    1555:	00 00 00 
#ifndef USERTEST
	bh_lock_sock(sk);
	if (sk->state == TCP_CLOSE)
    1558:	8b 45 fc             	mov    0xfffffffc(%ebp),%eax
    155b:	0f b6 40 20          	movzbl 0x20(%eax),%eax
    155f:	3c 07                	cmp    $0x7,%al
    1561:	75 05                	jne    1568 <slow_start_timer+0x7d>
		goto out_unlock;
    1563:	e9 00 02 00 00       	jmp    1768 <slow_start_timer+0x27d>
#endif // USERTEST

	int haveRequests = !empty(&tp->t.sentRequests) || !empty(&tp->t.queuedRequests);
    1568:	c7 45 e0 00 00 00 00 	movl   $0x0,0xffffffe0(%ebp)
    156f:	8b 45 f8             	mov    0xfffffff8(%ebp),%eax
    1572:	05 84 09 00 00       	add    $0x984,%eax
    1577:	89 04 24             	mov    %eax,(%esp,1)
    157a:	e8 40 7c 00 00       	call   91bf <empty>
    157f:	85 c0                	test   %eax,%eax
    1581:	74 14                	je     1597 <slow_start_timer+0xac>
    1583:	8b 45 f8             	mov    0xfffffff8(%ebp),%eax
    1586:	05 98 09 00 00       	add    $0x998,%eax
    158b:	89 04 24             	mov    %eax,(%esp,1)
    158e:	e8 2c 7c 00 00       	call   91bf <empty>
    1593:	85 c0                	test   %eax,%eax
    1595:	75 07                	jne    159e <slow_start_timer+0xb3>
    1597:	c7 45 e0 01 00 00 00 	movl   $0x1,0xffffffe0(%ebp)
    159e:	8b 45 e0             	mov    0xffffffe0(%ebp),%eax
    15a1:	89 45 ec             	mov    %eax,0xffffffec(%ebp)
	//printk("Slow start timer(%p), snd_una = %d, write_seq = %d\n", sk, tp->t.snd_una, tp->t.write_seq);

	//printk("slow start timer 1\n");

	// First, try to send out any pending acks
	if((numAcks = trickles_send_ack_impl(sk, 0)) == 0) {
    15a4:	c7 44 24 04 00 00 00 	movl   $0x0,0x4(%esp,1)
    15ab:	00 
    15ac:	8b 45 fc             	mov    0xfffffffc(%ebp),%eax
    15af:	89 04 24             	mov    %eax,(%esp,1)
    15b2:	e8 fc ff ff ff       	call   15b3 <slow_start_timer+0xc8>
    15b7:	89 45 f4             	mov    %eax,0xfffffff4(%ebp)
    15ba:	83 7d f4 00          	cmpl   $0x0,0xfffffff4(%ebp)
    15be:	0f 85 f0 00 00 00    	jne    16b4 <slow_start_timer+0x1c9>
#if 0
		printk("no acks, then %d %d %d \n",
		       tp->t.timerState & TRICKLES_ENABLE_DATA_TIMEOUT,
		       findUCContinuation(sk, tp->t.byteReqNext, tp->t.byteReqNext),
		   haveRequests);
#endif

		if((tp->t.timerState & TRICKLES_ENABLE_DATA_TIMEOUT)
    15c4:	8b 45 f8             	mov    0xfffffff8(%ebp),%eax
    15c7:	8b 80 dc 02 00 00    	mov    0x2dc(%eax),%eax
    15cd:	83 e0 01             	and    $0x1,%eax
    15d0:	85 c0                	test   %eax,%eax
    15d2:	75 34                	jne    1608 <slow_start_timer+0x11d>
    15d4:	8b 45 f8             	mov    0xfffffff8(%ebp),%eax
    15d7:	8b 80 d4 09 00 00    	mov    0x9d4(%eax),%eax
    15dd:	89 44 24 08          	mov    %eax,0x8(%esp,1)
    15e1:	8b 45 f8             	mov    0xfffffff8(%ebp),%eax
    15e4:	8b 80 d4 09 00 00    	mov    0x9d4(%eax),%eax
    15ea:	89 44 24 04          	mov    %eax,0x4(%esp,1)
    15ee:	8b 45 fc             	mov    0xfffffffc(%ebp),%eax
    15f1:	89 04 24             	mov    %eax,(%esp,1)
    15f4:	e8 fc ff ff ff       	call   15f5 <slow_start_timer+0x10a>
    15f9:	85 c0                	test   %eax,%eax
    15fb:	75 0b                	jne    1608 <slow_start_timer+0x11d>
    15fd:	83 7d ec 00          	cmpl   $0x0,0xffffffec(%ebp)
    1601:	75 05                	jne    1608 <slow_start_timer+0x11d>
    1603:	e9 ac 00 00 00       	jmp    16b4 <slow_start_timer+0x1c9>
		   || findUCContinuation(sk, tp->t.byteReqNext, tp->t.byteReqNext)
		   || haveRequests) {
			//#define STRICT_BUFFER_CHECK
#ifdef STRICT_BUFFER_CHECK // 0419 - fixing extraneous slowstarts with blocked client
			// NOTE!!! POSSIBLE RACE CONDITION WITH USERSPACE SINCE WE DON'T CHECK USER LOCK
			//printk("need slowstart 1\n");
			int haveRcvBuf = tp->rcv_nxt < tp->copied_seq + sk->rcvbuf;
			printk("HaveRcvBuf = %d (%d %d)\n",
			       haveRcvBuf, tp->rcv_nxt < tp->copied_seq + sk->rcvbuf);
			if(!IS_SEND_UCONTREQ_STATE(tp) ||
			   !empty(&tp->t.sentRequests) ||   // requests we can use
			   !empty(&tp->t.queuedRequests) || //  "" ""
			   (haveRcvBuf && // have space in buffer, and usable continuation
			    findUCContinuation(sk, tp->rcv_nxt, tp->rcv_nxt))) {
#if 0
			}
#endif
#else
			//printk("test a = %d %d %d(%d,%d)\n", !IS_SEND_UCONTREQ_STATE(tp), haveRequests, findUCContinuation(sk, tp->rcv_nxt, tp->rcv_nxt), tp->rcv_nxt, tp->rcv_nxt);

			if(IMPLIES(IS_SEND_UCONTREQ_STATE(tp), haveRequests) ||
    1608:	8b 45 f8             	mov    0xfffffff8(%ebp),%eax
    160b:	83 b8 cc 02 00 00 01 	cmpl   $0x1,0x2cc(%eax)
    1612:	74 18                	je     162c <slow_start_timer+0x141>
    1614:	8b 45 f8             	mov    0xfffffff8(%ebp),%eax
    1617:	83 b8 cc 02 00 00 02 	cmpl   $0x2,0x2cc(%eax)
    161e:	74 0c                	je     162c <slow_start_timer+0x141>
    1620:	8b 45 f8             	mov    0xfffffff8(%ebp),%eax
    1623:	83 b8 cc 02 00 00 03 	cmpl   $0x3,0x2cc(%eax)
    162a:	75 2b                	jne    1657 <slow_start_timer+0x16c>
    162c:	83 7d ec 00          	cmpl   $0x0,0xffffffec(%ebp)
    1630:	75 25                	jne    1657 <slow_start_timer+0x16c>
    1632:	8b 45 f8             	mov    0xfffffff8(%ebp),%eax
    1635:	8b 40 08             	mov    0x8(%eax),%eax
    1638:	89 44 24 08          	mov    %eax,0x8(%esp,1)
    163c:	8b 45 f8             	mov    0xfffffff8(%ebp),%eax
    163f:	8b 40 08             	mov    0x8(%eax),%eax
    1642:	89 44 24 04          	mov    %eax,0x4(%esp,1)
    1646:	8b 45 fc             	mov    0xfffffffc(%ebp),%eax
    1649:	89 04 24             	mov    %eax,(%esp,1)
    164c:	e8 fc ff ff ff       	call   164d <slow_start_timer+0x162>
    1651:	85 c0                	test   %eax,%eax
    1653:	75 02                	jne    1657 <slow_start_timer+0x16c>
    1655:	eb 27                	jmp    167e <slow_start_timer+0x193>
			   findUCContinuation(sk, tp->rcv_nxt, tp->rcv_nxt)) {
#endif
				static int gNumSlowstart = 0;
				if(1 || (gNumSlowstart++ % 100 == 0) || clientDebugLevel >= 1) {
#if 0
					printk("Timing out @ %lu (%d times) sk = %p tp->{rcv_nxt, window} = %u/%u\n", jiffies, gNumSlowstart, sk, tp->rcv_nxt, tp->copied_seq- tp->rcv_nxt);
					printk("rtt = %u, total = %d, numDataRequestMappings = %d, numContinuations = %d, numConversionRequests = %d, numContinuationRequests = %d, tp->rcv_nxt = %u, tp->t.rcv_nxt = %u, sk = %p\n", tp->t.A, gNumSlowstart, numDataRequestMappings, numContinuations, numConversionRequests, numContinuationRequests, tp->rcv_nxt, tp->t.rcv_nxt, sk);
					DUMP_RTO(sk);
					printk("ContList Length = %d  Cont OFO queue length %d Data OFO queue length %d\n", tp->t.cont_list.len, tp->t.ofo_queue.qlen, tp->t.data_ofo_queue.qlen);
#endif
				}
				/* 1) Enter recovery mode
				   2) Initiate slow start
				*/
				backedOff = 1;
    1657:	c7 45 f0 01 00 00 00 	movl   $0x1,0xfffffff0(%ebp)
				enterRecoveryState(sk, 1);
    165e:	c7 44 24 04 01 00 00 	movl   $0x1,0x4(%esp,1)
    1665:	00 
    1666:	8b 45 fc             	mov    0xfffffffc(%ebp),%eax
    1669:	89 04 24             	mov    %eax,(%esp,1)
    166c:	e8 46 01 00 00       	call   17b7 <enterRecoveryState>
				requestSlowStart(sk);
    1671:	8b 45 fc             	mov    0xfffffffc(%ebp),%eax
    1674:	89 04 24             	mov    %eax,(%esp,1)
    1677:	e8 03 64 00 00       	call   7a7f <requestSlowStart>
    167c:	eb 36                	jmp    16b4 <slow_start_timer+0x1c9>
			} else {
				if(tp->t.conversionState == CONVERSION_IDLE) {
    167e:	8b 45 f8             	mov    0xfffffff8(%ebp),%eax
    1681:	83 b8 dc 09 00 00 00 	cmpl   $0x0,0x9dc(%eax)
    1688:	75 2a                	jne    16b4 <slow_start_timer+0x1c9>
#ifdef STRICT_BUFFER_CHECK
					BUG_TRAP(haveRcvBuf);
#endif
					tp->t.timerState |= TRICKLES_NEED_SLOWSTART;
    168a:	8b 55 f8             	mov    0xfffffff8(%ebp),%edx
    168d:	8b 45 f8             	mov    0xfffffff8(%ebp),%eax
    1690:	8b 80 dc 02 00 00    	mov    0x2dc(%eax),%eax
    1696:	83 c8 02             	or     $0x2,%eax
    1699:	89 82 dc 02 00 00    	mov    %eax,0x2dc(%edx)
					//printk("need slowstart 2\n");
					tp->t.timerState &= ~TRICKLES_ENABLE_DATA_TIMEOUT;
    169f:	8b 55 f8             	mov    0xfffffff8(%ebp),%edx
    16a2:	8b 45 f8             	mov    0xfffffff8(%ebp),%eax
    16a5:	8b 80 dc 02 00 00    	mov    0x2dc(%eax),%eax
    16ab:	83 e0 fe             	and    $0xfffffffe,%eax
    16ae:	89 82 dc 02 00 00    	mov    %eax,0x2dc(%edx)
				} else {
					if(trickles_ratelimit()) printk("no requests available for timeout ??? \n");
				}
			}
		}
	}
	if(numAcks) {
    16b4:	83 7d f4 00          	cmpl   $0x0,0xfffffff4(%ebp)
    16b8:	74 13                	je     16cd <slow_start_timer+0x1e2>
		printk("slow start num acks = %d\n", numAcks);
    16ba:	8b 45 f4             	mov    0xfffffff4(%ebp),%eax
    16bd:	89 44 24 04          	mov    %eax,0x4(%esp,1)
    16c1:	c7 04 24 4d 06 00 00 	movl   $0x64d,(%esp,1)
    16c8:	e8 fc ff ff ff       	call   16c9 <slow_start_timer+0x1de>
	}

	if(!disableTimeout) {
    16cd:	83 3d 00 00 00 00 00 	cmpl   $0x0,0x0
    16d4:	0f 85 8e 00 00 00    	jne    1768 <slow_start_timer+0x27d>
		if(haveRequests || ((tp->t.timerState & TRICKLES_ENABLE_DATA_TIMEOUT) &&
    16da:	83 7d ec 00          	cmpl   $0x0,0xffffffec(%ebp)
    16de:	75 3b                	jne    171b <slow_start_timer+0x230>
    16e0:	8b 45 f8             	mov    0xfffffff8(%ebp),%eax
    16e3:	8b 80 dc 02 00 00    	mov    0x2dc(%eax),%eax
    16e9:	83 e0 01             	and    $0x1,%eax
    16ec:	85 c0                	test   %eax,%eax
    16ee:	74 78                	je     1768 <slow_start_timer+0x27d>
    16f0:	8b 45 f8             	mov    0xfffffff8(%ebp),%eax
    16f3:	8b 80 d4 09 00 00    	mov    0x9d4(%eax),%eax
    16f9:	89 44 24 08          	mov    %eax,0x8(%esp,1)
    16fd:	8b 45 f8             	mov    0xfffffff8(%ebp),%eax
    1700:	8b 80 d4 09 00 00    	mov    0x9d4(%eax),%eax
    1706:	89 44 24 04          	mov    %eax,0x4(%esp,1)
    170a:	8b 45 fc             	mov    0xfffffffc(%ebp),%eax
    170d:	89 04 24             	mov    %eax,(%esp,1)
    1710:	e8 fc ff ff ff       	call   1711 <slow_start_timer+0x226>
    1715:	85 c0                	test   %eax,%eax
    1717:	75 02                	jne    171b <slow_start_timer+0x230>
    1719:	eb 4d                	jmp    1768 <slow_start_timer+0x27d>
				    findUCContinuation(sk, tp->t.byteReqNext, tp->t.byteReqNext))) {
			if(!backedOff) {
    171b:	83 7d f0 00          	cmpl   $0x0,0xfffffff0(%ebp)
    171f:	75 3c                	jne    175d <slow_start_timer+0x272>
				int newRTO = RTO_IN_JIFFIES(sk);
    1721:	8b 45 fc             	mov    0xfffffffc(%ebp),%eax
    1724:	05 bc 00 00 00       	add    $0xbc,%eax
    1729:	89 45 e4             	mov    %eax,0xffffffe4(%ebp)
    172c:	8b 45 e4             	mov    0xffffffe4(%ebp),%eax
    172f:	8b 80 d8 02 00 00    	mov    0x2d8(%eax),%eax
    1735:	c1 f8 03             	sar    $0x3,%eax
    1738:	89 45 e8             	mov    %eax,0xffffffe8(%ebp)
				newRTO = newRTO * 2;
    173b:	8b 45 e8             	mov    0xffffffe8(%ebp),%eax
    173e:	01 c0                	add    %eax,%eax
    1740:	89 45 e8             	mov    %eax,0xffffffe8(%ebp)
				RTO_FROM_JIFFIES(sk, newRTO);
    1743:	8b 45 fc             	mov    0xfffffffc(%ebp),%eax
    1746:	05 bc 00 00 00       	add    $0xbc,%eax
    174b:	89 45 e4             	mov    %eax,0xffffffe4(%ebp)
    174e:	8b 55 e4             	mov    0xffffffe4(%ebp),%edx
    1751:	8b 45 e8             	mov    0xffffffe8(%ebp),%eax
    1754:	c1 e0 03             	shl    $0x3,%eax
    1757:	89 82 d8 02 00 00    	mov    %eax,0x2d8(%edx)
			}
			resetClientTimer(sk); // 0504 - back off timer if no progress made
    175d:	8b 45 fc             	mov    0xfffffffc(%ebp),%eax
    1760:	89 04 24             	mov    %eax,(%esp,1)
    1763:	e8 fc ff ff ff       	call   1764 <slow_start_timer+0x279>
		}
		// TRICKY: If !enable_data_timeout, or no continuation findUCContinuation(), we MUST reset the timer
		// when those states become true
	}
#ifndef USERTEST
out_unlock:
	//printk("slow start timer -1\n");
	bh_unlock_sock(sk);
	sock_put(sk);
    1768:	8b 45 fc             	mov    0xfffffffc(%ebp),%eax
    176b:	89 04 24             	mov    %eax,(%esp,1)
    176e:	e8 65 7c 00 00       	call   93d8 <sock_put>
#endif // USERTEST
}
    1773:	c9                   	leave  
    1774:	c3                   	ret    

00001775 <trickles_client_connected_impl>:

static void trickles_client_connected_impl(struct sock *sk) {
    1775:	55                   	push   %ebp
    1776:	89 e5                	mov    %esp,%ebp
    1778:	83 ec 08             	sub    $0x8,%esp
	struct tcp_opt *tp = &sk->tp_pinfo.af_tcp;
    177b:	8b 45 08             	mov    0x8(%ebp),%eax
    177e:	05 bc 00 00 00       	add    $0xbc,%eax
    1783:	89 45 fc             	mov    %eax,0xfffffffc(%ebp)
	/* Called once client establishes connection */
	/*  1) Clear all timers
	   2) Initialize trickles timeout timer
	*/
#ifndef USERTEST
#if 1 // 10/04 -- duplicated earlier in initialization sequence to allow piggybacked data on synack
	tcp_clear_xmit_timers(sk);
    1786:	8b 45 08             	mov    0x8(%ebp),%eax
    1789:	89 04 24             	mov    %eax,(%esp,1)
    178c:	e8 fc ff ff ff       	call   178d <trickles_client_connected_impl+0x18>
	tp->t.slowstart_timer.function = &slow_start_timer;
    1791:	8b 45 fc             	mov    0xfffffffc(%ebp),%eax
    1794:	c7 80 58 09 00 00 00 	movl   $0x0,0x958(%eax)
    179b:	00 00 00 
	tp->t.slowstart_timer.data = (long)sk;
    179e:	8b 55 fc             	mov    0xfffffffc(%ebp),%edx
    17a1:	8b 45 08             	mov    0x8(%ebp),%eax
    17a4:	89 82 54 09 00 00    	mov    %eax,0x954(%edx)
#endif
	resetClientTimer(sk);
    17aa:	8b 45 08             	mov    0x8(%ebp),%eax
    17ad:	89 04 24             	mov    %eax,(%esp,1)
    17b0:	e8 fc ff ff ff       	call   17b1 <trickles_client_connected_impl+0x3c>
#endif // USERTEST
}
    17b5:	c9                   	leave  
    17b6:	c3                   	ret    

000017b7 <enterRecoveryState>:

inline int Sack_contains(Sack *sack, int seq);

#if 0
// replaced with rebuildAckProof (cleaner design)
static void advanceAckProof(AckProof *proof, __u32 seq) {
	int i, j;
	for(i=0; i < proof->numSacks; i++) {
		if(Sack_contains(&proof->sacks[i], seq)) {
			break;
		}
	}
	if(i == proof->numSacks) {
		printk("advanceAckProof Error: Could not find target seqnum\n");
		proof->numSacks = 0;
		return;
	}
	for(j=0; j < proof->numSacks - i; j++) {
		proof->sacks[j] = proof->sacks[i + j];
	}
	proof->numSacks = proof->numSacks - i;
}
#endif

//#define CURR_CONT(X) ((CONTINUATION_TYPE *)((X)->tp_pinfo.af_tcp.t.ack_curr ? (X)->tp_pinfo.af_tcp.t.ack_curr : (X)->tp_pinfo.af_tcp.t.ack_prev))

void AckProof_dump(AckProof *proof);
static void enterRecoveryState(struct sock *sk, int reqSlowStart) {
    17b7:	55                   	push   %ebp
    17b8:	89 e5                	mov    %esp,%ebp
    17ba:	83 ec 18             	sub    $0x18,%esp
	struct tcp_opt *tp = &sk->tp_pinfo.af_tcp;
    17bd:	8b 45 08             	mov    0x8(%ebp),%eax
    17c0:	05 bc 00 00 00       	add    $0xbc,%eax
    17c5:	89 45 fc             	mov    %eax,0xfffffffc(%ebp)
	int newRTO = RTO_IN_JIFFIES(sk);
    17c8:	8b 45 08             	mov    0x8(%ebp),%eax
    17cb:	05 bc 00 00 00       	add    $0xbc,%eax
    17d0:	89 45 f4             	mov    %eax,0xfffffff4(%ebp)
    17d3:	8b 45 f4             	mov    0xfffffff4(%ebp),%eax
    17d6:	8b 80 d8 02 00 00    	mov    0x2d8(%eax),%eax
    17dc:	c1 f8 03             	sar    $0x3,%eax
    17df:	89 45 f8             	mov    %eax,0xfffffff8(%ebp)

#ifdef SLOWSTART_ONLY
	reqSlowStart = 1;
#endif
	// enterRecoveryState may be called multiple times
	// during the same Fast Recovery, but only once per SlowStart attempt
	switch(tp->t.state) {
    17e2:	8b 45 fc             	mov    0xfffffffc(%ebp),%eax
    17e5:	8b 80 cc 02 00 00    	mov    0x2cc(%eax),%eax
    17eb:	89 45 f0             	mov    %eax,0xfffffff0(%ebp)
    17ee:	83 7d f0 02          	cmpl   $0x2,0xfffffff0(%ebp)
    17f2:	0f 84 e5 00 00 00    	je     18dd <enterRecoveryState+0x126>
    17f8:	83 7d f0 02          	cmpl   $0x2,0xfffffff0(%ebp)
    17fc:	7f 0b                	jg     1809 <enterRecoveryState+0x52>
    17fe:	83 7d f0 01          	cmpl   $0x1,0xfffffff0(%ebp)
    1802:	74 14                	je     1818 <enterRecoveryState+0x61>
    1804:	e9 eb 01 00 00       	jmp    19f4 <enterRecoveryState+0x23d>
    1809:	83 7d f0 03          	cmpl   $0x3,0xfffffff0(%ebp)
    180d:	0f 84 74 01 00 00    	je     1987 <enterRecoveryState+0x1d0>
    1813:	e9 dc 01 00 00       	jmp    19f4 <enterRecoveryState+0x23d>
	case TRICKLES_CLIENT_NORMAL:
		if(reqSlowStart) {
    1818:	83 7d 0c 00          	cmpl   $0x0,0xc(%ebp)
    181c:	74 65                	je     1883 <enterRecoveryState+0xcc>
			if(clientDebugLevel >= 1 || debugTransitions)
    181e:	83 3d 00 00 00 00 00 	cmpl   $0x0,0x0
    1825:	7f 0b                	jg     1832 <enterRecoveryState+0x7b>
    1827:	83 3d 00 00 00 00 00 	cmpl   $0x0,0x0
    182e:	75 02                	jne    1832 <enterRecoveryState+0x7b>
    1830:	eb 13                	jmp    1845 <enterRecoveryState+0x8e>
				printk("%p: Normal=>SlowStart\n", sk);
    1832:	8b 45 08             	mov    0x8(%ebp),%eax
    1835:	89 44 24 04          	mov    %eax,0x4(%esp,1)
    1839:	c7 04 24 67 06 00 00 	movl   $0x667,(%esp,1)
    1840:	e8 fc ff ff ff       	call   1841 <enterRecoveryState+0x8a>
			tp->t.state = TRICKLES_CLIENT_SLOWSTART;
    1845:	8b 45 fc             	mov    0xfffffffc(%ebp),%eax
    1848:	c7 80 cc 02 00 00 03 	movl   $0x3,0x2cc(%eax)
    184f:	00 00 00 
			newRTO *= 2;
    1852:	8b 45 f8             	mov    0xfffffff8(%ebp),%eax
    1855:	01 c0                	add    %eax,%eax
    1857:	89 45 f8             	mov    %eax,0xfffffff8(%ebp)
			tp->t.clientStateCounter++;
    185a:	8b 45 fc             	mov    0xfffffffc(%ebp),%eax
    185d:	ff 80 c8 02 00 00    	incl   0x2c8(%eax)
			tp->t.request_snd_nxt++;
    1863:	8b 45 fc             	mov    0xfffffffc(%ebp),%eax
    1866:	ff 80 60 09 00 00    	incl   0x960(%eax)
			tp->t.request_rcv_nxt = tp->t.request_snd_nxt;
    186c:	8b 55 fc             	mov    0xfffffffc(%ebp),%edx
    186f:	8b 45 fc             	mov    0xfffffffc(%ebp),%eax
    1872:	8b 80 60 09 00 00    	mov    0x960(%eax),%eax
    1878:	89 82 5c 09 00 00    	mov    %eax,0x95c(%edx)
    187e:	e9 71 01 00 00       	jmp    19f4 <enterRecoveryState+0x23d>
		} else {
			if(clientDebugLevel >= 1 || debugTransitions) {
    1883:	83 3d 00 00 00 00 00 	cmpl   $0x0,0x0
    188a:	7f 0b                	jg     1897 <enterRecoveryState+0xe0>
    188c:	83 3d 00 00 00 00 00 	cmpl   $0x0,0x0
    1893:	75 02                	jne    1897 <enterRecoveryState+0xe0>
    1895:	eb 23                	jmp    18ba <enterRecoveryState+0x103>
				printk("%p: Normal=>Recovery\n", sk);
    1897:	8b 45 08             	mov    0x8(%ebp),%eax
    189a:	89 44 24 04          	mov    %eax,0x4(%esp,1)
    189e:	c7 04 24 7e 06 00 00 	movl   $0x67e,(%esp,1)
    18a5:	e8 fc ff ff ff       	call   18a6 <enterRecoveryState+0xef>
				AckProof_dump(&tp->t.altProof);
    18aa:	8b 45 fc             	mov    0xfffffffc(%ebp),%eax
    18ad:	05 0c 06 00 00       	add    $0x60c,%eax
    18b2:	89 04 24             	mov    %eax,(%esp,1)
    18b5:	e8 fc ff ff ff       	call   18b6 <enterRecoveryState+0xff>
			}
			tp->t.state = TRICKLES_CLIENT_RECOVERY;
    18ba:	8b 45 fc             	mov    0xfffffffc(%ebp),%eax
    18bd:	c7 80 cc 02 00 00 02 	movl   $0x2,0x2cc(%eax)
    18c4:	00 00 00 
			newRTO *= 2;
    18c7:	8b 45 f8             	mov    0xfffffff8(%ebp),%eax
    18ca:	01 c0                	add    %eax,%eax
    18cc:	89 45 f8             	mov    %eax,0xfffffff8(%ebp)
			tp->t.clientStateCounter++;
    18cf:	8b 45 fc             	mov    0xfffffffc(%ebp),%eax
    18d2:	ff 80 c8 02 00 00    	incl   0x2c8(%eax)
		}
		break;
    18d8:	e9 17 01 00 00       	jmp    19f4 <enterRecoveryState+0x23d>
	case TRICKLES_CLIENT_RECOVERY:
		if(reqSlowStart) {
    18dd:	83 7d 0c 00          	cmpl   $0x0,0xc(%ebp)
    18e1:	74 65                	je     1948 <enterRecoveryState+0x191>
			tp->t.state = TRICKLES_CLIENT_SLOWSTART;
    18e3:	8b 45 fc             	mov    0xfffffffc(%ebp),%eax
    18e6:	c7 80 cc 02 00 00 03 	movl   $0x3,0x2cc(%eax)
    18ed:	00 00 00 
			newRTO *= 2;
    18f0:	8b 45 f8             	mov    0xfffffff8(%ebp),%eax
    18f3:	01 c0                	add    %eax,%eax
    18f5:	89 45 f8             	mov    %eax,0xfffffff8(%ebp)
			if(clientDebugLevel >= 1 || debugTransitions)
    18f8:	83 3d 00 00 00 00 00 	cmpl   $0x0,0x0
    18ff:	7f 0b                	jg     190c <enterRecoveryState+0x155>
    1901:	83 3d 00 00 00 00 00 	cmpl   $0x0,0x0
    1908:	75 02                	jne    190c <enterRecoveryState+0x155>
    190a:	eb 13                	jmp    191f <enterRecoveryState+0x168>
				printk("%p: Recovery=>SlowStart\n", sk);
    190c:	8b 45 08             	mov    0x8(%ebp),%eax
    190f:	89 44 24 04          	mov    %eax,0x4(%esp,1)
    1913:	c7 04 24 94 06 00 00 	movl   $0x694,(%esp,1)
    191a:	e8 fc ff ff ff       	call   191b <enterRecoveryState+0x164>
			tp->t.clientStateCounter++;
    191f:	8b 45 fc             	mov    0xfffffffc(%ebp),%eax
    1922:	ff 80 c8 02 00 00    	incl   0x2c8(%eax)
			tp->t.request_snd_nxt++;
    1928:	8b 45 fc             	mov    0xfffffffc(%ebp),%eax
    192b:	ff 80 60 09 00 00    	incl   0x960(%eax)
			tp->t.request_rcv_nxt = tp->t.request_snd_nxt;
    1931:	8b 55 fc             	mov    0xfffffffc(%ebp),%edx
    1934:	8b 45 fc             	mov    0xfffffffc(%ebp),%eax
    1937:	8b 80 60 09 00 00    	mov    0x960(%eax),%eax
    193d:	89 82 5c 09 00 00    	mov    %eax,0x95c(%edx)
    1943:	e9 ac 00 00 00       	jmp    19f4 <enterRecoveryState+0x23d>
		} else {
			// already in recovery state; take no action
			if(clientDebugLevel >= 1 || debugTransitions) {
    1948:	83 3d 00 00 00 00 00 	cmpl   $0x0,0x0
    194f:	7f 0e                	jg     195f <enterRecoveryState+0x1a8>
    1951:	83 3d 00 00 00 00 00 	cmpl   $0x0,0x0
    1958:	75 05                	jne    195f <enterRecoveryState+0x1a8>
    195a:	e9 af 00 00 00       	jmp    1a0e <enterRecoveryState+0x257>
				printk("%p: Recovery=>Recovery\n", sk);
    195f:	8b 45 08             	mov    0x8(%ebp),%eax
    1962:	89 44 24 04          	mov    %eax,0x4(%esp,1)
    1966:	c7 04 24 ad 06 00 00 	movl   $0x6ad,(%esp,1)
    196d:	e8 fc ff ff ff       	call   196e <enterRecoveryState+0x1b7>
				AckProof_dump(&tp->t.altProof);
    1972:	8b 45 fc             	mov    0xfffffffc(%ebp),%eax
    1975:	05 0c 06 00 00       	add    $0x60c,%eax
    197a:	89 04 24             	mov    %eax,(%esp,1)
    197d:	e8 fc ff ff ff       	call   197e <enterRecoveryState+0x1c7>
			}
			// DO NOT UPDATE CLIENTSTATE COUNTER (or any other state)
			return;
    1982:	e9 87 00 00 00       	jmp    1a0e <enterRecoveryState+0x257>
		}
		break;
	case TRICKLES_CLIENT_SLOWSTART:
		BUG_TRAP(reqSlowStart);
    1987:	83 7d 0c 00          	cmpl   $0x0,0xc(%ebp)
    198b:	75 14                	jne    19a1 <enterRecoveryState+0x1ea>
    198d:	c7 44 24 04 fb 03 00 	movl   $0x3fb,0x4(%esp,1)
    1994:	00 
    1995:	c7 04 24 e0 06 00 00 	movl   $0x6e0,(%esp,1)
    199c:	e8 fc ff ff ff       	call   199d <enterRecoveryState+0x1e6>
		newRTO *= 2;
    19a1:	8b 45 f8             	mov    0xfffffff8(%ebp),%eax
    19a4:	01 c0                	add    %eax,%eax
    19a6:	89 45 f8             	mov    %eax,0xfffffff8(%ebp)
		if(clientDebugLevel >= 1 || debugTransitions)
    19a9:	83 3d 00 00 00 00 00 	cmpl   $0x0,0x0
    19b0:	7f 0b                	jg     19bd <enterRecoveryState+0x206>
    19b2:	83 3d 00 00 00 00 00 	cmpl   $0x0,0x0
    19b9:	75 02                	jne    19bd <enterRecoveryState+0x206>
    19bb:	eb 13                	jmp    19d0 <enterRecoveryState+0x219>
			printk("%p: SlowStart=>SlowStart\n", sk);
    19bd:	8b 45 08             	mov    0x8(%ebp),%eax
    19c0:	89 44 24 04          	mov    %eax,0x4(%esp,1)
    19c4:	c7 04 24 1b 07 00 00 	movl   $0x71b,(%esp,1)
    19cb:	e8 fc ff ff ff       	call   19cc <enterRecoveryState+0x215>
		// Unlike client_recovery=>client_recovery transition,
		// take action: send another slow start request
		tp->t.clientStateCounter++;
    19d0:	8b 45 fc             	mov    0xfffffffc(%ebp),%eax
    19d3:	ff 80 c8 02 00 00    	incl   0x2c8(%eax)
		tp->t.request_snd_nxt++;
    19d9:	8b 45 fc             	mov    0xfffffffc(%ebp),%eax
    19dc:	ff 80 60 09 00 00    	incl   0x960(%eax)
		tp->t.request_rcv_nxt = tp->t.request_snd_nxt;
    19e2:	8b 55 fc             	mov    0xfffffffc(%ebp),%edx
    19e5:	8b 45 fc             	mov    0xfffffffc(%ebp),%eax
    19e8:	8b 80 60 09 00 00    	mov    0x960(%eax),%eax
    19ee:	89 82 5c 09 00 00    	mov    %eax,0x95c(%edx)
		break;
	}

	RTO_FROM_JIFFIES(sk, newRTO);
    19f4:	8b 45 08             	mov    0x8(%ebp),%eax
    19f7:	05 bc 00 00 00       	add    $0xbc,%eax
    19fc:	89 45 f4             	mov    %eax,0xfffffff4(%ebp)
    19ff:	8b 55 f4             	mov    0xfffffff4(%ebp),%edx
    1a02:	8b 45 f8             	mov    0xfffffff8(%ebp),%eax
    1a05:	c1 e0 03             	shl    $0x3,%eax
    1a08:	89 82 d8 02 00 00    	mov    %eax,0x2d8(%edx)
}
    1a0e:	c9                   	leave  
    1a0f:	c3                   	ret    

00001a10 <ContList_insert>:

#define NEWER(S0,S1) ((S0)>(S1))
static void ContList_insert(struct sock *sk, CONTINUATION_TYPE *cont) {
    1a10:	55                   	push   %ebp
    1a11:	89 e5                	mov    %esp,%ebp
    1a13:	83 ec 28             	sub    $0x28,%esp
	struct tcp_opt *tp = &sk->tp_pinfo.af_tcp;
    1a16:	8b 45 08             	mov    0x8(%ebp),%eax
    1a19:	05 bc 00 00 00       	add    $0xbc,%eax
    1a1e:	89 45 fc             	mov    %eax,0xfffffffc(%ebp)
	CONTINUATION_TYPE *cont_curs, *currentVal = cont, *newCont;
    1a21:	8b 45 0c             	mov    0xc(%ebp),%eax
    1a24:	89 45 f4             	mov    %eax,0xfffffff4(%ebp)
	/* sorted insert into cont list */
	int replaced = 0;
    1a27:	c7 45 ec 00 00 00 00 	movl   $0x0,0xffffffec(%ebp)
	int replaceAckPrev = 0;
    1a2e:	c7 45 e8 00 00 00 00 	movl   $0x0,0xffffffe8(%ebp)
	if(tp->t.previous_base > cont->TCPBase) {
    1a35:	8b 45 fc             	mov    0xfffffffc(%ebp),%eax
    1a38:	8b 55 0c             	mov    0xc(%ebp),%edx
    1a3b:	8b 80 e4 02 00 00    	mov    0x2e4(%eax),%eax
    1a41:	3b 42 6c             	cmp    0x6c(%edx),%eax
    1a44:	76 23                	jbe    1a69 <ContList_insert+0x59>
		printk("previous base > cont->TCPBase. clientstate %d clientstatecounter %d\n", cont->clientState, tp->t.clientStateCounter);
    1a46:	8b 45 fc             	mov    0xfffffffc(%ebp),%eax
    1a49:	8b 80 c8 02 00 00    	mov    0x2c8(%eax),%eax
    1a4f:	89 44 24 08          	mov    %eax,0x8(%esp,1)
    1a53:	8b 45 0c             	mov    0xc(%ebp),%eax
    1a56:	8b 40 38             	mov    0x38(%eax),%eax
    1a59:	89 44 24 04          	mov    %eax,0x4(%esp,1)
    1a5d:	c7 04 24 40 07 00 00 	movl   $0x740,(%esp,1)
    1a64:	e8 fc ff ff ff       	call   1a65 <ContList_insert+0x55>
	}
	for(cont_curs = (CONTINUATION_TYPE*)tp->t.cont_list.prev;
    1a69:	8b 45 fc             	mov    0xfffffffc(%ebp),%eax
    1a6c:	8b 80 34 09 00 00    	mov    0x934(%eax),%eax
    1a72:	89 45 f8             	mov    %eax,0xfffffff8(%ebp)
    1a75:	8b 45 fc             	mov    0xfffffffc(%ebp),%eax
    1a78:	05 34 09 00 00       	add    $0x934,%eax
    1a7d:	39 45 f8             	cmp    %eax,0xfffffff8(%ebp)
    1a80:	75 02                	jne    1a84 <ContList_insert+0x74>
    1a82:	eb 1a                	jmp    1a9e <ContList_insert+0x8e>
	    cont_curs != (CONTINUATION_TYPE*)&tp->t.cont_list;
	    cont_curs=cont_curs->prev) {
		if(cont_curs->seq < cont->seq)
    1a84:	8b 45 f8             	mov    0xfffffff8(%ebp),%eax
    1a87:	8b 55 0c             	mov    0xc(%ebp),%edx
    1a8a:	8b 40 30             	mov    0x30(%eax),%eax
    1a8d:	3b 42 30             	cmp    0x30(%edx),%eax
    1a90:	73 02                	jae    1a94 <ContList_insert+0x84>
			break;
    1a92:	eb 0a                	jmp    1a9e <ContList_insert+0x8e>
    1a94:	8b 45 f8             	mov    0xfffffff8(%ebp),%eax
    1a97:	8b 00                	mov    (%eax),%eax
    1a99:	89 45 f8             	mov    %eax,0xfffffff8(%ebp)
    1a9c:	eb d7                	jmp    1a75 <ContList_insert+0x65>
	}
	if(cont_curs->next != (CONTINUATION_TYPE*)&tp->t.cont_list &&
    1a9e:	8b 55 f8             	mov    0xfffffff8(%ebp),%edx
    1aa1:	8b 45 fc             	mov    0xfffffffc(%ebp),%eax
    1aa4:	05 34 09 00 00       	add    $0x934,%eax
    1aa9:	39 42 04             	cmp    %eax,0x4(%edx)
    1aac:	0f 84 f4 00 00 00    	je     1ba6 <ContList_insert+0x196>
    1ab2:	8b 45 f8             	mov    0xfffffff8(%ebp),%eax
    1ab5:	8b 40 04             	mov    0x4(%eax),%eax
    1ab8:	8b 55 0c             	mov    0xc(%ebp),%edx
    1abb:	8b 40 30             	mov    0x30(%eax),%eax
    1abe:	3b 42 30             	cmp    0x30(%edx),%eax
    1ac1:	0f 85 df 00 00 00    	jne    1ba6 <ContList_insert+0x196>
	   cont_curs->next->seq == cont->seq) {
		CONTINUATION_TYPE *dup = cont_curs->next;
    1ac7:	8b 45 f8             	mov    0xfffffff8(%ebp),%eax
    1aca:	8b 40 04             	mov    0x4(%eax),%eax
    1acd:	89 45 e4             	mov    %eax,0xffffffe4(%ebp)
		if(NEWER(cont->clientState, dup->clientState)) {
    1ad0:	8b 45 0c             	mov    0xc(%ebp),%eax
    1ad3:	8b 55 e4             	mov    0xffffffe4(%ebp),%edx
    1ad6:	8b 40 38             	mov    0x38(%eax),%eax
    1ad9:	3b 42 38             	cmp    0x38(%edx),%eax
    1adc:	0f 86 80 00 00 00    	jbe    1b62 <ContList_insert+0x152>
			newCont = copyClientSide_Continuation(cont, GFP_ATOMIC);
    1ae2:	c7 44 24 04 20 00 00 	movl   $0x20,0x4(%esp,1)
    1ae9:	00 
    1aea:	8b 45 0c             	mov    0xc(%ebp),%eax
    1aed:	89 04 24             	mov    %eax,(%esp,1)
    1af0:	e8 ae 83 00 00       	call   9ea3 <copyClientSide_Continuation>
    1af5:	89 45 f0             	mov    %eax,0xfffffff0(%ebp)
			if(newCont == NULL) {
    1af8:	83 7d f0 00          	cmpl   $0x0,0xfffffff0(%ebp)
    1afc:	75 11                	jne    1b0f <ContList_insert+0xff>
				printk("ContList_Insert(1); out of memory\n");
    1afe:	c7 04 24 a0 07 00 00 	movl   $0x7a0,(%esp,1)
    1b05:	e8 fc ff ff ff       	call   1b06 <ContList_insert+0xf6>
				goto skip_insert;
    1b0a:	e9 9d 01 00 00       	jmp    1cac <ContList_insert+0x29c>
			}

			replaced = 1;
    1b0f:	c7 45 ec 01 00 00 00 	movl   $0x1,0xffffffec(%ebp)
			// get rid of old one
			if(tp->t.ack_prev == dup)
    1b16:	8b 45 fc             	mov    0xfffffffc(%ebp),%eax
    1b19:	8b 80 f4 02 00 00    	mov    0x2f4(%eax),%eax
    1b1f:	3b 45 e4             	cmp    0xffffffe4(%ebp),%eax
    1b22:	75 07                	jne    1b2b <ContList_insert+0x11b>
				replaceAckPrev = 1;
    1b24:	c7 45 e8 01 00 00 00 	movl   $0x1,0xffffffe8(%ebp)
			if(clientDebugLevel >= 2)
    1b2b:	83 3d 00 00 00 00 01 	cmpl   $0x1,0x0
    1b32:	7e 16                	jle    1b4a <ContList_insert+0x13a>
				printk("Got rid of old cont %u\n", dup->seq);
    1b34:	8b 45 e4             	mov    0xffffffe4(%ebp),%eax
    1b37:	8b 40 30             	mov    0x30(%eax),%eax
    1b3a:	89 44 24 04          	mov    %eax,0x4(%esp,1)
    1b3e:	c7 04 24 c3 07 00 00 	movl   $0x7c3,(%esp,1)
    1b45:	e8 fc ff ff ff       	call   1b46 <ContList_insert+0x136>
			unlinkCont(dup);
    1b4a:	8b 45 e4             	mov    0xffffffe4(%ebp),%eax
    1b4d:	89 04 24             	mov    %eax,(%esp,1)
    1b50:	e8 c4 90 00 00       	call   ac19 <unlinkCont>
			MARK_PC(dup);
			freeClientSide_Continuation(dup);
    1b55:	8b 45 e4             	mov    0xffffffe4(%ebp),%eax
    1b58:	89 04 24             	mov    %eax,(%esp,1)
    1b5b:	e8 cf 84 00 00       	call   a02f <freeClientSide_Continuation>
			goto skip_alloc;
    1b60:	eb 71                	jmp    1bd3 <ContList_insert+0x1c3>
		} else {
			// dont use new one
			if(tp->t.ack_prev == cont)
    1b62:	8b 45 fc             	mov    0xfffffffc(%ebp),%eax
    1b65:	8b 80 f4 02 00 00    	mov    0x2f4(%eax),%eax
    1b6b:	3b 45 0c             	cmp    0xc(%ebp),%eax
    1b6e:	75 0c                	jne    1b7c <ContList_insert+0x16c>
				printk("ContList_insert: invalid condition\n");
    1b70:	c7 04 24 e0 07 00 00 	movl   $0x7e0,(%esp,1)
    1b77:	e8 fc ff ff ff       	call   1b78 <ContList_insert+0x168>
			if(clientDebugLevel >= 2)
    1b7c:	83 3d 00 00 00 00 01 	cmpl   $0x1,0x0
    1b83:	7e 16                	jle    1b9b <ContList_insert+0x18b>
				printk("Got rid of new cont %u\n", cont->seq);
    1b85:	8b 45 0c             	mov    0xc(%ebp),%eax
    1b88:	8b 40 30             	mov    0x30(%eax),%eax
    1b8b:	89 44 24 04          	mov    %eax,0x4(%esp,1)
    1b8f:	c7 04 24 04 08 00 00 	movl   $0x804,(%esp,1)
    1b96:	e8 fc ff ff ff       	call   1b97 <ContList_insert+0x187>
			currentVal = dup;
    1b9b:	8b 45 e4             	mov    0xffffffe4(%ebp),%eax
    1b9e:	89 45 f4             	mov    %eax,0xfffffff4(%ebp)
			goto skip_insert;
    1ba1:	e9 06 01 00 00       	jmp    1cac <ContList_insert+0x29c>
		}
	}
	/* create copy for transport-level acking and processing */
	newCont = copyClientSide_Continuation(cont, GFP_ATOMIC);
    1ba6:	c7 44 24 04 20 00 00 	movl   $0x20,0x4(%esp,1)
    1bad:	00 
    1bae:	8b 45 0c             	mov    0xc(%ebp),%eax
    1bb1:	89 04 24             	mov    %eax,(%esp,1)
    1bb4:	e8 ea 82 00 00       	call   9ea3 <copyClientSide_Continuation>
    1bb9:	89 45 f0             	mov    %eax,0xfffffff0(%ebp)
	if(newCont == NULL) {
    1bbc:	83 7d f0 00          	cmpl   $0x0,0xfffffff0(%ebp)
    1bc0:	75 11                	jne    1bd3 <ContList_insert+0x1c3>
		printk("ContList_Insert: Out of memory\n");
    1bc2:	c7 04 24 20 08 00 00 	movl   $0x820,(%esp,1)
    1bc9:	e8 fc ff ff ff       	call   1bca <ContList_insert+0x1ba>
		goto skip_insert;
    1bce:	e9 d9 00 00 00       	jmp    1cac <ContList_insert+0x29c>
	}
	skip_alloc:
	newCont->mark |= 0x2;
    1bd3:	8b 55 f0             	mov    0xfffffff0(%ebp),%edx
    1bd6:	8b 45 f0             	mov    0xfffffff0(%ebp),%eax
    1bd9:	8b 80 e4 00 00 00    	mov    0xe4(%eax),%eax
    1bdf:	83 c8 02             	or     $0x2,%eax
    1be2:	89 82 e4 00 00 00    	mov    %eax,0xe4(%edx)

	// don't need user-level data while performing transport-level processing
	newCont->ucont_data = NULL;
    1be8:	8b 45 f0             	mov    0xfffffff0(%ebp),%eax
    1beb:	c7 40 7c 00 00 00 00 	movl   $0x0,0x7c(%eax)
	newCont->input = NULL;
    1bf2:	8b 45 f0             	mov    0xfffffff0(%ebp),%eax
    1bf5:	c7 80 98 00 00 00 00 	movl   $0x0,0x98(%eax)
    1bfc:	00 00 00 
	//printk("contlist_insert: newCont %p cont %p\n", newCont, cont);
	insert((struct alloc_head*)newCont, (struct alloc_head*)cont_curs, (struct alloc_head*)cont_curs->next);
    1bff:	8b 45 f8             	mov    0xfffffff8(%ebp),%eax
    1c02:	8b 40 04             	mov    0x4(%eax),%eax
    1c05:	89 44 24 08          	mov    %eax,0x8(%esp,1)
    1c09:	8b 45 f8             	mov    0xfffffff8(%ebp),%eax
    1c0c:	89 44 24 04          	mov    %eax,0x4(%esp,1)
    1c10:	8b 45 f0             	mov    0xfffffff0(%ebp),%eax
    1c13:	89 04 24             	mov    %eax,(%esp,1)
    1c16:	e8 17 77 00 00       	call   9332 <insert>
	if(replaceAckPrev || tp->t.ack_prev == cont) {
    1c1b:	83 7d e8 00          	cmpl   $0x0,0xffffffe8(%ebp)
    1c1f:	75 10                	jne    1c31 <ContList_insert+0x221>
    1c21:	8b 45 fc             	mov    0xfffffffc(%ebp),%eax
    1c24:	8b 80 f4 02 00 00    	mov    0x2f4(%eax),%eax
    1c2a:	3b 45 0c             	cmp    0xc(%ebp),%eax
    1c2d:	74 02                	je     1c31 <ContList_insert+0x221>
    1c2f:	eb 0c                	jmp    1c3d <ContList_insert+0x22d>
		tp->t.ack_prev = newCont;
    1c31:	8b 55 fc             	mov    0xfffffffc(%ebp),%edx
    1c34:	8b 45 f0             	mov    0xfffffff0(%ebp),%eax
    1c37:	89 82 f4 02 00 00    	mov    %eax,0x2f4(%edx)
		INTEGRITY_CHECK(sk, tp->t.ack_prev);
		SAVE_ACK_PREV(tp);
	}
	if(!(!tp->t.ack_prev || tp->t.ack_prev->next)) {
    1c3d:	8b 45 fc             	mov    0xfffffffc(%ebp),%eax
    1c40:	83 b8 f4 02 00 00 00 	cmpl   $0x0,0x2f4(%eax)
    1c47:	74 63                	je     1cac <ContList_insert+0x29c>
    1c49:	8b 45 fc             	mov    0xfffffffc(%ebp),%eax
    1c4c:	8b 80 f4 02 00 00    	mov    0x2f4(%eax),%eax
    1c52:	83 78 04 00          	cmpl   $0x0,0x4(%eax)
    1c56:	75 54                	jne    1cac <ContList_insert+0x29c>
		// 0429
		BUG_TRAP((!tp->t.ack_prev || tp->t.ack_prev->next));
    1c58:	8b 45 fc             	mov    0xfffffffc(%ebp),%eax
    1c5b:	83 b8 f4 02 00 00 00 	cmpl   $0x0,0x2f4(%eax)
    1c62:	74 23                	je     1c87 <ContList_insert+0x277>
    1c64:	8b 45 fc             	mov    0xfffffffc(%ebp),%eax
    1c67:	8b 80 f4 02 00 00    	mov    0x2f4(%eax),%eax
    1c6d:	83 78 04 00          	cmpl   $0x0,0x4(%eax)
    1c71:	75 14                	jne    1c87 <ContList_insert+0x277>
    1c73:	c7 44 24 04 4d 04 00 	movl   $0x44d,0x4(%esp,1)
    1c7a:	00 
    1c7b:	c7 04 24 40 08 00 00 	movl   $0x840,(%esp,1)
    1c82:	e8 fc ff ff ff       	call   1c83 <ContList_insert+0x273>
		BUG();
    1c87:	c7 44 24 04 39 00 00 	movl   $0x39,0x4(%esp,1)
    1c8e:	00 
    1c8f:	c7 04 24 3d 00 00 00 	movl   $0x3d,(%esp,1)
    1c96:	e8 fc ff ff ff       	call   1c97 <ContList_insert+0x287>
    1c9b:	c7 04 24 00 00 00 00 	movl   $0x0,(%esp,1)
    1ca2:	e8 fc ff ff ff       	call   1ca3 <ContList_insert+0x293>
    1ca7:	e8 fc ff ff ff       	call   1ca8 <ContList_insert+0x298>
	}
 skip_insert:
	;
}
    1cac:	c9                   	leave  
    1cad:	c3                   	ret    

00001cae <freeRequest>:

int breakpoint_seq = -1;
int paranoia = 0;

#if 0
struct Request *copyRequest(struct Request *req) {
	struct Request *rval;
	switch(req->type) {
	case MREQ_CONTINUATION: {
		struct ContinuationRequest *contReq = (struct ContinuationRequest *)req, *newContReq;
		newContReq = kmalloc_ContinuationRequest(GFP_ATOMIC);
		if(newContReq == NULL) {
			printk("Out of memory while copying request\n");
			return NULL;
		}
		*newContReq = *contReq;
		newContReq->conts = kmalloc(sizeof(newContReq->conts[0]) * newContReq->numConts, GFP_ATOMIC);
		if(newContReq->conts == NULL) {
			printk("Out of memory while copying request\n");
			kfree(newContReq);
			return NULL;
		}
		memcpy(newContReq->conts, contReq->conts, sizeof(contReq->conts[0]) * contReq->numConts);
		rval = (struct Request *)newContReq;
		break;
	}
	case MREQ_CONVERSION: {
		struct ConversionRequest *convReq = (struct ConversionRequest *)req, *newConvReq;
		newConvReq = kmalloc_ConversionRequest(GFP_ATOMIC);
		if(newConvReq == NULL) {
			printk("Out of memory while copying request\n");
			return NULL;
		}
		*newConvReq = *convReq;
		rval = (struct Request*)newConvReq;
		break;
	}
	default:
		rval = NULL;
		BUG();
	}
	rval->prev = rval->next = NULL;
	rval->list = NULL;
	return rval;
}
#endif

void freeRequest(struct Request *req) {
    1cae:	55                   	push   %ebp
    1caf:	89 e5                	mov    %esp,%ebp
    1cb1:	83 ec 14             	sub    $0x14,%esp
	BUG_TRAP(req->allocated);
    1cb4:	8b 45 08             	mov    0x8(%ebp),%eax
    1cb7:	0f b6 40 48          	movzbl 0x48(%eax),%eax
    1cbb:	d0 e8                	shr    %al
    1cbd:	0f b6 c0             	movzbl %al,%eax
    1cc0:	83 e0 01             	and    $0x1,%eax
    1cc3:	85 c0                	test   %eax,%eax
    1cc5:	75 14                	jne    1cdb <freeRequest+0x2d>
    1cc7:	c7 44 24 04 83 04 00 	movl   $0x483,0x4(%esp,1)
    1cce:	00 
    1ccf:	c7 04 24 a0 08 00 00 	movl   $0x8a0,(%esp,1)
    1cd6:	e8 fc ff ff ff       	call   1cd7 <freeRequest+0x29>
	req->allocated = 0;
    1cdb:	8b 45 08             	mov    0x8(%ebp),%eax
    1cde:	80 60 48 fd          	andb   $0xfd,0x48(%eax)

	switch(req->type) {
    1ce2:	8b 45 08             	mov    0x8(%ebp),%eax
    1ce5:	8b 40 0c             	mov    0xc(%eax),%eax
    1ce8:	89 45 f4             	mov    %eax,0xfffffff4(%ebp)
    1ceb:	83 7d f4 00          	cmpl   $0x0,0xfffffff4(%ebp)
    1cef:	74 24                	je     1d15 <freeRequest+0x67>
    1cf1:	83 7d f4 01          	cmpl   $0x1,0xfffffff4(%ebp)
    1cf5:	74 02                	je     1cf9 <freeRequest+0x4b>
    1cf7:	eb 74                	jmp    1d6d <freeRequest+0xbf>
	case MREQ_CONTINUATION: {
		struct ContinuationRequest *contReq = (struct ContinuationRequest *)req;
    1cf9:	8b 45 08             	mov    0x8(%ebp),%eax
    1cfc:	89 45 fc             	mov    %eax,0xfffffffc(%ebp)
		/* need to deallocate continuation array */
		kfree(contReq->conts);
    1cff:	8b 45 fc             	mov    0xfffffffc(%ebp),%eax
    1d02:	8b 40 58             	mov    0x58(%eax),%eax
    1d05:	89 04 24             	mov    %eax,(%esp,1)
    1d08:	e8 fc ff ff ff       	call   1d09 <freeRequest+0x5b>
		numContinuationRequests--;
    1d0d:	ff 0d 00 00 00 00    	decl   0x0
		break;
    1d13:	eb 7d                	jmp    1d92 <freeRequest+0xe4>
	}
	case MREQ_CONVERSION: {
		struct ConversionRequest *convReq = (struct ConversionRequest *)req;
    1d15:	8b 45 08             	mov    0x8(%ebp),%eax
    1d18:	89 45 fc             	mov    %eax,0xfffffffc(%ebp)
		/* skb references are dropped when snd_una is advanced, so don't perform that deallocation here */
		if(convReq->incomplete) {
    1d1b:	8b 45 fc             	mov    0xfffffffc(%ebp),%eax
    1d1e:	83 78 54 00          	cmpl   $0x0,0x54(%eax)
    1d22:	74 10                	je     1d34 <freeRequest+0x86>
			kfree(convReq->incompletePred);
    1d24:	8b 45 fc             	mov    0xfffffffc(%ebp),%eax
    1d27:	8b 40 64             	mov    0x64(%eax),%eax
    1d2a:	89 04 24             	mov    %eax,(%esp,1)
    1d2d:	e8 fc ff ff ff       	call   1d2e <freeRequest+0x80>
    1d32:	eb 31                	jmp    1d65 <freeRequest+0xb7>
		} else {
			UC_CONTINUATION_TRYFREE(convReq->completePred);
    1d34:	c7 45 f8 00 00 00 00 	movl   $0x0,0xfffffff8(%ebp)
    1d3b:	8b 45 fc             	mov    0xfffffffc(%ebp),%eax
    1d3e:	8b 40 64             	mov    0x64(%eax),%eax
    1d41:	83 c0 24             	add    $0x24,%eax
    1d44:	89 04 24             	mov    %eax,(%esp,1)
    1d47:	e8 a8 6e 00 00       	call   8bf4 <atomic_dec_and_test>
    1d4c:	85 c0                	test   %eax,%eax
    1d4e:	74 15                	je     1d65 <freeRequest+0xb7>
    1d50:	8b 45 fc             	mov    0xfffffffc(%ebp),%eax
    1d53:	8b 40 64             	mov    0x64(%eax),%eax
    1d56:	89 04 24             	mov    %eax,(%esp,1)
    1d59:	e8 fc ff ff ff       	call   1d5a <freeRequest+0xac>
    1d5e:	c7 45 f8 01 00 00 00 	movl   $0x1,0xfffffff8(%ebp)
		}
		numConversionRequests--;
    1d65:	ff 0d 68 00 00 00    	decl   0x68
		break;
    1d6b:	eb 25                	jmp    1d92 <freeRequest+0xe4>
	}
	default:
		BUG();
    1d6d:	c7 44 24 04 39 00 00 	movl   $0x39,0x4(%esp,1)
    1d74:	00 
    1d75:	c7 04 24 3d 00 00 00 	movl   $0x3d,(%esp,1)
    1d7c:	e8 fc ff ff ff       	call   1d7d <freeRequest+0xcf>
    1d81:	c7 04 24 00 00 00 00 	movl   $0x0,(%esp,1)
    1d88:	e8 fc ff ff ff       	call   1d89 <freeRequest+0xdb>
    1d8d:	e8 fc ff ff ff       	call   1d8e <freeRequest+0xe0>
	}
	BUG_TRAP(!req->list);
    1d92:	8b 45 08             	mov    0x8(%ebp),%eax
    1d95:	83 78 08 00          	cmpl   $0x0,0x8(%eax)
    1d99:	74 14                	je     1daf <freeRequest+0x101>
    1d9b:	c7 44 24 04 9c 04 00 	movl   $0x49c,0x4(%esp,1)
    1da2:	00 
    1da3:	c7 04 24 e0 08 00 00 	movl   $0x8e0,(%esp,1)
    1daa:	e8 fc ff ff ff       	call   1dab <freeRequest+0xfd>
	kfree(req);
    1daf:	8b 45 08             	mov    0x8(%ebp),%eax
    1db2:	89 04 24             	mov    %eax,(%esp,1)
    1db5:	e8 fc ff ff ff       	call   1db6 <freeRequest+0x108>
}
    1dba:	c9                   	leave  
    1dbb:	c3                   	ret    

00001dbc <pushRequests>:

inline void pushRequests(struct sock *sk) {
    1dbc:	55                   	push   %ebp
    1dbd:	89 e5                	mov    %esp,%ebp
    1dbf:	83 ec 08             	sub    $0x8,%esp
	/* Try to send an ack */
	trickles_send_ack_impl(sk, 0);
    1dc2:	c7 44 24 04 00 00 00 	movl   $0x0,0x4(%esp,1)
    1dc9:	00 
    1dca:	8b 45 08             	mov    0x8(%ebp),%eax
    1dcd:	89 04 24             	mov    %eax,(%esp,1)
    1dd0:	e8 fc ff ff ff       	call   1dd1 <pushRequests+0x15>
}
    1dd5:	c9                   	leave  
    1dd6:	c3                   	ret    

00001dd7 <queueConversionRequests>:

static inline void cleanTxQueue(struct sock *sk) {
	struct tcp_opt *tp = &sk->tp_pinfo.af_tcp;
	struct sk_buff *skb = NULL;
	for(skb = tp->t.requestBytes.next; skb != (struct sk_buff*)&tp->t.requestBytes; skb = skb->next) {
		if(TCP_SKB_CB(skb)->end_seq <= tp->t.snd_una) {
			struct sk_buff *clean = skb;
			skb = skb->prev;
			__skb_unlink(clean, &tp->t.requestBytes);
			kfree_skb(clean);
		}
	}
}

void queueConversionRequests(struct sock *sk) {
    1dd7:	55                   	push   %ebp
    1dd8:	89 e5                	mov    %esp,%ebp
    1dda:	83 ec 24             	sub    $0x24,%esp
	struct tcp_opt *tp = &sk->tp_pinfo.af_tcp;
    1ddd:	8b 45 08             	mov    0x8(%ebp),%eax
    1de0:	05 bc 00 00 00       	add    $0xbc,%eax
    1de5:	89 45 fc             	mov    %eax,0xfffffffc(%ebp)
	struct ConversionRequest *req;
	struct sk_buff *skb = NULL;
    1de8:	c7 45 f4 00 00 00 00 	movl   $0x0,0xfffffff4(%ebp)
	int found = 0;
    1def:	c7 45 f0 00 00 00 00 	movl   $0x0,0xfffffff0(%ebp)
	BUG_TRAP(tp->t.write_seq - tp->t.snd_una > 0);
    1df6:	8b 45 fc             	mov    0xfffffffc(%ebp),%eax
    1df9:	8b 55 fc             	mov    0xfffffffc(%ebp),%edx
    1dfc:	8b 80 e8 09 00 00    	mov    0x9e8(%eax),%eax
    1e02:	3b 82 e0 09 00 00    	cmp    0x9e0(%edx),%eax
    1e08:	75 14                	jne    1e1e <queueConversionRequests+0x47>
    1e0a:	c7 44 24 04 b7 04 00 	movl   $0x4b7,0x4(%esp,1)
    1e11:	00 
    1e12:	c7 04 24 20 09 00 00 	movl   $0x920,(%esp,1)
    1e19:	e8 fc ff ff ff       	call   1e1a <queueConversionRequests+0x43>
	req = kmalloc_ConversionRequest(GFP_ATOMIC);
    1e1e:	c7 04 24 20 00 00 00 	movl   $0x20,(%esp,1)
    1e25:	e8 fc ff ff ff       	call   1e26 <queueConversionRequests+0x4f>
    1e2a:	89 45 f8             	mov    %eax,0xfffffff8(%ebp)
	if(req == NULL) {
    1e2d:	83 7d f8 00          	cmpl   $0x0,0xfffffff8(%ebp)
    1e31:	75 31                	jne    1e64 <queueConversionRequests+0x8d>
		printk("queueConversionRequests: Out of memory!\n");
    1e33:	c7 04 24 80 09 00 00 	movl   $0x980,(%esp,1)
    1e3a:	e8 fc ff ff ff       	call   1e3b <queueConversionRequests+0x64>
		BUG();
    1e3f:	c7 44 24 04 39 00 00 	movl   $0x39,0x4(%esp,1)
    1e46:	00 
    1e47:	c7 04 24 3d 00 00 00 	movl   $0x3d,(%esp,1)
    1e4e:	e8 fc ff ff ff       	call   1e4f <queueConversionRequests+0x78>
    1e53:	c7 04 24 00 00 00 00 	movl   $0x0,(%esp,1)
    1e5a:	e8 fc ff ff ff       	call   1e5b <queueConversionRequests+0x84>
    1e5f:	e8 fc ff ff ff       	call   1e60 <queueConversionRequests+0x89>
	}
	for(skb = tp->t.requestBytes.next; skb != (struct sk_buff*)&tp->t.requestBytes; skb = skb->next) {
    1e64:	8b 45 fc             	mov    0xfffffffc(%ebp),%eax
    1e67:	8b 80 ec 09 00 00    	mov    0x9ec(%eax),%eax
    1e6d:	89 45 f4             	mov    %eax,0xfffffff4(%ebp)
    1e70:	8b 45 fc             	mov    0xfffffffc(%ebp),%eax
    1e73:	05 ec 09 00 00       	add    $0x9ec,%eax
    1e78:	39 45 f4             	cmp    %eax,0xfffffff4(%ebp)
    1e7b:	75 05                	jne    1e82 <queueConversionRequests+0xab>
    1e7d:	e9 85 00 00 00       	jmp    1f07 <queueConversionRequests+0x130>
		if(TCP_SKB_CB(skb)->end_seq <= tp->t.snd_una) {
    1e82:	8b 45 f4             	mov    0xfffffff4(%ebp),%eax
    1e85:	83 c0 30             	add    $0x30,%eax
    1e88:	8b 55 fc             	mov    0xfffffffc(%ebp),%edx
    1e8b:	8b 40 14             	mov    0x14(%eax),%eax
    1e8e:	3b 82 e0 09 00 00    	cmp    0x9e0(%edx),%eax
    1e94:	77 33                	ja     1ec9 <queueConversionRequests+0xf2>
			struct sk_buff *clean = skb;
    1e96:	8b 45 f4             	mov    0xfffffff4(%ebp),%eax
    1e99:	89 45 ec             	mov    %eax,0xffffffec(%ebp)
			skb = skb->prev;
    1e9c:	8b 45 f4             	mov    0xfffffff4(%ebp),%eax
    1e9f:	8b 40 04             	mov    0x4(%eax),%eax
    1ea2:	89 45 f4             	mov    %eax,0xfffffff4(%ebp)
			__skb_unlink(clean, &tp->t.requestBytes);
    1ea5:	8b 45 fc             	mov    0xfffffffc(%ebp),%eax
    1ea8:	05 ec 09 00 00       	add    $0x9ec,%eax
    1ead:	89 44 24 04          	mov    %eax,0x4(%esp,1)
    1eb1:	8b 45 ec             	mov    0xffffffec(%ebp),%eax
    1eb4:	89 04 24             	mov    %eax,(%esp,1)
    1eb7:	e8 62 70 00 00       	call   8f1e <__skb_unlink>
			kfree_skb(clean);
    1ebc:	8b 45 ec             	mov    0xffffffec(%ebp),%eax
    1ebf:	89 04 24             	mov    %eax,(%esp,1)
    1ec2:	e8 ce 6e 00 00       	call   8d95 <kfree_skb>
    1ec7:	eb 31                	jmp    1efa <queueConversionRequests+0x123>
		} else if(SKB_CONTAINS(skb, tp->t.snd_una)) {
    1ec9:	8b 45 f4             	mov    0xfffffff4(%ebp),%eax
    1ecc:	83 c0 30             	add    $0x30,%eax
    1ecf:	8b 55 fc             	mov    0xfffffffc(%ebp),%edx
    1ed2:	8b 40 10             	mov    0x10(%eax),%eax
    1ed5:	3b 82 e0 09 00 00    	cmp    0x9e0(%edx),%eax
    1edb:	77 1d                	ja     1efa <queueConversionRequests+0x123>
    1edd:	8b 45 f4             	mov    0xfffffff4(%ebp),%eax
    1ee0:	83 c0 30             	add    $0x30,%eax
    1ee3:	8b 55 fc             	mov    0xfffffffc(%ebp),%edx
    1ee6:	8b 40 14             	mov    0x14(%eax),%eax
    1ee9:	3b 82 e0 09 00 00    	cmp    0x9e0(%edx),%eax
    1eef:	76 09                	jbe    1efa <queueConversionRequests+0x123>
			found = 1;
    1ef1:	c7 45 f0 01 00 00 00 	movl   $0x1,0xfffffff0(%ebp)
			break;
    1ef8:	eb 0d                	jmp    1f07 <queueConversionRequests+0x130>
    1efa:	8b 45 f4             	mov    0xfffffff4(%ebp),%eax
    1efd:	8b 00                	mov    (%eax),%eax
    1eff:	89 45 f4             	mov    %eax,0xfffffff4(%ebp)
    1f02:	e9 69 ff ff ff       	jmp    1e70 <queueConversionRequests+0x99>
		}
	}
	if(!found) {
    1f07:	83 7d f0 00          	cmpl   $0x0,0xfffffff0(%ebp)
    1f0b:	75 3e                	jne    1f4b <queueConversionRequests+0x174>
		printk("Could not find matching bytes to convert\n");
    1f0d:	c7 04 24 c0 09 00 00 	movl   $0x9c0,(%esp,1)
    1f14:	e8 fc ff ff ff       	call   1f15 <queueConversionRequests+0x13e>
		kfree(req);
    1f19:	8b 45 f8             	mov    0xfffffff8(%ebp),%eax
    1f1c:	89 04 24             	mov    %eax,(%esp,1)
    1f1f:	e8 fc ff ff ff       	call   1f20 <queueConversionRequests+0x149>
		BUG();
    1f24:	c7 44 24 04 39 00 00 	movl   $0x39,0x4(%esp,1)
    1f2b:	00 
    1f2c:	c7 04 24 3d 00 00 00 	movl   $0x3d,(%esp,1)
    1f33:	e8 fc ff ff ff       	call   1f34 <queueConversionRequests+0x15d>
    1f38:	c7 04 24 00 00 00 00 	movl   $0x0,(%esp,1)
    1f3f:	e8 fc ff ff ff       	call   1f40 <queueConversionRequests+0x169>
    1f44:	e8 fc ff ff ff       	call   1f45 <queueConversionRequests+0x16e>
		return;
    1f49:	eb 3e                	jmp    1f89 <queueConversionRequests+0x1b2>
	}
	initCompleteConversionRequest(req,
    1f4b:	8b 45 fc             	mov    0xfffffffc(%ebp),%eax
    1f4e:	8b 80 e0 09 00 00    	mov    0x9e0(%eax),%eax
    1f54:	89 44 24 0c          	mov    %eax,0xc(%esp,1)
    1f58:	8b 45 f4             	mov    0xfffffff4(%ebp),%eax
    1f5b:	89 44 24 08          	mov    %eax,0x8(%esp,1)
    1f5f:	8b 45 fc             	mov    0xfffffffc(%ebp),%eax
    1f62:	8b 80 fc 09 00 00    	mov    0x9fc(%eax),%eax
    1f68:	89 44 24 04          	mov    %eax,0x4(%esp,1)
    1f6c:	8b 45 f8             	mov    0xfffffff8(%ebp),%eax
    1f6f:	89 04 24             	mov    %eax,(%esp,1)
    1f72:	e8 5b 78 00 00       	call   97d2 <initCompleteConversionRequest>
				      tp->t.prevConvCont,
				      /* Data */
				      skb,
				      tp->t.snd_una);
	//printk("%p: init complete conversion request: %d-%d\n", sk, tp->t.snd_una, TCP_SKB_CB(skb)->end_seq);
	//printk("0: start = %d %d\n", tp->t.snd_una, req->start);
	queueNewRequest(sk, (struct Request *)req);
    1f77:	8b 45 f8             	mov    0xfffffff8(%ebp),%eax
    1f7a:	89 44 24 04          	mov    %eax,0x4(%esp,1)
    1f7e:	8b 45 08             	mov    0x8(%ebp),%eax
    1f81:	89 04 24             	mov    %eax,(%esp,1)
    1f84:	e8 ff 77 00 00       	call   9788 <queueNewRequest>
}
    1f89:	c9                   	leave  
    1f8a:	c3                   	ret    

00001f8b <finishIncompleteRequest>:

inline void finishIncompleteRequest(struct sock *sk) {
    1f8b:	55                   	push   %ebp
    1f8c:	89 e5                	mov    %esp,%ebp
    1f8e:	53                   	push   %ebx
    1f8f:	83 ec 1c             	sub    $0x1c,%esp
	struct tcp_opt *tp = &sk->tp_pinfo.af_tcp;
    1f92:	8b 45 08             	mov    0x8(%ebp),%eax
    1f95:	05 bc 00 00 00       	add    $0xbc,%eax
    1f9a:	89 45 f8             	mov    %eax,0xfffffff8(%ebp)
	struct ConversionRequest *req = tp->t.newIncompleteRequest;
    1f9d:	8b 45 f8             	mov    0xfffffff8(%ebp),%eax
    1fa0:	8b 80 f8 09 00 00    	mov    0x9f8(%eax),%eax
    1fa6:	89 45 f4             	mov    %eax,0xfffffff4(%ebp)
	struct sk_buff *skb;
	int found = 0;
    1fa9:	c7 45 ec 00 00 00 00 	movl   $0x0,0xffffffec(%ebp)
	if(req == NULL) {
    1fb0:	83 7d f4 00          	cmpl   $0x0,0xfffffff4(%ebp)
    1fb4:	75 31                	jne    1fe7 <finishIncompleteRequest+0x5c>
		printk("finishIncompleteRequest, but no pending incomplete request\n");
    1fb6:	c7 04 24 00 0a 00 00 	movl   $0xa00,(%esp,1)
    1fbd:	e8 fc ff ff ff       	call   1fbe <finishIncompleteRequest+0x33>
		BUG();
    1fc2:	c7 44 24 04 39 00 00 	movl   $0x39,0x4(%esp,1)
    1fc9:	00 
    1fca:	c7 04 24 3d 00 00 00 	movl   $0x3d,(%esp,1)
    1fd1:	e8 fc ff ff ff       	call   1fd2 <finishIncompleteRequest+0x47>
    1fd6:	c7 04 24 00 00 00 00 	movl   $0x0,(%esp,1)
    1fdd:	e8 fc ff ff ff       	call   1fde <finishIncompleteRequest+0x53>
    1fe2:	e8 fc ff ff ff       	call   1fe3 <finishIncompleteRequest+0x58>
	}
	BUG_TRAP(req->incomplete);
    1fe7:	8b 45 f4             	mov    0xfffffff4(%ebp),%eax
    1fea:	83 78 54 00          	cmpl   $0x0,0x54(%eax)
    1fee:	75 14                	jne    2004 <finishIncompleteRequest+0x79>
    1ff0:	c7 44 24 04 e1 04 00 	movl   $0x4e1,0x4(%esp,1)
    1ff7:	00 
    1ff8:	c7 04 24 40 0a 00 00 	movl   $0xa40,(%esp,1)
    1fff:	e8 fc ff ff ff       	call   2000 <finishIncompleteRequest+0x75>

	for(skb = tp->t.requestBytes.next; skb != (struct sk_buff*)&tp->t.requestBytes; skb = skb->next) {
    2004:	8b 45 f8             	mov    0xfffffff8(%ebp),%eax
    2007:	8b 80 ec 09 00 00    	mov    0x9ec(%eax),%eax
    200d:	89 45 f0             	mov    %eax,0xfffffff0(%ebp)
    2010:	8b 45 f8             	mov    0xfffffff8(%ebp),%eax
    2013:	05 ec 09 00 00       	add    $0x9ec,%eax
    2018:	39 45 f0             	cmp    %eax,0xfffffff0(%ebp)
    201b:	75 05                	jne    2022 <finishIncompleteRequest+0x97>
    201d:	e9 85 00 00 00       	jmp    20a7 <finishIncompleteRequest+0x11c>
		if(TCP_SKB_CB(skb)->end_seq <= tp->t.snd_una) {
    2022:	8b 45 f0             	mov    0xfffffff0(%ebp),%eax
    2025:	83 c0 30             	add    $0x30,%eax
    2028:	8b 55 f8             	mov    0xfffffff8(%ebp),%edx
    202b:	8b 40 14             	mov    0x14(%eax),%eax
    202e:	3b 82 e0 09 00 00    	cmp    0x9e0(%edx),%eax
    2034:	77 33                	ja     2069 <finishIncompleteRequest+0xde>
			struct sk_buff *clean = skb;
    2036:	8b 45 f0             	mov    0xfffffff0(%ebp),%eax
    2039:	89 45 e8             	mov    %eax,0xffffffe8(%ebp)
			skb = skb->prev;
    203c:	8b 45 f0             	mov    0xfffffff0(%ebp),%eax
    203f:	8b 40 04             	mov    0x4(%eax),%eax
    2042:	89 45 f0             	mov    %eax,0xfffffff0(%ebp)
			__skb_unlink(clean, &tp->t.requestBytes);
    2045:	8b 45 f8             	mov    0xfffffff8(%ebp),%eax
    2048:	05 ec 09 00 00       	add    $0x9ec,%eax
    204d:	89 44 24 04          	mov    %eax,0x4(%esp,1)
    2051:	8b 45 e8             	mov    0xffffffe8(%ebp),%eax
    2054:	89 04 24             	mov    %eax,(%esp,1)
    2057:	e8 c2 6e 00 00       	call   8f1e <__skb_unlink>
			kfree_skb(clean);
    205c:	8b 45 e8             	mov    0xffffffe8(%ebp),%eax
    205f:	89 04 24             	mov    %eax,(%esp,1)
    2062:	e8 2e 6d 00 00       	call   8d95 <kfree_skb>
    2067:	eb 31                	jmp    209a <finishIncompleteRequest+0x10f>
		} else if(SKB_CONTAINS(skb, tp->t.snd_una)) {
    2069:	8b 45 f0             	mov    0xfffffff0(%ebp),%eax
    206c:	83 c0 30             	add    $0x30,%eax
    206f:	8b 55 f8             	mov    0xfffffff8(%ebp),%edx
    2072:	8b 40 10             	mov    0x10(%eax),%eax
    2075:	3b 82 e0 09 00 00    	cmp    0x9e0(%edx),%eax
    207b:	77 1d                	ja     209a <finishIncompleteRequest+0x10f>
    207d:	8b 45 f0             	mov    0xfffffff0(%ebp),%eax
    2080:	83 c0 30             	add    $0x30,%eax
    2083:	8b 55 f8             	mov    0xfffffff8(%ebp),%edx
    2086:	8b 40 14             	mov    0x14(%eax),%eax
    2089:	3b 82 e0 09 00 00    	cmp    0x9e0(%edx),%eax
    208f:	76 09                	jbe    209a <finishIncompleteRequest+0x10f>
			found = 1;
    2091:	c7 45 ec 01 00 00 00 	movl   $0x1,0xffffffec(%ebp)
			break;
    2098:	eb 0d                	jmp    20a7 <finishIncompleteRequest+0x11c>
    209a:	8b 45 f0             	mov    0xfffffff0(%ebp),%eax
    209d:	8b 00                	mov    (%eax),%eax
    209f:	89 45 f0             	mov    %eax,0xfffffff0(%ebp)
    20a2:	e9 69 ff ff ff       	jmp    2010 <finishIncompleteRequest+0x85>
		}
	}
	if(!found) {
    20a7:	83 7d ec 00          	cmpl   $0x0,0xffffffec(%ebp)
    20ab:	75 33                	jne    20e0 <finishIncompleteRequest+0x155>
		printk("Could not find matching bytes to convert\n");
    20ad:	c7 04 24 c0 09 00 00 	movl   $0x9c0,(%esp,1)
    20b4:	e8 fc ff ff ff       	call   20b5 <finishIncompleteRequest+0x12a>
		BUG();
    20b9:	c7 44 24 04 39 00 00 	movl   $0x39,0x4(%esp,1)
    20c0:	00 
    20c1:	c7 04 24 3d 00 00 00 	movl   $0x3d,(%esp,1)
    20c8:	e8 fc ff ff ff       	call   20c9 <finishIncompleteRequest+0x13e>
    20cd:	c7 04 24 00 00 00 00 	movl   $0x0,(%esp,1)
    20d4:	e8 fc ff ff ff       	call   20d5 <finishIncompleteRequest+0x14a>
    20d9:	e8 fc ff ff ff       	call   20da <finishIncompleteRequest+0x14f>
		return;
    20de:	eb 79                	jmp    2159 <finishIncompleteRequest+0x1ce>
	}
	tp->t.newIncompleteRequest = NULL;
    20e0:	8b 45 f8             	mov    0xfffffff8(%ebp),%eax
    20e3:	c7 80 f8 09 00 00 00 	movl   $0x0,0x9f8(%eax)
    20ea:	00 00 00 

	req->data = skb;
    20ed:	8b 55 f4             	mov    0xfffffff4(%ebp),%edx
    20f0:	8b 45 f0             	mov    0xfffffff0(%ebp),%eax
    20f3:	89 42 58             	mov    %eax,0x58(%edx)
	req->offset = tp->t.snd_una - TCP_SKB_CB(skb)->seq;
    20f6:	8b 5d f4             	mov    0xfffffff4(%ebp),%ebx
    20f9:	8b 4d f8             	mov    0xfffffff8(%ebp),%ecx
    20fc:	8b 45 f0             	mov    0xfffffff0(%ebp),%eax
    20ff:	83 c0 30             	add    $0x30,%eax
    2102:	8b 50 10             	mov    0x10(%eax),%edx
    2105:	8b 81 e0 09 00 00    	mov    0x9e0(%ecx),%eax
    210b:	29 d0                	sub    %edx,%eax
    210d:	89 43 5c             	mov    %eax,0x5c(%ebx)
	req->start = TCP_SKB_CB(skb)->seq + req->offset;
    2110:	8b 4d f4             	mov    0xfffffff4(%ebp),%ecx
    2113:	8b 55 f0             	mov    0xfffffff0(%ebp),%edx
    2116:	83 c2 30             	add    $0x30,%edx
    2119:	8b 45 f4             	mov    0xfffffff4(%ebp),%eax
    211c:	8b 40 5c             	mov    0x5c(%eax),%eax
    211f:	03 42 10             	add    0x10(%edx),%eax
    2122:	89 41 40             	mov    %eax,0x40(%ecx)

	printk("1: start = %d\n", req->start);
    2125:	8b 45 f4             	mov    0xfffffff4(%ebp),%eax
    2128:	8b 40 40             	mov    0x40(%eax),%eax
    212b:	89 44 24 04          	mov    %eax,0x4(%esp,1)
    212f:	c7 04 24 7e 0a 00 00 	movl   $0xa7e,(%esp,1)
    2136:	e8 fc ff ff ff       	call   2137 <finishIncompleteRequest+0x1ac>

	req->end = req->start;
    213b:	8b 55 f4             	mov    0xfffffff4(%ebp),%edx
    213e:	8b 45 f4             	mov    0xfffffff4(%ebp),%eax
    2141:	8b 40 40             	mov    0x40(%eax),%eax
    2144:	89 42 44             	mov    %eax,0x44(%edx)
	queueNewRequest(sk, (struct Request*)req);
    2147:	8b 45 f4             	mov    0xfffffff4(%ebp),%eax
    214a:	89 44 24 04          	mov    %eax,0x4(%esp,1)
    214e:	8b 45 08             	mov    0x8(%ebp),%eax
    2151:	89 04 24             	mov    %eax,(%esp,1)
    2154:	e8 2f 76 00 00       	call   9788 <queueNewRequest>
}
    2159:	83 c4 1c             	add    $0x1c,%esp
    215c:	5b                   	pop    %ebx
    215d:	5d                   	pop    %ebp
    215e:	c3                   	ret    

0000215f <updateParent>:

static inline int processIncompleteResponse(struct sock *sk, struct WireUC_CVT_IncompleteResponse *incompleteResp, int responseLen) {
	/* Update conversion state, and use the incomplete
	   continuationn to generate and enqueue the request for the
	   next step in the parse */
	struct tcp_opt *tp = &sk->tp_pinfo.af_tcp;
	struct ConversionRequest *newConvReq;
	struct sk_buff *skb;
	int foundNextData = 0;
	struct WireUC_CVT_IncompleteContinuation *pred;
	unsigned predLength;
	unsigned ackSeq = ntohl(incompleteResp->ack_seq);
	int bytesConsumed = tp->t.snd_una;

	/* Need to finish this conversion. So find
	   next bytestream data to send, enqueue new
	   request in request queue */

	/* XXX This code does not gracefully handle
	   parallel parse requests */
	if(ackSeq > tp->t.snd_una) {
		tp->t.snd_una = ackSeq;
		if(tp->t.snd_una > tp->t.write_seq) {
			printk("BUG! after byte position update, snd_una %d > write_seq %d !\n", tp->t.snd_una, tp->t.write_seq);
			tp->t.snd_una = tp->t.write_seq;
			return -1;
		}
	}
	bytesConsumed = tp->t.snd_una - bytesConsumed;
	// xxx Should not be TRICKLES_MSS (more like TCP_MSS)
	if(bytesConsumed == 0 &&
	   tp->t.snd_end - tp->t.snd_una >= TRICKLES_MSS) {
		printk("Error: bytesConsumed == 0, but full MSS was sent! Forward progress cannot be made\n");
		return -1;
	}
	/* Deallocate any elements in send queue that we no longer need, and find next skb to use */
	for(skb = tp->t.requestBytes.next; skb != (struct sk_buff*)&tp->t.requestBytes; skb = skb->next) {
		if(TCP_SKB_CB(skb)->end_seq <= tp->t.snd_una) {
			struct sk_buff *clean = skb;
			skb = skb->prev;
			__skb_unlink(clean, &tp->t.requestBytes);
			kfree_skb(clean);
		}
		if(SKB_CONTAINS(skb, tp->t.snd_una)) {
			foundNextData = 1;
			break;
		}
	}
	newConvReq = kmalloc_ConversionRequest(GFP_ATOMIC);
	if(newConvReq == NULL) {
		printk("Out of memory while allocating Request to continue incomplete conversion!\n");
		return -1;
	}
	predLength = responseLen - ((char*)&incompleteResp->newCont - (char*)incompleteResp);
	pred = kmalloc_dup(&incompleteResp->newCont, predLength, GFP_ATOMIC);
	if(pred == NULL) {
		kfree(newConvReq);
		printk("kmalloc_dup() returned error\n");
		return -1;
	}
	if(!foundNextData) {
		// Defer installation of new request until data arrives from userlevel
		BUG_TRAP(tp->t.newIncompleteRequest == NULL);
		tp->t.conversionState = CONVERSION_WAITFORUSER;
		tp->t.newIncompleteRequest = newConvReq;
		initIncompleteConversionRequest(newConvReq,
						pred, predLength,
						/* no data yet */
						NULL, -1);
		//printk("process_incomplete_request set conversion state to waitforuser\n");
	} else {
		BUG_TRAP(tp->t.newIncompleteRequest == NULL);
		tp->t.conversionState = CONVERSION_WAITFORSERVER;
		tp->t.newIncompleteRequest = NULL;
		initIncompleteConversionRequest(newConvReq,
						pred, predLength,
						/* data */
						skb,
						tp->t.snd_una - TCP_SKB_CB(skb)->seq);
		queueNewRequest(sk, (struct Request*)newConvReq);
		//printk("process_incomplete_request set conversion state to waitforserver\n");
	}
	return 0;
}

#define LEFT 0
#define RIGHT 1

/* insertNewDep is used to insert a dependency into a blank range where no previous dependency ever existed */
static inline int insertNewDep(struct UC_DependencyNode *left, struct UC_DependencyNode *right, struct UC_DependencyNode *newDep, int side) {
	unsigned newStart, newEnd;
	struct UC_DependencyNode *clone;
	struct alloc_head *prev, *next;

	if(left == NULL) {
		newStart = newDep->start;
	} else {
		newStart = MAX(left->end, newDep->start);
		prev = (struct alloc_head*)left;
		next = left->next;
	}
	if(right == NULL) {
		newEnd = newDep->end;
	} else {
		newEnd = MIN(newDep->end, right->start);
		prev = right->prev;
		next = (struct alloc_head*)right;
	}
	switch(side) {
	case LEFT:
		if(right) {
			if(newDep->start >= right->start) {
				printk("insertNewDep: supposed to insert on left, but newDep is not at the left\n");
				return -1;
			}
		} else {
			printk("insertNewDep: supposed to insert on left, but nothing to the right\n");
			return -1;
		}
		break;
	case RIGHT:
		if(left) {
			if(newDep->end <= left->end) {
				printk("insertNewDep: supposed to insert on right, but newDep is not at the right\n");
				return -1;
			}
		} else {
			printk("insertNewDep: supposed to insert on right, but nothing to the left\n");
			return -1;
		}
		break;
	default:
		printk("insertNewDep: unknown side\n");
		return -1;
	}
	clone = copyUC_DependencyNode(newDep);
	if(clone == NULL) {
		printk("Out of memory while creating dependency at %d side\n", side);
		return -1;
	}
	insert((struct alloc_head*)clone, prev, next);
	return 0;
}

static inline int addNewUC_Continuation(struct sock *sk, struct UC_Continuation *newCont) {
	struct tcp_opt *tp = &sk->tp_pinfo.af_tcp;
	struct UC_Continuation *insertPos;

	// find place to insert new continuation
	alloc_head_reverse_walk(&tp->t.ucontList, insertPos) {
		/* insert the new continuation in the proper location */
		if(insertPos->clientValidStart < newCont->validStart) break;
	}
	newCont->clientValidStart = newCont->validStart;
	newCont->clientValidEnd = newCont->validEnd;

	// find intersections
	// Real validStart and validEnd should NOT be touched in this block
	struct alloc_head_list *insertionList = &tp->t.ucontList;
	insert((struct alloc_head*)newCont,
	       (struct alloc_head*)insertPos, (struct alloc_head*)insertPos->next);

	// Now, resolve overlaps
	struct UC_Continuation *finger = (struct UC_Continuation *)insertPos, *nextCont;

	if((struct alloc_head_list*)finger == insertionList) {
		finger = (struct UC_Continuation*) finger->next;
	}
	unsigned lastByte = newCont->clientValidEnd;
	for(; (struct alloc_head_list*)finger->next != insertionList; finger = nextCont) {
		nextCont = (struct UC_Continuation *)finger->next;
		unsigned start = MAX(finger->clientValidStart, nextCont->clientValidStart),
			end = MIN(finger->clientValidEnd, nextCont->clientValidEnd);
		if(start < end) {
			struct UC_Continuation *left = NULL, *middle = NULL, *right = NULL,
				*older = NULL, *newer = NULL;
			struct alloc_head *iPrev = finger->prev;
			struct alloc_head *iPrev0 = iPrev;
			struct alloc_head *iNext = nextCont->next;

			// let newest continuation take intersection
			if(finger->seq > nextCont->seq) {
				older = nextCont;
				newer = finger;
			} else {
				older = finger;
				newer = nextCont;
			}
			if(older->clientValidStart < start) {
				left = older;
			}
			middle = newer;
			if(older->clientValidEnd > end) {
				if(left == older) {
					struct UC_Continuation *older1 = copyUC_Continuation(older);
					if(older1 == NULL) {
						printk("Out of memory while splitting continuation\n");
						return -1;
					}
#if 0 // 0707 -- unclear ???
					right->prev = right->next = NULL;
					right->list = NULL;
#endif
					right = older1;
				} else {
					right = older;
				}
			} else {
				if(!left) {
					BUG_TRAP(older != NULL);
					// older completely overlapped
					unlink((struct alloc_head*)older);
					kfree(older);
				}
			}
			if(left) {
				if(left->list)
					unlink((struct alloc_head*)left);
				left->clientValidEnd = start;
			}
			if(middle) {
				if(middle->list)
					unlink((struct alloc_head*)middle);
				// no clientValid* adjustment necessary, since middle is preserved
			}
			if(right) {
				if(right->list)
					unlink((struct alloc_head*)right);
				right->clientValidStart = end;
			}
			if(left) {
				insert((struct alloc_head*)left, iPrev, iNext);
				iPrev = (struct alloc_head *)left;
			}
			if(middle) {
				insert((struct alloc_head*)middle, iPrev, iNext);
				iPrev = (struct alloc_head*)middle;
			}
			if(right) {
				insert((struct alloc_head*)right, iPrev, iNext);
				iPrev = (struct alloc_head*)right;
			}
			/* Sanity checks */
			{
				struct UC_Continuation *finger = (struct UC_Continuation*)iPrev0;
				while((struct alloc_head*)finger->next != iNext) {
					if((struct alloc_head_list*)finger != insertionList &&
					   (struct alloc_head_list*)finger->next != insertionList) {
						BUG_TRAP(finger->clientValidEnd <=
							 ((struct UC_Continuation*)finger->next)->clientValidStart);
					}
					finger = (struct UC_Continuation*)finger->next;
				}
			}
			nextCont = (struct UC_Continuation*)iPrev0; // XXX iNext->prev is a more efficient resumption point
		}
		if(end >= lastByte) {
			// no more overlaps possible
			break;
		}
	}
	// it's possible for client timer to block because we dont have continuations
	// XXX we may wish to guard this with more stringent checks to avoid unnecessary timeouts?
	resetClientTimer(sk);
	return 0;
}

void updateParent(struct sock *sk, enum UserRequestType matchType, unsigned matchID,
		 unsigned numSiblings, unsigned position,
		 unsigned start, unsigned end) {
    215f:	55                   	push   %ebp
    2160:	89 e5                	mov    %esp,%ebp
    2162:	83 ec 30             	sub    $0x30,%esp
	/* Additional POSTCONDITION:
	   tp->t.request_rcv_nxt updated
	*/
	int k;
	int foundCleanable = 0;
    2165:	c7 45 f8 00 00 00 00 	movl   $0x0,0xfffffff8(%ebp)
	struct tcp_opt *tp = &sk->tp_pinfo.af_tcp;
    216c:	8b 45 08             	mov    0x8(%ebp),%eax
    216f:	05 bc 00 00 00       	add    $0xbc,%eax
    2174:	89 45 f4             	mov    %eax,0xfffffff4(%ebp)
	struct alloc_head_list *list_heads[] = {&tp->t.sentRequests,
    2177:	8b 45 f4             	mov    0xfffffff4(%ebp),%eax
    217a:	05 84 09 00 00       	add    $0x984,%eax
    217f:	89 45 ec             	mov    %eax,0xffffffec(%ebp)
    2182:	8b 45 f4             	mov    0xfffffff4(%ebp),%eax
    2185:	05 98 09 00 00       	add    $0x998,%eax
    218a:	89 45 f0             	mov    %eax,0xfffffff0(%ebp)
						&tp->t.queuedRequests};
	struct Request *parent_req;
	for(k=0; k < sizeof(list_heads)/sizeof(list_heads[0]); k++) {
    218d:	c7 45 fc 00 00 00 00 	movl   $0x0,0xfffffffc(%ebp)
    2194:	83 7d fc 01          	cmpl   $0x1,0xfffffffc(%ebp)
    2198:	76 05                	jbe    219f <updateParent+0x40>
    219a:	e9 f5 01 00 00       	jmp    2394 <updateParent+0x235>
		struct alloc_head_list *head = list_heads[k];
    219f:	8b 45 fc             	mov    0xfffffffc(%ebp),%eax
    21a2:	8b 44 85 ec          	mov    0xffffffec(%ebp,%eax,4),%eax
    21a6:	89 45 e4             	mov    %eax,0xffffffe4(%ebp)
		alloc_head_walk(head, parent_req) {
    21a9:	8b 45 e4             	mov    0xffffffe4(%ebp),%eax
    21ac:	8b 40 04             	mov    0x4(%eax),%eax
    21af:	89 45 e8             	mov    %eax,0xffffffe8(%ebp)
    21b2:	8b 45 e8             	mov    0xffffffe8(%ebp),%eax
    21b5:	3b 45 e4             	cmp    0xffffffe4(%ebp),%eax
    21b8:	75 05                	jne    21bf <updateParent+0x60>
    21ba:	e9 c3 01 00 00       	jmp    2382 <updateParent+0x223>
			unsigned positionMask = 1 << position;
    21bf:	b8 01 00 00 00       	mov    $0x1,%eax
    21c4:	0f b6 4d 18          	movzbl 0x18(%ebp),%ecx
    21c8:	d3 e0                	shl    %cl,%eax
    21ca:	89 45 e0             	mov    %eax,0xffffffe0(%ebp)
			unsigned allMask;
			if(matchID != parent_req->seq) {
    21cd:	8b 55 e8             	mov    0xffffffe8(%ebp),%edx
    21d0:	8b 45 10             	mov    0x10(%ebp),%eax
    21d3:	3b 42 3c             	cmp    0x3c(%edx),%eax
    21d6:	74 05                	je     21dd <updateParent+0x7e>
				continue;
    21d8:	e9 97 01 00 00       	jmp    2374 <updateParent+0x215>
			}
			if(parent_req->type != matchType) {
    21dd:	8b 45 e8             	mov    0xffffffe8(%ebp),%eax
    21e0:	8b 40 0c             	mov    0xc(%eax),%eax
    21e3:	3b 45 0c             	cmp    0xc(%ebp),%eax
    21e6:	74 11                	je     21f9 <updateParent+0x9a>
				printk("updateParent: type does not match\n");
    21e8:	c7 04 24 a0 0a 00 00 	movl   $0xaa0,(%esp,1)
    21ef:	e8 fc ff ff ff       	call   21f0 <updateParent+0x91>
				return;
    21f4:	e9 ad 01 00 00       	jmp    23a6 <updateParent+0x247>
			}
			foundCleanable = 1;
    21f9:	c7 45 f8 01 00 00 00 	movl   $0x1,0xfffffff8(%ebp)

			if(numSiblings > MAX_MREQ_CHILDREN) {
    2200:	83 7d 14 04          	cmpl   $0x4,0x14(%ebp)
    2204:	76 11                	jbe    2217 <updateParent+0xb8>
				printk("Too many siblings!\n");
    2206:	c7 04 24 c3 0a 00 00 	movl   $0xac3,(%esp,1)
    220d:	e8 fc ff ff ff       	call   220e <updateParent+0xaf>
				return;
    2212:	e9 8f 01 00 00       	jmp    23a6 <updateParent+0x247>
			}
			if(position >= numSiblings) {
    2217:	8b 45 18             	mov    0x18(%ebp),%eax
    221a:	3b 45 14             	cmp    0x14(%ebp),%eax
    221d:	72 11                	jb     2230 <updateParent+0xd1>
				printk("position >= numSiblings!\n");
    221f:	c7 04 24 d7 0a 00 00 	movl   $0xad7,(%esp,1)
    2226:	e8 fc ff ff ff       	call   2227 <updateParent+0xc8>
				return;
    222b:	e9 76 01 00 00       	jmp    23a6 <updateParent+0x247>
			}
			if(!(parent_req->numChildren == 0 ||
    2230:	8b 45 e8             	mov    0xffffffe8(%ebp),%eax
    2233:	83 78 10 00          	cmpl   $0x0,0x10(%eax)
    2237:	74 1c                	je     2255 <updateParent+0xf6>
    2239:	8b 55 e8             	mov    0xffffffe8(%ebp),%edx
    223c:	8b 45 14             	mov    0x14(%ebp),%eax
    223f:	3b 42 10             	cmp    0x10(%edx),%eax
    2242:	74 11                	je     2255 <updateParent+0xf6>
			     numSiblings == parent_req->numChildren)) {
				printk("Inconsistent number of siblings!\n");
    2244:	c7 04 24 00 0b 00 00 	movl   $0xb00,(%esp,1)
    224b:	e8 fc ff ff ff       	call   224c <updateParent+0xed>
				return;
    2250:	e9 51 01 00 00       	jmp    23a6 <updateParent+0x247>
			}
			if(parent_req->childrenMask & positionMask) {
    2255:	8b 45 e8             	mov    0xffffffe8(%ebp),%eax
    2258:	0f b6 40 14          	movzbl 0x14(%eax),%eax
    225c:	83 e0 0f             	and    $0xf,%eax
    225f:	23 45 e0             	and    0xffffffe0(%ebp),%eax
    2262:	85 c0                	test   %eax,%eax
    2264:	74 11                	je     2277 <updateParent+0x118>
				printk("Already received this child\n");
    2266:	c7 04 24 22 0b 00 00 	movl   $0xb22,(%esp,1)
    226d:	e8 fc ff ff ff       	call   226e <updateParent+0x10f>
				return;
    2272:	e9 2f 01 00 00       	jmp    23a6 <updateParent+0x247>
			}
			parent_req->numChildren = numSiblings;
    2277:	8b 45 e8             	mov    0xffffffe8(%ebp),%eax
    227a:	8b 55 14             	mov    0x14(%ebp),%edx
    227d:	89 50 10             	mov    %edx,0x10(%eax)
			if(parent_req->numChildren == 0) {
    2280:	8b 45 e8             	mov    0xffffffe8(%ebp),%eax
    2283:	83 78 10 00          	cmpl   $0x0,0x10(%eax)
    2287:	75 11                	jne    229a <updateParent+0x13b>
				printk("numChildren == 0 (not possible, because we just received a child\n");
    2289:	c7 04 24 40 0b 00 00 	movl   $0xb40,(%esp,1)
    2290:	e8 fc ff ff ff       	call   2291 <updateParent+0x132>
				return;
    2295:	e9 0c 01 00 00       	jmp    23a6 <updateParent+0x247>
			}
			parent_req->childrenMask |= positionMask;
    229a:	8b 4d e8             	mov    0xffffffe8(%ebp),%ecx
    229d:	8b 45 e8             	mov    0xffffffe8(%ebp),%eax
    22a0:	0f b6 40 14          	movzbl 0x14(%eax),%eax
    22a4:	83 e0 0f             	and    $0xf,%eax
    22a7:	89 c2                	mov    %eax,%edx
    22a9:	0b 55 e0             	or     0xffffffe0(%ebp),%edx
    22ac:	0f b6 41 14          	movzbl 0x14(%ecx),%eax
    22b0:	80 e2 0f             	and    $0xf,%dl
    22b3:	24 f0                	and    $0xf0,%al
    22b5:	08 d0                	or     %dl,%al
    22b7:	88 41 14             	mov    %al,0x14(%ecx)
			allMask = (unsigned)(1 << parent_req->numChildren) - 1;
    22ba:	8b 45 e8             	mov    0xffffffe8(%ebp),%eax
    22bd:	ba 01 00 00 00       	mov    $0x1,%edx
    22c2:	0f b6 48 10          	movzbl 0x10(%eax),%ecx
    22c6:	89 d0                	mov    %edx,%eax
    22c8:	d3 e0                	shl    %cl,%eax
    22ca:	48                   	dec    %eax
    22cb:	89 45 dc             	mov    %eax,0xffffffdc(%ebp)

			if((parent_req->childrenMask & allMask) == allMask) {
    22ce:	8b 45 e8             	mov    0xffffffe8(%ebp),%eax
    22d1:	0f b6 40 14          	movzbl 0x14(%eax),%eax
    22d5:	83 e0 0f             	and    $0xf,%eax
    22d8:	23 45 dc             	and    0xffffffdc(%ebp),%eax
    22db:	3b 45 dc             	cmp    0xffffffdc(%ebp),%eax
    22de:	0f 85 90 00 00 00    	jne    2374 <updateParent+0x215>
				/* Server may not have generated an update covering the entire continuation. If not, resubmit request */
				switch(parent_req->type) {
    22e4:	8b 45 e8             	mov    0xffffffe8(%ebp),%eax
    22e7:	8b 40 0c             	mov    0xc(%eax),%eax
    22ea:	83 f8 01             	cmp    $0x1,%eax
    22ed:	77 54                	ja     2343 <updateParent+0x1e4>
				case MREQ_CONTINUATION:
				case MREQ_CONVERSION: {
					// Deallocate parent
					// avoid stale pointer dereference when doing next step of alloc_head_walk
					struct Request *clean = parent_req;
    22ef:	8b 45 e8             	mov    0xffffffe8(%ebp),%eax
    22f2:	89 45 d8             	mov    %eax,0xffffffd8(%ebp)
					BUG_TRAP(parent_req->seq == tp->t.request_rcv_nxt);
    22f5:	8b 45 e8             	mov    0xffffffe8(%ebp),%eax
    22f8:	8b 55 f4             	mov    0xfffffff4(%ebp),%edx
    22fb:	8b 40 3c             	mov    0x3c(%eax),%eax
    22fe:	3b 82 5c 09 00 00    	cmp    0x95c(%edx),%eax
    2304:	74 14                	je     231a <updateParent+0x1bb>
    2306:	c7 44 24 04 44 06 00 	movl   $0x644,0x4(%esp,1)
    230d:	00 
    230e:	c7 04 24 a0 0b 00 00 	movl   $0xba0,(%esp,1)
    2315:	e8 fc ff ff ff       	call   2316 <updateParent+0x1b7>
					tp->t.request_rcv_nxt++;
    231a:	8b 45 f4             	mov    0xfffffff4(%ebp),%eax
    231d:	ff 80 5c 09 00 00    	incl   0x95c(%eax)

					parent_req = (struct Request *)clean->prev;
    2323:	8b 45 d8             	mov    0xffffffd8(%ebp),%eax
    2326:	8b 00                	mov    (%eax),%eax
    2328:	89 45 e8             	mov    %eax,0xffffffe8(%ebp)
					//printk("removed %u-%u\n", clean->start, clean->end);
					unlink((struct alloc_head*)clean);
    232b:	8b 45 d8             	mov    0xffffffd8(%ebp),%eax
    232e:	89 04 24             	mov    %eax,(%esp,1)
    2331:	e8 b6 6f 00 00       	call   92ec <unlink>
					freeRequest(clean);
    2336:	8b 45 d8             	mov    0xffffffd8(%ebp),%eax
    2339:	89 04 24             	mov    %eax,(%esp,1)
    233c:	e8 fc ff ff ff       	call   233d <updateParent+0x1de>
					break;
    2341:	eb 31                	jmp    2374 <updateParent+0x215>
				}
				default:
					printk("updateParent: unsupported parent type\n");
    2343:	c7 04 24 00 0c 00 00 	movl   $0xc00,(%esp,1)
    234a:	e8 fc ff ff ff       	call   234b <updateParent+0x1ec>
					BUG();
    234f:	c7 44 24 04 39 00 00 	movl   $0x39,0x4(%esp,1)
    2356:	00 
    2357:	c7 04 24 3d 00 00 00 	movl   $0x3d,(%esp,1)
    235e:	e8 fc ff ff ff       	call   235f <updateParent+0x200>
    2363:	c7 04 24 00 00 00 00 	movl   $0x0,(%esp,1)
    236a:	e8 fc ff ff ff       	call   236b <updateParent+0x20c>
    236f:	e8 fc ff ff ff       	call   2370 <updateParent+0x211>
    2374:	8b 45 e8             	mov    0xffffffe8(%ebp),%eax
    2377:	8b 40 04             	mov    0x4(%eax),%eax
    237a:	89 45 e8             	mov    %eax,0xffffffe8(%ebp)
    237d:	e9 30 fe ff ff       	jmp    21b2 <updateParent+0x53>
				}
			}
		}
		/* back in outer loop */
		if(foundCleanable) {
    2382:	83 7d f8 00          	cmpl   $0x0,0xfffffff8(%ebp)
    2386:	74 02                	je     238a <updateParent+0x22b>
			break;
    2388:	eb 0a                	jmp    2394 <updateParent+0x235>
    238a:	8d 45 fc             	lea    0xfffffffc(%ebp),%eax
    238d:	ff 00                	incl   (%eax)
    238f:	e9 00 fe ff ff       	jmp    2194 <updateParent+0x35>
		}
	}
	if(!foundCleanable) {
    2394:	83 7d f8 00          	cmpl   $0x0,0xfffffff8(%ebp)
    2398:	75 0c                	jne    23a6 <updateParent+0x247>
		printk("Error: could not find matching request in reliable request queue!\n");
    239a:	c7 04 24 40 0c 00 00 	movl   $0xc40,(%esp,1)
    23a1:	e8 fc ff ff ff       	call   23a2 <updateParent+0x243>
	}
}
    23a6:	c9                   	leave  
    23a7:	c3                   	ret    

000023a8 <removeObsoleteContinuations>:

void removeObsoleteContinuations(struct sock *sk) {
    23a8:	55                   	push   %ebp
    23a9:	89 e5                	mov    %esp,%ebp
    23ab:	83 ec 14             	sub    $0x14,%esp
	struct tcp_opt *tp = &sk->tp_pinfo.af_tcp;
    23ae:	8b 45 08             	mov    0x8(%ebp),%eax
    23b1:	05 bc 00 00 00       	add    $0xbc,%eax
    23b6:	89 45 fc             	mov    %eax,0xfffffffc(%ebp)
	struct UC_Continuation *ucont;
	int count = 0;
    23b9:	c7 45 f4 00 00 00 00 	movl   $0x0,0xfffffff4(%ebp)
	alloc_head_walk(&tp->t.ucontList, ucont) {
    23c0:	8b 45 fc             	mov    0xfffffffc(%ebp),%eax
    23c3:	05 00 0a 00 00       	add    $0xa00,%eax
    23c8:	8b 40 04             	mov    0x4(%eax),%eax
    23cb:	89 45 f8             	mov    %eax,0xfffffff8(%ebp)
    23ce:	8b 45 fc             	mov    0xfffffffc(%ebp),%eax
    23d1:	05 00 0a 00 00       	add    $0xa00,%eax
    23d6:	39 45 f8             	cmp    %eax,0xfffffff8(%ebp)
    23d9:	75 02                	jne    23dd <removeObsoleteContinuations+0x35>
    23db:	eb 45                	jmp    2422 <removeObsoleteContinuations+0x7a>
#if 0
		if(ucont->kernel.obsoleteAt <= tp->rcv_nxt) {
		}
#else
		if(ucont->kernel.obsoleteAt <= tp->copied_seq) {
    23dd:	8b 45 f8             	mov    0xfffffff8(%ebp),%eax
    23e0:	8b 55 fc             	mov    0xfffffffc(%ebp),%edx
    23e3:	8b 40 2c             	mov    0x2c(%eax),%eax
    23e6:	3b 82 fc 00 00 00    	cmp    0xfc(%edx),%eax
    23ec:	77 29                	ja     2417 <removeObsoleteContinuations+0x6f>
#endif
			struct UC_Continuation *clean = ucont;
    23ee:	8b 45 f8             	mov    0xfffffff8(%ebp),%eax
    23f1:	89 45 f0             	mov    %eax,0xfffffff0(%ebp)
#ifdef FINDUC_DBG
			printk("Removed continuation c=%d o=%d [%d-%d] [%d-%d]\n",
			       count, clean->kernel.obsoleteAt,
			       clean->validStart, clean->validEnd,
			       clean->clientValidStart, clean->clientValidEnd);
#endif
			ucont = (struct UC_Continuation*)ucont->prev;
    23f4:	8b 45 f8             	mov    0xfffffff8(%ebp),%eax
    23f7:	8b 00                	mov    (%eax),%eax
    23f9:	89 45 f8             	mov    %eax,0xfffffff8(%ebp)
			unlink((struct alloc_head*)clean);
    23fc:	8b 45 f0             	mov    0xfffffff0(%ebp),%eax
    23ff:	89 04 24             	mov    %eax,(%esp,1)
    2402:	e8 e5 6e 00 00       	call   92ec <unlink>
			count++;
    2407:	8d 45 f4             	lea    0xfffffff4(%ebp),%eax
    240a:	ff 00                	incl   (%eax)
			kfree(clean);
    240c:	8b 45 f0             	mov    0xfffffff0(%ebp),%eax
    240f:	89 04 24             	mov    %eax,(%esp,1)
    2412:	e8 fc ff ff ff       	call   2413 <removeObsoleteContinuations+0x6b>
    2417:	8b 45 f8             	mov    0xfffffff8(%ebp),%eax
    241a:	8b 40 04             	mov    0x4(%eax),%eax
    241d:	89 45 f8             	mov    %eax,0xfffffff8(%ebp)
    2420:	eb ac                	jmp    23ce <removeObsoleteContinuations+0x26>
		}
	}
}
    2422:	c9                   	leave  
    2423:	c3                   	ret    

00002424 <removeObsoleteDependencies>:

void removeObsoleteDependencies(struct sock *sk) {
    2424:	55                   	push   %ebp
    2425:	89 e5                	mov    %esp,%ebp
    2427:	83 ec 14             	sub    $0x14,%esp
	struct tcp_opt *tp = &sk->tp_pinfo.af_tcp;
    242a:	8b 45 08             	mov    0x8(%ebp),%eax
    242d:	05 bc 00 00 00       	add    $0xbc,%eax
    2432:	89 45 fc             	mov    %eax,0xfffffffc(%ebp)
	struct UC_DependencyNode *depNode;
	/* Drop reference count for dependency nodes that we no longer need for requesting new data */
	alloc_head_walk(&tp->t.depNodeList, depNode) {
    2435:	8b 45 fc             	mov    0xfffffffc(%ebp),%eax
    2438:	05 14 0a 00 00       	add    $0xa14,%eax
    243d:	8b 40 04             	mov    0x4(%eax),%eax
    2440:	89 45 f8             	mov    %eax,0xfffffff8(%ebp)
    2443:	8b 45 fc             	mov    0xfffffffc(%ebp),%eax
    2446:	05 14 0a 00 00       	add    $0xa14,%eax
    244b:	39 45 f8             	cmp    %eax,0xfffffff8(%ebp)
    244e:	75 02                	jne    2452 <removeObsoleteDependencies+0x2e>
    2450:	eb 2f                	jmp    2481 <removeObsoleteDependencies+0x5d>
		struct UC_DependencyNode *prev = (struct UC_DependencyNode*)depNode->prev;
    2452:	8b 45 f8             	mov    0xfffffff8(%ebp),%eax
    2455:	8b 00                	mov    (%eax),%eax
    2457:	89 45 f4             	mov    %eax,0xfffffff4(%ebp)
		if(freeDependencyNode(sk,depNode) == 0) {
    245a:	8b 45 f8             	mov    0xfffffff8(%ebp),%eax
    245d:	89 44 24 04          	mov    %eax,0x4(%esp,1)
    2461:	8b 45 08             	mov    0x8(%ebp),%eax
    2464:	89 04 24             	mov    %eax,(%esp,1)
    2467:	e8 f0 7e 00 00       	call   a35c <freeDependencyNode>
    246c:	85 c0                	test   %eax,%eax
    246e:	75 06                	jne    2476 <removeObsoleteDependencies+0x52>
			/* dependency was freed and unlinked, so avoid dereferencing a dangling pointer */
			depNode = prev;
    2470:	8b 45 f4             	mov    0xfffffff4(%ebp),%eax
    2473:	89 45 f8             	mov    %eax,0xfffffff8(%ebp)
    2476:	8b 45 f8             	mov    0xfffffff8(%ebp),%eax
    2479:	8b 40 04             	mov    0x4(%eax),%eax
    247c:	89 45 f8             	mov    %eax,0xfffffff8(%ebp)
    247f:	eb c2                	jmp    2443 <removeObsoleteDependencies+0x1f>
		}
	}
}
    2481:	c9                   	leave  
    2482:	c3                   	ret    

00002483 <UpdateClientTransportState>:

static inline void removeObsoleteDataRequestMaps(struct sock *sk, unsigned transportSeq) {
	/* Side effect: updates rtt estimate */
	struct tcp_opt *tp = &sk->tp_pinfo.af_tcp;
	int i;
	struct DataRequestMapping *dataReqMap, *nextDataReqMap;
	struct alloc_head_list* dataRequestLists[] = {
		&tp->t.dataRequestMap,
		&tp->t.missingDataMap};

	TIMING_CTX_DEF0("removeObsoleteDataRequestMaps", "requestMap", "missingMap");
	TIMING_CTX_DEF1(1,1);
	reinitTimingCtx(&ctx);
	for(i=0; i < 2; i++) {
		struct alloc_head_list *currList = dataRequestLists[i];
		recordSample(&ctx, i);
		for(dataReqMap = (struct DataRequestMapping *)currList->next;
		    dataReqMap != (struct DataRequestMapping *)currList;
		    dataReqMap = nextDataReqMap) {
			int freed = 0;
			nextDataReqMap = dataReqMap->next;

			if(dataReqMap->end <= tp->rcv_nxt) {
				unlink((struct alloc_head*)dataReqMap);
				/* update rtt estimate if obsolete request matches current packet */
				// XXX - with this algorithm, reordering inflates rtt (timing is updated when the packet can be delivered in-order, not when it is first received)
				// XXX should we test the sequence number?
				if(1 /* || dataReqMap->transportResponseSeqStart <= transportSeq &&
					transportSeq < dataReqMap->transportResponseSeqEnd */) {
#ifdef FIXEDRTT
					tp->t.A = (FIXEDRTT);
#else
					// code moved to trickles_client_rcv
#endif
					{
						static int rttCounter = 0;
						rttCounter++;
						if(clientDebugLevel >= 2) {
							if(rttCounter % 1000 == 0)
								printk("HZ=%d delta %lu, new rtt %d %d/8\n", HZ, jiffies - dataReqMap->timestamp, tp->t.A >> 3, tp->t.A & 0x7);
						}
					}
				}
				freeDataRequestMapping(dataReqMap);
				freed = 1;
				resetClientTimer(sk);
			}
			if(!freed && dataReqMap->sent &&
			   !dataReqMap->completed && // hint
			   tp->t.rcv_nxt >= dataReqMap->transportResponseSeqEnd) {
				//printk("tp->t.rcv_nxt = %u dataReqMap->transportResponseSeqEnd = %d\n", tp->t.rcv_nxt, dataReqMap->transportResponseSeqEnd);
				// dataReqMap is still valid
				// If tp->t.rcv_nxt >= transportSeqEnd, then the server may not have sent us the full request.
				// Find missing parts of the request, and resubmit

				// save old head
				struct alloc_head *prevMap = (struct alloc_head*) dataReqMap->prev,
					*nextMap = (struct alloc_head*)dataReqMap->next;
				int inserted = 0;
				int lastEnd = MAX(dataReqMap->start, tp->rcv_nxt);
				struct sk_buff *finger = tp->t.ofo_queue.next;
				unlink((struct alloc_head*)dataReqMap);

				// XXX 0505 OPTIMIZE - Pick optimal walking direction? Would probably result in 2x speedup if we
				// check whether we're closer to the left or the right
				skb_queue_walk(&tp->t.data_ofo_queue, finger) {
					// detect overlap
					int minSeq = MAX(TCP_SKB_CB(finger)->seq, dataReqMap->start);
					int maxSeq = MIN(TCP_SKB_CB(finger)->end_seq, dataReqMap->end);
					if(maxSeq >= dataReqMap->end) {
						break;
					}
					if(minSeq < maxSeq) {
						// overlap
						if(lastEnd < minSeq) {
							// void between last skb and this skb; ask server to fill it in
							RECORD_MISSINGDATAMAP_INSERTION_HELPER(lastEnd, minSeq);
							submitDerivedDataRequestMapping(sk, dataReqMap, lastEnd, minSeq);
							inserted = 1;
#ifdef SPEW_PARTIAL
							printk("Inserted %d-%d\n", lastEnd, minSeq);
#endif
						}
						lastEnd = maxSeq;
					}
				}

				if(lastEnd < dataReqMap->end) {
					int myStart = lastEnd,
						myEnd = dataReqMap->end;
					if(!inserted) {
						// common case: server omitted data at the end of the request.
						// Reuse existing mapping
						RECORD_MISSINGDATAMAP_INSERTION_HELPER(myStart, myEnd);
						submitDataRequestMapping(sk, dataReqMap, myStart, myEnd);
#ifdef SPEW_PARTIAL
						printk("Inserted %d-%d\n", myStart, myEnd);
#endif
					} else {
						RECORD_MISSINGDATAMAP_INSERTION_HELPER(myStart, myEnd);
						submitDerivedDataRequestMapping(sk, dataReqMap, myStart, myEnd);
#ifdef SPEW_PARTIAL
						printk("Inserted %d-%d\n", myStart, myEnd);
#endif
					}
				} else {
					if(!inserted) {
						// request is completely covered; put it back
						dataReqMap->completed = 1;
						insert((struct alloc_head*)dataReqMap, prevMap, nextMap);
					}
				}
			}
		}
		recordSample(&ctx, i);
	}
	printTimings(&ctx);
}

void UpdateClientTransportState(struct sock *sk, struct sk_buff *skb, CONTINUATION_TYPE *cont) {
    2483:	55                   	push   %ebp
    2484:	89 e5                	mov    %esp,%ebp
    2486:	57                   	push   %edi
    2487:	56                   	push   %esi
    2488:	83 ec 44             	sub    $0x44,%esp
	struct tcp_opt *tp = &sk->tp_pinfo.af_tcp;
    248b:	8b 45 08             	mov    0x8(%ebp),%eax
    248e:	05 bc 00 00 00       	add    $0xbc,%eax
    2493:	89 45 f4             	mov    %eax,0xfffffff4(%ebp)
	// if noCont, then no available information for updating state machine
	BUG_TRAP(cont->seq <= tp->t.rcv_nxt);
    2496:	8b 45 10             	mov    0x10(%ebp),%eax
    2499:	8b 55 f4             	mov    0xfffffff4(%ebp),%edx
    249c:	8b 40 30             	mov    0x30(%eax),%eax
    249f:	3b 82 e0 02 00 00    	cmp    0x2e0(%edx),%eax
    24a5:	76 14                	jbe    24bb <UpdateClientTransportState+0x38>
    24a7:	c7 44 24 04 fd 06 00 	movl   $0x6fd,0x4(%esp,1)
    24ae:	00 
    24af:	c7 04 24 a0 0c 00 00 	movl   $0xca0,(%esp,1)
    24b6:	e8 fc ff ff ff       	call   24b7 <UpdateClientTransportState+0x34>
#define UPTODATE(CONT) ((CONT)->clientState == tp->t.clientStateCounter)
	/* Transport level updates */
	if(cont->continuationType == CONTTYPE_MINIMAL) {
    24bb:	8b 45 10             	mov    0x10(%ebp),%eax
    24be:	83 78 34 00          	cmpl   $0x0,0x34(%eax)
    24c2:	75 05                	jne    24c9 <UpdateClientTransportState+0x46>
		// minimal continuation type cannot update transport state
		return;
    24c4:	e9 8b 04 00 00       	jmp    2954 <UpdateClientTransportState+0x4d1>
	}
	switch(tp->t.state) {
    24c9:	8b 45 f4             	mov    0xfffffff4(%ebp),%eax
    24cc:	8b 80 cc 02 00 00    	mov    0x2cc(%eax),%eax
    24d2:	89 45 c8             	mov    %eax,0xffffffc8(%ebp)
    24d5:	83 7d c8 02          	cmpl   $0x2,0xffffffc8(%ebp)
    24d9:	74 72                	je     254d <UpdateClientTransportState+0xca>
    24db:	83 7d c8 02          	cmpl   $0x2,0xffffffc8(%ebp)
    24df:	7f 0b                	jg     24ec <UpdateClientTransportState+0x69>
    24e1:	83 7d c8 01          	cmpl   $0x1,0xffffffc8(%ebp)
    24e5:	74 14                	je     24fb <UpdateClientTransportState+0x78>
    24e7:	e9 68 04 00 00       	jmp    2954 <UpdateClientTransportState+0x4d1>
    24ec:	83 7d c8 03          	cmpl   $0x3,0xffffffc8(%ebp)
    24f0:	0f 84 8e 00 00 00    	je     2584 <UpdateClientTransportState+0x101>
    24f6:	e9 59 04 00 00       	jmp    2954 <UpdateClientTransportState+0x4d1>
	case TRICKLES_CLIENT_NORMAL:
		if(cont->firstChild)
    24fb:	8b 45 10             	mov    0x10(%ebp),%eax
    24fe:	83 78 58 00          	cmpl   $0x0,0x58(%eax)
    2502:	0f 84 4c 04 00 00    	je     2954 <UpdateClientTransportState+0x4d1>
			tp->t.in_flight = MAX(0, tp->t.in_flight - 1);
    2508:	8b 45 f4             	mov    0xfffffff4(%ebp),%eax
    250b:	89 45 e0             	mov    %eax,0xffffffe0(%ebp)
    250e:	8b 45 f4             	mov    0xfffffff4(%ebp),%eax
    2511:	8b 80 00 03 00 00    	mov    0x300(%eax),%eax
    2517:	48                   	dec    %eax
    2518:	89 45 f0             	mov    %eax,0xfffffff0(%ebp)
    251b:	c7 45 ec 00 00 00 00 	movl   $0x0,0xffffffec(%ebp)
    2522:	8b 45 f0             	mov    0xfffffff0(%ebp),%eax
    2525:	89 45 e8             	mov    %eax,0xffffffe8(%ebp)
    2528:	8b 55 e8             	mov    0xffffffe8(%ebp),%edx
    252b:	89 55 dc             	mov    %edx,0xffffffdc(%ebp)
    252e:	8b 75 dc             	mov    0xffffffdc(%ebp),%esi
    2531:	3b 75 ec             	cmp    0xffffffec(%ebp),%esi
    2534:	7d 06                	jge    253c <UpdateClientTransportState+0xb9>
    2536:	8b 7d ec             	mov    0xffffffec(%ebp),%edi
    2539:	89 7d dc             	mov    %edi,0xffffffdc(%ebp)
    253c:	8b 55 dc             	mov    0xffffffdc(%ebp),%edx
    253f:	8b 45 e0             	mov    0xffffffe0(%ebp),%eax
    2542:	89 90 00 03 00 00    	mov    %edx,0x300(%eax)
		break;
    2548:	e9 07 04 00 00       	jmp    2954 <UpdateClientTransportState+0x4d1>
	case TRICKLES_CLIENT_RECOVERY:
		if(cont->state == CONT_BOOTSTRAP &&
    254d:	8b 45 10             	mov    0x10(%ebp),%eax
    2550:	83 78 54 02          	cmpl   $0x2,0x54(%eax)
    2554:	0f 85 fa 03 00 00    	jne    2954 <UpdateClientTransportState+0x4d1>
    255a:	8b 45 10             	mov    0x10(%ebp),%eax
    255d:	8b 55 f4             	mov    0xfffffff4(%ebp),%edx
    2560:	8b 40 38             	mov    0x38(%eax),%eax
    2563:	3b 82 c8 02 00 00    	cmp    0x2c8(%edx),%eax
    2569:	0f 85 e5 03 00 00    	jne    2954 <UpdateClientTransportState+0x4d1>
		   UPTODATE(cont)) {
			if(clientDebugLevel >= 2)
    256f:	83 3d 00 00 00 00 01 	cmpl   $0x1,0x0
    2576:	7e 0c                	jle    2584 <UpdateClientTransportState+0x101>
				printk("received bootstrap continuation\n");
    2578:	c7 04 24 00 0d 00 00 	movl   $0xd00,(%esp,1)
    257f:	e8 fc ff ff ff       	call   2580 <UpdateClientTransportState+0xfd>
			/* during recovery, need to switch to bootstrap continuation */
			/* If bootstrap state, fall through to check if we should exit from recovery */
			goto exit_recovery;
		} else {
			break;
		}
	case TRICKLES_CLIENT_SLOWSTART:
	exit_recovery:
		if(UPTODATE(cont) && cont->seq == cont->TCPBase) {
    2584:	8b 45 10             	mov    0x10(%ebp),%eax
    2587:	8b 55 f4             	mov    0xfffffff4(%ebp),%edx
    258a:	8b 40 38             	mov    0x38(%eax),%eax
    258d:	3b 82 c8 02 00 00    	cmp    0x2c8(%edx),%eax
    2593:	0f 85 bb 03 00 00    	jne    2954 <UpdateClientTransportState+0x4d1>
    2599:	8b 45 10             	mov    0x10(%ebp),%eax
    259c:	8b 55 10             	mov    0x10(%ebp),%edx
    259f:	8b 40 30             	mov    0x30(%eax),%eax
    25a2:	3b 42 6c             	cmp    0x6c(%edx),%eax
    25a5:	0f 85 a9 03 00 00    	jne    2954 <UpdateClientTransportState+0x4d1>
			/* exit recovery */
			CONTINUATION_TYPE *cont_curs, *next;
			__u32 prev_seq = tp->t.ack_prev->TCPBase; // 0501 cleanup
    25ab:	8b 45 f4             	mov    0xfffffff4(%ebp),%eax
    25ae:	8b 80 f4 02 00 00    	mov    0x2f4(%eax),%eax
    25b4:	8b 40 6c             	mov    0x6c(%eax),%eax
    25b7:	89 45 f0             	mov    %eax,0xfffffff0(%ebp)
			if(clientDebugLevel >= 1)
    25ba:	83 3d 00 00 00 00 00 	cmpl   $0x0,0x0
    25c1:	7e 31                	jle    25f4 <UpdateClientTransportState+0x171>
				printk("client_rcv: exit recovery or slow start : seq = %u oldBase = %u newBase = %u startCwnd = %u\n", cont->seq,
    25c3:	8b 45 10             	mov    0x10(%ebp),%eax
    25c6:	8b 40 64             	mov    0x64(%eax),%eax
    25c9:	89 44 24 10          	mov    %eax,0x10(%esp,1)
    25cd:	8b 45 10             	mov    0x10(%ebp),%eax
    25d0:	8b 40 6c             	mov    0x6c(%eax),%eax
    25d3:	89 44 24 0c          	mov    %eax,0xc(%esp,1)
    25d7:	8b 45 f0             	mov    0xfffffff0(%ebp),%eax
    25da:	89 44 24 08          	mov    %eax,0x8(%esp,1)
    25de:	8b 45 10             	mov    0x10(%ebp),%eax
    25e1:	8b 40 30             	mov    0x30(%eax),%eax
    25e4:	89 44 24 04          	mov    %eax,0x4(%esp,1)
    25e8:	c7 04 24 40 0d 00 00 	movl   $0xd40,(%esp,1)
    25ef:	e8 fc ff ff ff       	call   25f0 <UpdateClientTransportState+0x16d>
				       prev_seq, cont->TCPBase, cont->startCwnd);

			tp->t.standardProof.numSacks = 0;
    25f4:	8b 45 f4             	mov    0xfffffff4(%ebp),%eax
    25f7:	c7 80 04 03 00 00 00 	movl   $0x0,0x304(%eax)
    25fe:	00 00 00 
			AckProof_update(sk, &tp->t.standardProof, cont);
    2601:	8b 45 10             	mov    0x10(%ebp),%eax
    2604:	89 44 24 08          	mov    %eax,0x8(%esp,1)
    2608:	8b 45 f4             	mov    0xfffffff4(%ebp),%eax
    260b:	05 04 03 00 00       	add    $0x304,%eax
    2610:	89 44 24 04          	mov    %eax,0x4(%esp,1)
    2614:	8b 45 08             	mov    0x8(%ebp),%eax
    2617:	89 04 24             	mov    %eax,(%esp,1)
    261a:	e8 fc ff ff ff       	call   261b <UpdateClientTransportState+0x198>
			for(cont_curs = (CONTINUATION_TYPE*)tp->t.cont_list.next;
    261f:	8b 45 f4             	mov    0xfffffff4(%ebp),%eax
    2622:	8b 80 38 09 00 00    	mov    0x938(%eax),%eax
    2628:	89 45 e8             	mov    %eax,0xffffffe8(%ebp)
    262b:	8b 45 f4             	mov    0xfffffff4(%ebp),%eax
    262e:	05 34 09 00 00       	add    $0x934,%eax
    2633:	39 45 e8             	cmp    %eax,0xffffffe8(%ebp)
    2636:	75 05                	jne    263d <UpdateClientTransportState+0x1ba>
    2638:	e9 14 01 00 00       	jmp    2751 <UpdateClientTransportState+0x2ce>
			    cont_curs != (CONTINUATION_TYPE*)&tp->t.cont_list;
			    cont_curs = next) {
				next = (CONTINUATION_TYPE*)cont_curs->next;
    263d:	8b 45 e8             	mov    0xffffffe8(%ebp),%eax
    2640:	8b 40 04             	mov    0x4(%eax),%eax
    2643:	89 45 ec             	mov    %eax,0xffffffec(%ebp)

				// 0424 - tighten up conditions to detect inconsistent states
				/*
				if(((tp->t.state == TRICKLES_CLIENT_SLOWSTART && UPTODATE(cont_curs)) ||
				    ((tp->t.state == TRICKLES_CLIENT_RECOVERY) && cont_curs->seq >= cont->TCPBase))) {
				*/
				if(UPTODATE(cont_curs) && cont_curs->TCPBase >= cont->TCPBase) {
    2646:	8b 45 e8             	mov    0xffffffe8(%ebp),%eax
    2649:	8b 55 f4             	mov    0xfffffff4(%ebp),%edx
    264c:	8b 40 38             	mov    0x38(%eax),%eax
    264f:	3b 82 c8 02 00 00    	cmp    0x2c8(%edx),%eax
    2655:	75 53                	jne    26aa <UpdateClientTransportState+0x227>
    2657:	8b 45 e8             	mov    0xffffffe8(%ebp),%eax
    265a:	8b 55 10             	mov    0x10(%ebp),%edx
    265d:	8b 40 6c             	mov    0x6c(%eax),%eax
    2660:	3b 42 6c             	cmp    0x6c(%edx),%eax
    2663:	72 45                	jb     26aa <UpdateClientTransportState+0x227>
					BUG_TRAP(cont_curs->TCPBase >= cont->TCPBase);
    2665:	8b 45 e8             	mov    0xffffffe8(%ebp),%eax
    2668:	8b 55 10             	mov    0x10(%ebp),%edx
    266b:	8b 40 6c             	mov    0x6c(%eax),%eax
    266e:	3b 42 6c             	cmp    0x6c(%edx),%eax
    2671:	73 14                	jae    2687 <UpdateClientTransportState+0x204>
    2673:	c7 44 24 04 2b 07 00 	movl   $0x72b,0x4(%esp,1)
    267a:	00 
    267b:	c7 04 24 a0 0d 00 00 	movl   $0xda0,(%esp,1)
    2682:	e8 fc ff ff ff       	call   2683 <UpdateClientTransportState+0x200>
					AckProof_update(sk, &tp->t.standardProof, cont_curs);
    2687:	8b 45 e8             	mov    0xffffffe8(%ebp),%eax
    268a:	89 44 24 08          	mov    %eax,0x8(%esp,1)
    268e:	8b 45 f4             	mov    0xfffffff4(%ebp),%eax
    2691:	05 04 03 00 00       	add    $0x304,%eax
    2696:	89 44 24 04          	mov    %eax,0x4(%esp,1)
    269a:	8b 45 08             	mov    0x8(%ebp),%eax
    269d:	89 04 24             	mov    %eax,(%esp,1)
    26a0:	e8 fc ff ff ff       	call   26a1 <UpdateClientTransportState+0x21e>
    26a5:	e9 9c 00 00 00       	jmp    2746 <UpdateClientTransportState+0x2c3>
				} else {
					/* there should not be any older continuations in list */
					// XXX 0426 - Additional violation situations are possible if requestSlowStart fails because it cannot find a continuation that can be used for the slow start request
					if(!(cont_curs->clientState == tp->t.clientStateCounter-2 /* recovery followed by slow start */ ||
    26aa:	8b 45 e8             	mov    0xffffffe8(%ebp),%eax
    26ad:	8b 55 f4             	mov    0xfffffff4(%ebp),%edx
    26b0:	8b 92 c8 02 00 00    	mov    0x2c8(%edx),%edx
    26b6:	83 ea 02             	sub    $0x2,%edx
    26b9:	39 50 38             	cmp    %edx,0x38(%eax)
    26bc:	74 56                	je     2714 <UpdateClientTransportState+0x291>
    26be:	8b 45 e8             	mov    0xffffffe8(%ebp),%eax
    26c1:	8b 55 f4             	mov    0xfffffff4(%ebp),%edx
    26c4:	8b 92 c8 02 00 00    	mov    0x2c8(%edx),%edx
    26ca:	4a                   	dec    %edx
    26cb:	39 50 38             	cmp    %edx,0x38(%eax)
    26ce:	74 44                	je     2714 <UpdateClientTransportState+0x291>
    26d0:	8b 45 e8             	mov    0xffffffe8(%ebp),%eax
    26d3:	8b 55 f4             	mov    0xfffffff4(%ebp),%edx
    26d6:	8b 40 38             	mov    0x38(%eax),%eax
    26d9:	3b 82 c8 02 00 00    	cmp    0x2c8(%edx),%eax
    26df:	74 33                	je     2714 <UpdateClientTransportState+0x291>
					     cont_curs->clientState == tp->t.clientStateCounter-1 /* recovery */||
					     cont_curs->clientState == tp->t.clientStateCounter)) {
						if(!disableSevereErrors)
    26e1:	83 3d 00 00 00 00 00 	cmpl   $0x0,0x0
    26e8:	75 2a                	jne    2714 <UpdateClientTransportState+0x291>
							printk("%p: cleaning violation: cursor state %d current client state %d\n",
    26ea:	8b 45 f4             	mov    0xfffffff4(%ebp),%eax
    26ed:	8b 80 c8 02 00 00    	mov    0x2c8(%eax),%eax
    26f3:	89 44 24 0c          	mov    %eax,0xc(%esp,1)
    26f7:	8b 45 e8             	mov    0xffffffe8(%ebp),%eax
    26fa:	8b 40 38             	mov    0x38(%eax),%eax
    26fd:	89 44 24 08          	mov    %eax,0x8(%esp,1)
    2701:	8b 45 08             	mov    0x8(%ebp),%eax
    2704:	89 44 24 04          	mov    %eax,0x4(%esp,1)
    2708:	c7 04 24 00 0e 00 00 	movl   $0xe00,(%esp,1)
    270f:	e8 fc ff ff ff       	call   2710 <UpdateClientTransportState+0x28d>
							       sk, cont_curs->clientState, tp->t.clientStateCounter);
					}
					BUG_TRAP(cont_curs != cont);
    2714:	8b 45 e8             	mov    0xffffffe8(%ebp),%eax
    2717:	3b 45 10             	cmp    0x10(%ebp),%eax
    271a:	75 14                	jne    2730 <UpdateClientTransportState+0x2ad>
    271c:	c7 44 24 04 37 07 00 	movl   $0x737,0x4(%esp,1)
    2723:	00 
    2724:	c7 04 24 60 0e 00 00 	movl   $0xe60,(%esp,1)
    272b:	e8 fc ff ff ff       	call   272c <UpdateClientTransportState+0x2a9>
					unlinkCont(cont_curs);
    2730:	8b 45 e8             	mov    0xffffffe8(%ebp),%eax
    2733:	89 04 24             	mov    %eax,(%esp,1)
    2736:	e8 de 84 00 00       	call   ac19 <unlinkCont>
					MARK_PC(cont_curs);
#if 1 // 0430 disabled to isolate bug (yes this reveals a bunch of memory errors)
					freeClientSide_Continuation(cont_curs);
    273b:	8b 45 e8             	mov    0xffffffe8(%ebp),%eax
    273e:	89 04 24             	mov    %eax,(%esp,1)
    2741:	e8 e9 78 00 00       	call   a02f <freeClientSide_Continuation>
    2746:	8b 45 ec             	mov    0xffffffec(%ebp),%eax
    2749:	89 45 e8             	mov    %eax,0xffffffe8(%ebp)
    274c:	e9 da fe ff ff       	jmp    262b <UpdateClientTransportState+0x1a8>
#else
					if((int)cont_curs & 0xfff) {
						BUG();
					}
					BUG_TRAP(((int)cont_curs & 0xfff) == 0);
					zap_virt(cont_curs);
#endif
				}
			}
			/* only up-to-date continuations in cont_list now */
			tp->t.altProof = tp->t.standardProof;
    2751:	8b 45 f4             	mov    0xfffffff4(%ebp),%eax
    2754:	8b 55 f4             	mov    0xfffffff4(%ebp),%edx
    2757:	05 0c 06 00 00       	add    $0x60c,%eax
    275c:	89 45 d8             	mov    %eax,0xffffffd8(%ebp)
    275f:	81 c2 04 03 00 00    	add    $0x304,%edx
    2765:	89 55 d4             	mov    %edx,0xffffffd4(%ebp)
    2768:	c7 45 d0 08 03 00 00 	movl   $0x308,0xffffffd0(%ebp)
    276f:	8b 45 d8             	mov    0xffffffd8(%ebp),%eax
    2772:	83 e0 04             	and    $0x4,%eax
    2775:	85 c0                	test   %eax,%eax
    2777:	74 16                	je     278f <UpdateClientTransportState+0x30c>
    2779:	8b 75 d4             	mov    0xffffffd4(%ebp),%esi
    277c:	8b 06                	mov    (%esi),%eax
    277e:	8b 7d d8             	mov    0xffffffd8(%ebp),%edi
    2781:	89 07                	mov    %eax,(%edi)
    2783:	83 45 d8 04          	addl   $0x4,0xffffffd8(%ebp)
    2787:	83 45 d4 04          	addl   $0x4,0xffffffd4(%ebp)
    278b:	83 6d d0 04          	subl   $0x4,0xffffffd0(%ebp)
    278f:	fc                   	cld    
    2790:	8b 4d d0             	mov    0xffffffd0(%ebp),%ecx
    2793:	c1 e9 02             	shr    $0x2,%ecx
    2796:	8b 7d d8             	mov    0xffffffd8(%ebp),%edi
    2799:	8b 75 d4             	mov    0xffffffd4(%ebp),%esi
    279c:	f3 a5                	repz movsl %ds:(%esi),%es:(%edi)
#if 0
			printk("standard ");
			AckProof_dump(&tp->t.standardProof);
			printk("alt ");
			AckProof_dump(&tp->t.altProof);
#endif
			BUG_TRAP(tp->t.standardProof.sacks[0].left <= cont->TCPBase);
    279e:	8b 45 f4             	mov    0xfffffff4(%ebp),%eax
    27a1:	8b 55 10             	mov    0x10(%ebp),%edx
    27a4:	8b 80 0c 03 00 00    	mov    0x30c(%eax),%eax
    27aa:	3b 42 6c             	cmp    0x6c(%edx),%eax
    27ad:	76 14                	jbe    27c3 <UpdateClientTransportState+0x340>
    27af:	c7 44 24 04 4d 07 00 	movl   $0x74d,0x4(%esp,1)
    27b6:	00 
    27b7:	c7 04 24 a0 0e 00 00 	movl   $0xea0,(%esp,1)
    27be:	e8 fc ff ff ff       	call   27bf <UpdateClientTransportState+0x33c>
			BUG_TRAP(tp->t.altProof.sacks[0].left <= cont->TCPBase);
    27c3:	8b 45 f4             	mov    0xfffffff4(%ebp),%eax
    27c6:	8b 55 10             	mov    0x10(%ebp),%edx
    27c9:	8b 80 14 06 00 00    	mov    0x614(%eax),%eax
    27cf:	3b 42 6c             	cmp    0x6c(%edx),%eax
    27d2:	76 14                	jbe    27e8 <UpdateClientTransportState+0x365>
    27d4:	c7 44 24 04 4e 07 00 	movl   $0x74e,0x4(%esp,1)
    27db:	00 
    27dc:	c7 04 24 20 0f 00 00 	movl   $0xf20,(%esp,1)
    27e3:	e8 fc ff ff ff       	call   27e4 <UpdateClientTransportState+0x361>

			tp->t.previous_base = cont->TCPBase;
    27e8:	8b 45 f4             	mov    0xfffffff4(%ebp),%eax
    27eb:	8b 55 10             	mov    0x10(%ebp),%edx
    27ee:	8b 52 6c             	mov    0x6c(%edx),%edx
    27f1:	89 90 e4 02 00 00    	mov    %edx,0x2e4(%eax)
			if(clientDebugLevel >= 1)
    27f7:	83 3d 00 00 00 00 00 	cmpl   $0x0,0x0
    27fe:	7e 34                	jle    2834 <UpdateClientTransportState+0x3b1>
				printk("new cwnd: %d ssthresh: %d seq: %d base: %d\n", cont->startCwnd, cont->ssthresh, cont->seq, cont->TCPBase);
    2800:	8b 45 10             	mov    0x10(%ebp),%eax
    2803:	8b 40 6c             	mov    0x6c(%eax),%eax
    2806:	89 44 24 10          	mov    %eax,0x10(%esp,1)
    280a:	8b 45 10             	mov    0x10(%ebp),%eax
    280d:	8b 40 30             	mov    0x30(%eax),%eax
    2810:	89 44 24 0c          	mov    %eax,0xc(%esp,1)
    2814:	8b 45 10             	mov    0x10(%ebp),%eax
    2817:	8b 40 68             	mov    0x68(%eax),%eax
    281a:	89 44 24 08          	mov    %eax,0x8(%esp,1)
    281e:	8b 45 10             	mov    0x10(%ebp),%eax
    2821:	8b 40 64             	mov    0x64(%eax),%eax
    2824:	89 44 24 04          	mov    %eax,0x4(%esp,1)
    2828:	c7 04 24 80 0f 00 00 	movl   $0xf80,(%esp,1)
    282f:	e8 fc ff ff ff       	call   2830 <UpdateClientTransportState+0x3ad>
			if(clientDebugLevel >= 1 ||  debugTransitions) {
    2834:	83 3d 00 00 00 00 00 	cmpl   $0x0,0x0
    283b:	7f 0e                	jg     284b <UpdateClientTransportState+0x3c8>
    283d:	83 3d 00 00 00 00 00 	cmpl   $0x0,0x0
    2844:	75 05                	jne    284b <UpdateClientTransportState+0x3c8>
    2846:	e9 ae 00 00 00       	jmp    28f9 <UpdateClientTransportState+0x476>
				char *oldState;
				switch(tp->t.state) {
    284b:	8b 45 f4             	mov    0xfffffff4(%ebp),%eax
    284e:	8b 80 cc 02 00 00    	mov    0x2cc(%eax),%eax
    2854:	89 45 cc             	mov    %eax,0xffffffcc(%ebp)
    2857:	83 7d cc 02          	cmpl   $0x2,0xffffffcc(%ebp)
    285b:	74 1f                	je     287c <UpdateClientTransportState+0x3f9>
    285d:	83 7d cc 02          	cmpl   $0x2,0xffffffcc(%ebp)
    2861:	7f 08                	jg     286b <UpdateClientTransportState+0x3e8>
    2863:	83 7d cc 01          	cmpl   $0x1,0xffffffcc(%ebp)
    2867:	74 1c                	je     2885 <UpdateClientTransportState+0x402>
    2869:	eb 48                	jmp    28b3 <UpdateClientTransportState+0x430>
    286b:	83 7d cc 03          	cmpl   $0x3,0xffffffcc(%ebp)
    286f:	74 02                	je     2873 <UpdateClientTransportState+0x3f0>
    2871:	eb 40                	jmp    28b3 <UpdateClientTransportState+0x430>
				case TRICKLES_CLIENT_SLOWSTART:
					oldState = "SlowStart";
    2873:	c7 45 e4 ac 0f 00 00 	movl   $0xfac,0xffffffe4(%ebp)
					break;
    287a:	eb 63                	jmp    28df <UpdateClientTransportState+0x45c>
				case TRICKLES_CLIENT_RECOVERY:
					oldState = "Recovery";
    287c:	c7 45 e4 b6 0f 00 00 	movl   $0xfb6,0xffffffe4(%ebp)
					break;
    2883:	eb 5a                	jmp    28df <UpdateClientTransportState+0x45c>
				case TRICKLES_CLIENT_NORMAL:
					oldState = "NORMAL!!";
    2885:	c7 45 e4 bf 0f 00 00 	movl   $0xfbf,0xffffffe4(%ebp)
					BUG();
    288c:	c7 44 24 04 39 00 00 	movl   $0x39,0x4(%esp,1)
    2893:	00 
    2894:	c7 04 24 3d 00 00 00 	movl   $0x3d,(%esp,1)
    289b:	e8 fc ff ff ff       	call   289c <UpdateClientTransportState+0x419>
    28a0:	c7 04 24 00 00 00 00 	movl   $0x0,(%esp,1)
    28a7:	e8 fc ff ff ff       	call   28a8 <UpdateClientTransportState+0x425>
    28ac:	e8 fc ff ff ff       	call   28ad <UpdateClientTransportState+0x42a>
					break;
    28b1:	eb 2c                	jmp    28df <UpdateClientTransportState+0x45c>
				default:
					oldState = "UNKNOWN!!";
    28b3:	c7 45 e4 c8 0f 00 00 	movl   $0xfc8,0xffffffe4(%ebp)
					BUG();
    28ba:	c7 44 24 04 39 00 00 	movl   $0x39,0x4(%esp,1)
    28c1:	00 
    28c2:	c7 04 24 3d 00 00 00 	movl   $0x3d,(%esp,1)
    28c9:	e8 fc ff ff ff       	call   28ca <UpdateClientTransportState+0x447>
    28ce:	c7 04 24 00 00 00 00 	movl   $0x0,(%esp,1)
    28d5:	e8 fc ff ff ff       	call   28d6 <UpdateClientTransportState+0x453>
    28da:	e8 fc ff ff ff       	call   28db <UpdateClientTransportState+0x458>
					break;
				}
				printk("%p: %s=>Normal\n", sk, oldState); // 0419
    28df:	8b 45 e4             	mov    0xffffffe4(%ebp),%eax
    28e2:	89 44 24 08          	mov    %eax,0x8(%esp,1)
    28e6:	8b 45 08             	mov    0x8(%ebp),%eax
    28e9:	89 44 24 04          	mov    %eax,0x4(%esp,1)
    28ed:	c7 04 24 d2 0f 00 00 	movl   $0xfd2,(%esp,1)
    28f4:	e8 fc ff ff ff       	call   28f5 <UpdateClientTransportState+0x472>
			}
			appendTricklesLossEvent(sk, MIN(cont->startCwnd, EVENT_CWND_MAX),
						EVENT_EXTRA_RECV, tp->t.state);

			tp->t.state = TRICKLES_CLIENT_NORMAL;
    28f9:	8b 45 f4             	mov    0xfffffff4(%ebp),%eax
    28fc:	c7 80 cc 02 00 00 01 	movl   $0x1,0x2cc(%eax)
    2903:	00 00 00 
			tp->t.oo_count = 0;
    2906:	8b 45 f4             	mov    0xfffffff4(%ebp),%eax
    2909:	c7 80 fc 02 00 00 00 	movl   $0x0,0x2fc(%eax)
    2910:	00 00 00 
			tp->t.in_flight = 0;
    2913:	8b 45 f4             	mov    0xfffffff4(%ebp),%eax
    2916:	c7 80 00 03 00 00 00 	movl   $0x0,0x300(%eax)
    291d:	00 00 00 

			tp->t.timerState = TRICKLES_ENABLE_DATA_TIMEOUT;
    2920:	8b 45 f4             	mov    0xfffffff4(%ebp),%eax
    2923:	c7 80 dc 02 00 00 01 	movl   $0x1,0x2dc(%eax)
    292a:	00 00 00 
			resetClientTimer(sk);
    292d:	8b 45 08             	mov    0x8(%ebp),%eax
    2930:	89 04 24             	mov    %eax,(%esp,1)
    2933:	e8 fc ff ff ff       	call   2934 <UpdateClientTransportState+0x4b1>

			//SAVE_ACK_PREV(tp);
			tp->t.ack_prev = NULL;
    2938:	8b 45 f4             	mov    0xfffffff4(%ebp),%eax
    293b:	c7 80 f4 02 00 00 00 	movl   $0x0,0x2f4(%eax)
    2942:	00 00 00 
			tp->t.ack_last = cont->seq;
    2945:	8b 55 f4             	mov    0xfffffff4(%ebp),%edx
    2948:	8b 45 10             	mov    0x10(%ebp),%eax
    294b:	8b 40 30             	mov    0x30(%eax),%eax
    294e:	89 82 f8 02 00 00    	mov    %eax,0x2f8(%edx)
			//0501 - called twice when recovering
			//findAckables(sk, 0, NULL);
			break;
		}
	}
}
    2954:	83 c4 44             	add    $0x44,%esp
    2957:	5e                   	pop    %esi
    2958:	5f                   	pop    %edi
    2959:	5d                   	pop    %ebp
    295a:	c3                   	ret    

0000295b <UpdateClientUCState>:

static void UpdateClientUCState(struct sock *sk, struct RequestOFOEntry *ofo_entry) {
    295b:	55                   	push   %ebp
    295c:	89 e5                	mov    %esp,%ebp
    295e:	83 ec 60             	sub    $0x60,%esp
	struct tcp_opt *tp = &sk->tp_pinfo.af_tcp;
    2961:	8b 45 08             	mov    0x8(%ebp),%eax
    2964:	05 bc 00 00 00       	add    $0xbc,%eax
    2969:	89 45 fc             	mov    %eax,0xfffffffc(%ebp)
	struct WireUC_RespHeader *hdr;
	struct UC_Continuation *addedUCont = NULL;
    296c:	c7 45 f4 00 00 00 00 	movl   $0x0,0xfffffff4(%ebp)
	CONTINUATION_TYPE *cont = ofo_entry->cont;
    2973:	8b 45 0c             	mov    0xc(%ebp),%eax
    2976:	8b 40 0c             	mov    0xc(%eax),%eax
    2979:	89 45 f0             	mov    %eax,0xfffffff0(%ebp)
	int ucont_position;
	int ucontNum = 0;
    297c:	c7 45 e8 00 00 00 00 	movl   $0x0,0xffffffe8(%ebp)

	/*
	 *
	 *
	 * UC-level updates
	 *
	 *
	 */

	// Examine user continuation
	// 0505 - allow multiple continuations per packet
	//printk("%p @ ucont_len = %d\n", cont->ucont_data, cont->ucont_len);
	for(ucont_position = 0;
    2983:	c7 45 ec 00 00 00 00 	movl   $0x0,0xffffffec(%ebp)
    298a:	8b 55 f0             	mov    0xfffffff0(%ebp),%edx
    298d:	8b 45 ec             	mov    0xffffffec(%ebp),%eax
    2990:	3b 42 78             	cmp    0x78(%edx),%eax
    2993:	7c 05                	jl     299a <UpdateClientUCState+0x3f>
    2995:	e9 fa 05 00 00       	jmp    2f94 <UpdateClientUCState+0x639>
	    ucont_position < cont->ucont_len;
	    ucont_position += ntohs(hdr->len)) {
		//printk("ucont_position = %d\n", ucont_position);
		void *ucont_start = cont->ucont_data + ucont_position;
    299a:	8b 55 f0             	mov    0xfffffff0(%ebp),%edx
    299d:	8b 45 ec             	mov    0xffffffec(%ebp),%eax
    29a0:	03 42 7c             	add    0x7c(%edx),%eax
    29a3:	89 45 e4             	mov    %eax,0xffffffe4(%ebp)
		hdr = (struct WireUC_RespHeader *)ucont_start;
    29a6:	8b 45 e4             	mov    0xffffffe4(%ebp),%eax
    29a9:	89 45 f8             	mov    %eax,0xfffffff8(%ebp)
		int ucont_len = ntohs(hdr->len);
    29ac:	8b 45 f8             	mov    0xfffffff8(%ebp),%eax
    29af:	0f b7 40 02          	movzwl 0x2(%eax),%eax
    29b3:	89 04 24             	mov    %eax,(%esp,1)
    29b6:	e8 fc ff ff ff       	call   29b7 <UpdateClientUCState+0x5c>
    29bb:	0f b7 c0             	movzwl %ax,%eax
    29be:	89 45 e0             	mov    %eax,0xffffffe0(%ebp)

		if(ucont_len < sizeof(struct WireUC_RespHeader)) {
    29c1:	83 7d e0 03          	cmpl   $0x3,0xffffffe0(%ebp)
    29c5:	77 1f                	ja     29e6 <UpdateClientUCState+0x8b>
			printk("User continuation %d @ %d too short\n", ucontNum, ucont_position);
    29c7:	8b 45 ec             	mov    0xffffffec(%ebp),%eax
    29ca:	89 44 24 08          	mov    %eax,0x8(%esp,1)
    29ce:	8b 45 e8             	mov    0xffffffe8(%ebp),%eax
    29d1:	89 44 24 04          	mov    %eax,0x4(%esp,1)
    29d5:	c7 04 24 00 10 00 00 	movl   $0x1000,(%esp,1)
    29dc:	e8 fc ff ff ff       	call   29dd <UpdateClientUCState+0x82>
			return;
    29e1:	e9 ae 05 00 00       	jmp    2f94 <UpdateClientUCState+0x639>
		}
		ucontNum++;
    29e6:	8d 45 e8             	lea    0xffffffe8(%ebp),%eax
    29e9:	ff 00                	incl   (%eax)

		switch((enum UC_Type)hdr->type) {
    29eb:	8b 45 f8             	mov    0xfffffff8(%ebp),%eax
    29ee:	0f b6 00             	movzbl (%eax),%eax
    29f1:	89 45 c0             	mov    %eax,0xffffffc0(%ebp)
    29f4:	83 7d c0 01          	cmpl   $0x1,0xffffffc0(%ebp)
    29f8:	0f 84 e2 00 00 00    	je     2ae0 <UpdateClientUCState+0x185>
    29fe:	83 7d c0 01          	cmpl   $0x1,0xffffffc0(%ebp)
    2a02:	72 19                	jb     2a1d <UpdateClientUCState+0xc2>
    2a04:	83 7d c0 02          	cmpl   $0x2,0xffffffc0(%ebp)
    2a08:	0f 84 57 03 00 00    	je     2d65 <UpdateClientUCState+0x40a>
    2a0e:	83 7d c0 04          	cmpl   $0x4,0xffffffc0(%ebp)
    2a12:	0f 84 d5 03 00 00    	je     2ded <UpdateClientUCState+0x492>
    2a18:	e9 5a 04 00 00       	jmp    2e77 <UpdateClientUCState+0x51c>
		case UC_INCOMPLETE: {
			struct WireUC_CVT_IncompleteResponse *incompleteResp =
    2a1d:	8b 45 f8             	mov    0xfffffff8(%ebp),%eax
    2a20:	89 45 dc             	mov    %eax,0xffffffdc(%ebp)
				(struct WireUC_CVT_IncompleteResponse *) hdr;
			int res;
			if(ucont_len < sizeof(*incompleteResp)) {
    2a23:	83 7d e0 0b          	cmpl   $0xb,0xffffffe0(%ebp)
    2a27:	77 11                	ja     2a3a <UpdateClientUCState+0xdf>
				printk("User continuation too short for incomplete response\n");
    2a29:	c7 04 24 40 10 00 00 	movl   $0x1040,(%esp,1)
    2a30:	e8 fc ff ff ff       	call   2a31 <UpdateClientUCState+0xd6>
				return;
    2a35:	e9 5a 05 00 00       	jmp    2f94 <UpdateClientUCState+0x639>
			}
			switch(tp->t.conversionState) {
    2a3a:	8b 45 fc             	mov    0xfffffffc(%ebp),%eax
    2a3d:	8b 80 dc 09 00 00    	mov    0x9dc(%eax),%eax
    2a43:	89 45 c8             	mov    %eax,0xffffffc8(%ebp)
    2a46:	83 7d c8 01          	cmpl   $0x1,0xffffffc8(%ebp)
    2a4a:	74 16                	je     2a62 <UpdateClientUCState+0x107>
    2a4c:	83 7d c8 01          	cmpl   $0x1,0xffffffc8(%ebp)
    2a50:	7f 08                	jg     2a5a <UpdateClientUCState+0xff>
    2a52:	83 7d c8 00          	cmpl   $0x0,0xffffffc8(%ebp)
    2a56:	74 41                	je     2a99 <UpdateClientUCState+0x13e>
    2a58:	eb 50                	jmp    2aaa <UpdateClientUCState+0x14f>
    2a5a:	83 7d c8 02          	cmpl   $0x2,0xffffffc8(%ebp)
    2a5e:	74 39                	je     2a99 <UpdateClientUCState+0x13e>
    2a60:	eb 48                	jmp    2aaa <UpdateClientUCState+0x14f>
			case CONVERSION_WAITFORSERVER:
				res = processIncompleteResponse(sk,incompleteResp,ucont_len);
    2a62:	8b 45 e0             	mov    0xffffffe0(%ebp),%eax
    2a65:	89 44 24 08          	mov    %eax,0x8(%esp,1)
    2a69:	8b 45 dc             	mov    0xffffffdc(%ebp),%eax
    2a6c:	89 44 24 04          	mov    %eax,0x4(%esp,1)
    2a70:	8b 45 08             	mov    0x8(%ebp),%eax
    2a73:	89 04 24             	mov    %eax,(%esp,1)
    2a76:	e8 59 85 00 00       	call   afd4 <processIncompleteResponse>
    2a7b:	89 45 d8             	mov    %eax,0xffffffd8(%ebp)
				if(res) {
    2a7e:	83 7d d8 00          	cmpl   $0x0,0xffffffd8(%ebp)
    2a82:	0f 84 00 04 00 00    	je     2e88 <UpdateClientUCState+0x52d>
					printk("Error while processing incompleteResponse\n");
    2a88:	c7 04 24 80 10 00 00 	movl   $0x1080,(%esp,1)
    2a8f:	e8 fc ff ff ff       	call   2a90 <UpdateClientUCState+0x135>
					return;
    2a94:	e9 fb 04 00 00       	jmp    2f94 <UpdateClientUCState+0x639>
				}
				break;
			case CONVERSION_IDLE:
			case CONVERSION_WAITFORUSER:
				printk("Invalid conversion state (supposed to be WAITFORSERVER) while processing incompleteResponse\n");
    2a99:	c7 04 24 c0 10 00 00 	movl   $0x10c0,(%esp,1)
    2aa0:	e8 fc ff ff ff       	call   2aa1 <UpdateClientUCState+0x146>
				return;
    2aa5:	e9 ea 04 00 00       	jmp    2f94 <UpdateClientUCState+0x639>
			default:
				printk("Invalid state!\n");
    2aaa:	c7 04 24 1d 11 00 00 	movl   $0x111d,(%esp,1)
    2ab1:	e8 fc ff ff ff       	call   2ab2 <UpdateClientUCState+0x157>
				BUG();
    2ab6:	c7 44 24 04 39 00 00 	movl   $0x39,0x4(%esp,1)
    2abd:	00 
    2abe:	c7 04 24 3d 00 00 00 	movl   $0x3d,(%esp,1)
    2ac5:	e8 fc ff ff ff       	call   2ac6 <UpdateClientUCState+0x16b>
    2aca:	c7 04 24 00 00 00 00 	movl   $0x0,(%esp,1)
    2ad1:	e8 fc ff ff ff       	call   2ad2 <UpdateClientUCState+0x177>
    2ad6:	e8 fc ff ff ff       	call   2ad7 <UpdateClientUCState+0x17c>
				return;
    2adb:	e9 b4 04 00 00       	jmp    2f94 <UpdateClientUCState+0x639>
			}
			break;
		}
		case UC_COMPLETE: {
			//printk("complete\n");
			struct WireUC_CVT_CompleteResponse *completeResp =
    2ae0:	8b 45 f8             	mov    0xfffffff8(%ebp),%eax
    2ae3:	89 45 d8             	mov    %eax,0xffffffd8(%ebp)
				(struct WireUC_CVT_CompleteResponse *) hdr;
			struct UC_Continuation *ucont;
			if(ucont_len < sizeof(*completeResp)) {
    2ae6:	83 7d e0 14          	cmpl   $0x14,0xffffffe0(%ebp)
    2aea:	77 11                	ja     2afd <UpdateClientUCState+0x1a2>
				printk("User continuation too short for complete response\n");
    2aec:	c7 04 24 40 11 00 00 	movl   $0x1140,(%esp,1)
    2af3:	e8 fc ff ff ff       	call   2af4 <UpdateClientUCState+0x199>
				return;
    2af8:	e9 97 04 00 00       	jmp    2f94 <UpdateClientUCState+0x639>
			}
			//printk("conversionstate\n");
			switch(tp->t.conversionState) {
    2afd:	8b 45 fc             	mov    0xfffffffc(%ebp),%eax
    2b00:	8b 80 dc 09 00 00    	mov    0x9dc(%eax),%eax
    2b06:	89 45 c4             	mov    %eax,0xffffffc4(%ebp)
    2b09:	83 7d c4 01          	cmpl   $0x1,0xffffffc4(%ebp)
    2b0d:	74 24                	je     2b33 <UpdateClientUCState+0x1d8>
    2b0f:	83 7d c4 01          	cmpl   $0x1,0xffffffc4(%ebp)
    2b13:	7f 0f                	jg     2b24 <UpdateClientUCState+0x1c9>
    2b15:	83 7d c4 00          	cmpl   $0x0,0xffffffc4(%ebp)
    2b19:	0f 84 ee 01 00 00    	je     2d0d <UpdateClientUCState+0x3b2>
    2b1f:	e9 0b 02 00 00       	jmp    2d2f <UpdateClientUCState+0x3d4>
    2b24:	83 7d c4 02          	cmpl   $0x2,0xffffffc4(%ebp)
    2b28:	0f 84 f0 01 00 00    	je     2d1e <UpdateClientUCState+0x3c3>
    2b2e:	e9 fc 01 00 00       	jmp    2d2f <UpdateClientUCState+0x3d4>
				struct UC_Continuation *newConvCont;
				unsigned ackSeq;
			case CONVERSION_WAITFORSERVER:
				ucont = unmarshallUC_Continuation(&completeResp->newCont,
    2b33:	8b 55 d8             	mov    0xffffffd8(%ebp),%edx
    2b36:	8b 45 e4             	mov    0xffffffe4(%ebp),%eax
    2b39:	29 d0                	sub    %edx,%eax
    2b3b:	03 45 e0             	add    0xffffffe0(%ebp),%eax
    2b3e:	83 e8 08             	sub    $0x8,%eax
    2b41:	89 44 24 04          	mov    %eax,0x4(%esp,1)
    2b45:	8b 45 d8             	mov    0xffffffd8(%ebp),%eax
    2b48:	83 c0 08             	add    $0x8,%eax
    2b4b:	89 04 24             	mov    %eax,(%esp,1)
    2b4e:	e8 be 75 00 00       	call   a111 <unmarshallUC_Continuation>
    2b53:	89 45 dc             	mov    %eax,0xffffffdc(%ebp)
								  ucont_len - ((char*)&completeResp->newCont - (char*)ucont_start));
				if(ucont == NULL) {
    2b56:	83 7d dc 00          	cmpl   $0x0,0xffffffdc(%ebp)
    2b5a:	75 11                	jne    2b6d <UpdateClientUCState+0x212>
					printk("Error while unmarshalling UC Continuation for UC_Complete packet\n");
    2b5c:	c7 04 24 80 11 00 00 	movl   $0x1180,(%esp,1)
    2b63:	e8 fc ff ff ff       	call   2b64 <UpdateClientUCState+0x209>
					return;
    2b68:	e9 27 04 00 00       	jmp    2f94 <UpdateClientUCState+0x639>
				}
				/* Save continuation for use in subsequent conversion request */
				newConvCont = copyUC_Continuation(ucont);
    2b6d:	8b 45 dc             	mov    0xffffffdc(%ebp),%eax
    2b70:	89 04 24             	mov    %eax,(%esp,1)
    2b73:	e8 0b 77 00 00       	call   a283 <copyUC_Continuation>
    2b78:	89 45 d4             	mov    %eax,0xffffffd4(%ebp)
				atomic_set(&newConvCont->refcnt, 1);
    2b7b:	8b 45 d4             	mov    0xffffffd4(%ebp),%eax
    2b7e:	83 c0 24             	add    $0x24,%eax
    2b81:	c7 00 01 00 00 00    	movl   $0x1,(%eax)
				if(newConvCont == NULL) {
    2b87:	83 7d d4 00          	cmpl   $0x0,0xffffffd4(%ebp)
    2b8b:	75 1c                	jne    2ba9 <UpdateClientUCState+0x24e>
					printk("Error while saving convCont in prevConvCont\n");
    2b8d:	c7 04 24 e0 11 00 00 	movl   $0x11e0,(%esp,1)
    2b94:	e8 fc ff ff ff       	call   2b95 <UpdateClientUCState+0x23a>
					kfree(ucont);
    2b99:	8b 45 dc             	mov    0xffffffdc(%ebp),%eax
    2b9c:	89 04 24             	mov    %eax,(%esp,1)
    2b9f:	e8 fc ff ff ff       	call   2ba0 <UpdateClientUCState+0x245>
					return;
    2ba4:	e9 eb 03 00 00       	jmp    2f94 <UpdateClientUCState+0x639>
				}
				if(tp->t.prevConvCont) {
    2ba9:	8b 45 fc             	mov    0xfffffffc(%ebp),%eax
    2bac:	83 b8 fc 09 00 00 00 	cmpl   $0x0,0x9fc(%eax)
    2bb3:	74 37                	je     2bec <UpdateClientUCState+0x291>
					// XXX Leave these FINDING_LEAK defines in here to find the lurking memory leak
#ifdef FINDING_LEAK
					printk("prevConvCont: \n");
					UC_Continuation_dump(tp->t.prevConvCont);
#endif
					UC_CONTINUATION_TRYFREE(tp->t.prevConvCont);
    2bb5:	c7 45 cc 00 00 00 00 	movl   $0x0,0xffffffcc(%ebp)
    2bbc:	8b 45 fc             	mov    0xfffffffc(%ebp),%eax
    2bbf:	8b 80 fc 09 00 00    	mov    0x9fc(%eax),%eax
    2bc5:	83 c0 24             	add    $0x24,%eax
    2bc8:	89 04 24             	mov    %eax,(%esp,1)
    2bcb:	e8 24 60 00 00       	call   8bf4 <atomic_dec_and_test>
    2bd0:	85 c0                	test   %eax,%eax
    2bd2:	74 18                	je     2bec <UpdateClientUCState+0x291>
    2bd4:	8b 45 fc             	mov    0xfffffffc(%ebp),%eax
    2bd7:	8b 80 fc 09 00 00    	mov    0x9fc(%eax),%eax
    2bdd:	89 04 24             	mov    %eax,(%esp,1)
    2be0:	e8 fc ff ff ff       	call   2be1 <UpdateClientUCState+0x286>
    2be5:	c7 45 cc 01 00 00 00 	movl   $0x1,0xffffffcc(%ebp)
#ifdef FINDING_LEAK
					printk("newConvCont0: \n");
					UC_Continuation_dump(ucont);
					printk("newConvCont1: \n");
					UC_Continuation_dump(newConvCont);
#endif
				}
				tp->t.prevConvCont = newConvCont;
    2bec:	8b 55 fc             	mov    0xfffffffc(%ebp),%edx
    2bef:	8b 45 d4             	mov    0xffffffd4(%ebp),%eax
    2bf2:	89 82 fc 09 00 00    	mov    %eax,0x9fc(%edx)

				ackSeq = ntohl(completeResp->ack_seq);
    2bf8:	8b 45 d8             	mov    0xffffffd8(%ebp),%eax
    2bfb:	8b 40 04             	mov    0x4(%eax),%eax
    2bfe:	89 04 24             	mov    %eax,(%esp,1)
    2c01:	e8 fc ff ff ff       	call   2c02 <UpdateClientUCState+0x2a7>
    2c06:	89 45 d0             	mov    %eax,0xffffffd0(%ebp)
				if(ackSeq > tp->t.snd_una) {
    2c09:	8b 55 fc             	mov    0xfffffffc(%ebp),%edx
    2c0c:	8b 45 d0             	mov    0xffffffd0(%ebp),%eax
    2c0f:	3b 82 e0 09 00 00    	cmp    0x9e0(%edx),%eax
    2c15:	76 58                	jbe    2c6f <UpdateClientUCState+0x314>
					tp->t.snd_una = ackSeq;
    2c17:	8b 55 fc             	mov    0xfffffffc(%ebp),%edx
    2c1a:	8b 45 d0             	mov    0xffffffd0(%ebp),%eax
    2c1d:	89 82 e0 09 00 00    	mov    %eax,0x9e0(%edx)
					//printk("snd_una = %d\n", tp->t.snd_una);
					if(tp->t.snd_una > tp->t.write_seq) {
    2c23:	8b 45 fc             	mov    0xfffffffc(%ebp),%eax
    2c26:	8b 55 fc             	mov    0xfffffffc(%ebp),%edx
    2c29:	8b 80 e0 09 00 00    	mov    0x9e0(%eax),%eax
    2c2f:	3b 82 e8 09 00 00    	cmp    0x9e8(%edx),%eax
    2c35:	76 38                	jbe    2c6f <UpdateClientUCState+0x314>
						printk("Error! snd_una %d > tp->t.write_seq %d while processing CompleteConversion\n", tp->t.snd_una, tp->t.write_seq);
    2c37:	8b 45 fc             	mov    0xfffffffc(%ebp),%eax
    2c3a:	8b 80 e8 09 00 00    	mov    0x9e8(%eax),%eax
    2c40:	89 44 24 08          	mov    %eax,0x8(%esp,1)
    2c44:	8b 45 fc             	mov    0xfffffffc(%ebp),%eax
    2c47:	8b 80 e0 09 00 00    	mov    0x9e0(%eax),%eax
    2c4d:	89 44 24 04          	mov    %eax,0x4(%esp,1)
    2c51:	c7 04 24 20 12 00 00 	movl   $0x1220,(%esp,1)
    2c58:	e8 fc ff ff ff       	call   2c59 <UpdateClientUCState+0x2fe>
						tp->t.snd_una = tp->t.write_seq;
    2c5d:	8b 55 fc             	mov    0xfffffffc(%ebp),%edx
    2c60:	8b 45 fc             	mov    0xfffffffc(%ebp),%eax
    2c63:	8b 80 e8 09 00 00    	mov    0x9e8(%eax),%eax
    2c69:	89 82 e0 09 00 00    	mov    %eax,0x9e0(%edx)
					}
				}
#if 0
				else {
					printk("snd_una not updated\n");
				}
#endif

#if FINDING_LEAK
				printk("ackseq = %d snd_una = %d write_seq = %d\n", ackSeq, tp->t.snd_una, tp->t.write_seq);
#endif
				if(addNewUC_Continuation(sk, ucont)) {
    2c6f:	8b 45 dc             	mov    0xffffffdc(%ebp),%eax
    2c72:	89 44 24 04          	mov    %eax,0x4(%esp,1)
    2c76:	8b 45 08             	mov    0x8(%ebp),%eax
    2c79:	89 04 24             	mov    %eax,(%esp,1)
    2c7c:	e8 62 86 00 00       	call   b2e3 <addNewUC_Continuation>
    2c81:	85 c0                	test   %eax,%eax
    2c83:	74 3a                	je     2cbf <UpdateClientUCState+0x364>
					printk("UC_COMPLETE: error while adding new continuation\n");
    2c85:	c7 04 24 80 12 00 00 	movl   $0x1280,(%esp,1)
    2c8c:	e8 fc ff ff ff       	call   2c8d <UpdateClientUCState+0x332>
					kfree(ucont);
    2c91:	8b 45 dc             	mov    0xffffffdc(%ebp),%eax
    2c94:	89 04 24             	mov    %eax,(%esp,1)
    2c97:	e8 fc ff ff ff       	call   2c98 <UpdateClientUCState+0x33d>
					// xxx don't need to check refcnt on prevConvCont, since we
					// know that there's only  one reference
					kfree(tp->t.prevConvCont);
    2c9c:	8b 45 fc             	mov    0xfffffffc(%ebp),%eax
    2c9f:	8b 80 fc 09 00 00    	mov    0x9fc(%eax),%eax
    2ca5:	89 04 24             	mov    %eax,(%esp,1)
    2ca8:	e8 fc ff ff ff       	call   2ca9 <UpdateClientUCState+0x34e>
					tp->t.prevConvCont = NULL;
    2cad:	8b 45 fc             	mov    0xfffffffc(%ebp),%eax
    2cb0:	c7 80 fc 09 00 00 00 	movl   $0x0,0x9fc(%eax)
    2cb7:	00 00 00 
					return;
    2cba:	e9 d5 02 00 00       	jmp    2f94 <UpdateClientUCState+0x639>
				}
				requestReleasedData(sk);
				if(tp->t.write_seq - tp->t.snd_una > 0) {
    2cbf:	8b 45 fc             	mov    0xfffffffc(%ebp),%eax
    2cc2:	8b 55 fc             	mov    0xfffffffc(%ebp),%edx
    2cc5:	8b 80 e8 09 00 00    	mov    0x9e8(%eax),%eax
    2ccb:	3b 82 e0 09 00 00    	cmp    0x9e0(%edx),%eax
    2cd1:	74 1d                	je     2cf0 <UpdateClientUCState+0x395>
					queueConversionRequests(sk);
    2cd3:	8b 45 08             	mov    0x8(%ebp),%eax
    2cd6:	89 04 24             	mov    %eax,(%esp,1)
    2cd9:	e8 fc ff ff ff       	call   2cda <UpdateClientUCState+0x37f>
					tp->t.conversionState = CONVERSION_WAITFORSERVER;
    2cde:	8b 45 fc             	mov    0xfffffffc(%ebp),%eax
    2ce1:	c7 80 dc 09 00 00 01 	movl   $0x1,0x9dc(%eax)
    2ce8:	00 00 00 
    2ceb:	e9 98 01 00 00       	jmp    2e88 <UpdateClientUCState+0x52d>
#if 0 // 0426 - do not push out requests in interrupt context, since the requests will be sent automatically
					pushRequests(sk);
#endif
					//printk("update client state set conversion state to waitforserver\n");
				} else {
					cleanTxQueue(sk);
    2cf0:	8b 45 08             	mov    0x8(%ebp),%eax
    2cf3:	89 04 24             	mov    %eax,(%esp,1)
    2cf6:	e8 55 82 00 00       	call   af50 <cleanTxQueue>
					tp->t.conversionState = CONVERSION_IDLE;
    2cfb:	8b 45 fc             	mov    0xfffffffc(%ebp),%eax
    2cfe:	c7 80 dc 09 00 00 00 	movl   $0x0,0x9dc(%eax)
    2d05:	00 00 00 
					//printk("update client state set conversion state to IDLE: %d\n", tp->t.conversionState);
				}
				break;
    2d08:	e9 7b 01 00 00       	jmp    2e88 <UpdateClientUCState+0x52d>
			case CONVERSION_IDLE:
				printk("Invalid state: CONVERSION_IDLE while processing completeResponse\n");
    2d0d:	c7 04 24 c0 12 00 00 	movl   $0x12c0,(%esp,1)
    2d14:	e8 fc ff ff ff       	call   2d15 <UpdateClientUCState+0x3ba>
				return;
    2d19:	e9 76 02 00 00       	jmp    2f94 <UpdateClientUCState+0x639>
			case CONVERSION_WAITFORUSER:
				printk("Invalid state: CONVERSION_WAITFORUSER while processing completeResponse\n");
    2d1e:	c7 04 24 20 13 00 00 	movl   $0x1320,(%esp,1)
    2d25:	e8 fc ff ff ff       	call   2d26 <UpdateClientUCState+0x3cb>
				return;
    2d2a:	e9 65 02 00 00       	jmp    2f94 <UpdateClientUCState+0x639>
			default:
				printk("Invalid state!\n");
    2d2f:	c7 04 24 1d 11 00 00 	movl   $0x111d,(%esp,1)
    2d36:	e8 fc ff ff ff       	call   2d37 <UpdateClientUCState+0x3dc>
				BUG();
    2d3b:	c7 44 24 04 39 00 00 	movl   $0x39,0x4(%esp,1)
    2d42:	00 
    2d43:	c7 04 24 3d 00 00 00 	movl   $0x3d,(%esp,1)
    2d4a:	e8 fc ff ff ff       	call   2d4b <UpdateClientUCState+0x3f0>
    2d4f:	c7 04 24 00 00 00 00 	movl   $0x0,(%esp,1)
    2d56:	e8 fc ff ff ff       	call   2d57 <UpdateClientUCState+0x3fc>
    2d5b:	e8 fc ff ff ff       	call   2d5c <UpdateClientUCState+0x401>
				return;
    2d60:	e9 2f 02 00 00       	jmp    2f94 <UpdateClientUCState+0x639>
			}
			break;
		}
		case UC_UPDATE: {
			/* This code was written 3/25, but never
			   used. See UC_NCONT code path below for New
			   CONTinuation Update technique */
			struct WireUC_MGMT_UpdateResponse *updateResp =
    2d65:	8b 45 f8             	mov    0xfffffff8(%ebp),%eax
    2d68:	89 45 cc             	mov    %eax,0xffffffcc(%ebp)
				(struct WireUC_MGMT_UpdateResponse *) hdr;
			struct UC_Continuation *ucont;
			if(ucont_len < sizeof(*updateResp)) {
    2d6b:	83 7d e0 10          	cmpl   $0x10,0xffffffe0(%ebp)
    2d6f:	77 11                	ja     2d82 <UpdateClientUCState+0x427>
				printk("User continuation too short for update response\n");
    2d71:	c7 04 24 80 13 00 00 	movl   $0x1380,(%esp,1)
    2d78:	e8 fc ff ff ff       	call   2d79 <UpdateClientUCState+0x41e>
				return;
    2d7d:	e9 12 02 00 00       	jmp    2f94 <UpdateClientUCState+0x639>
			}
			ucont =	unmarshallUC_Continuation(&updateResp->newCont,
    2d82:	8b 55 cc             	mov    0xffffffcc(%ebp),%edx
    2d85:	8b 45 e4             	mov    0xffffffe4(%ebp),%eax
    2d88:	29 d0                	sub    %edx,%eax
    2d8a:	03 45 e0             	add    0xffffffe0(%ebp),%eax
    2d8d:	83 e8 04             	sub    $0x4,%eax
    2d90:	89 44 24 04          	mov    %eax,0x4(%esp,1)
    2d94:	8b 45 cc             	mov    0xffffffcc(%ebp),%eax
    2d97:	83 c0 04             	add    $0x4,%eax
    2d9a:	89 04 24             	mov    %eax,(%esp,1)
    2d9d:	e8 6f 73 00 00       	call   a111 <unmarshallUC_Continuation>
    2da2:	89 45 d0             	mov    %eax,0xffffffd0(%ebp)
							  ucont_len - ((char*)&updateResp->newCont - (char*)ucont_start));
			if(ucont == NULL) {
    2da5:	83 7d d0 00          	cmpl   $0x0,0xffffffd0(%ebp)
    2da9:	75 11                	jne    2dbc <UpdateClientUCState+0x461>
				printk("UC_Update: out of memory while unmarshalling new continuation\n");
    2dab:	c7 04 24 c0 13 00 00 	movl   $0x13c0,(%esp,1)
    2db2:	e8 fc ff ff ff       	call   2db3 <UpdateClientUCState+0x458>
				return;
    2db7:	e9 d8 01 00 00       	jmp    2f94 <UpdateClientUCState+0x639>
			}
			addedUCont = ucont;
    2dbc:	8b 45 d0             	mov    0xffffffd0(%ebp),%eax
    2dbf:	89 45 f4             	mov    %eax,0xfffffff4(%ebp)
			if(addNewUC_Continuation(sk, addedUCont)) {
    2dc2:	8b 45 f4             	mov    0xfffffff4(%ebp),%eax
    2dc5:	89 44 24 04          	mov    %eax,0x4(%esp,1)
    2dc9:	8b 45 08             	mov    0x8(%ebp),%eax
    2dcc:	89 04 24             	mov    %eax,(%esp,1)
    2dcf:	e8 0f 85 00 00       	call   b2e3 <addNewUC_Continuation>
    2dd4:	85 c0                	test   %eax,%eax
    2dd6:	0f 84 ac 00 00 00    	je     2e88 <UpdateClientUCState+0x52d>
				printk("UC_Update: error while adding new continuation\n");
    2ddc:	c7 04 24 00 14 00 00 	movl   $0x1400,(%esp,1)
    2de3:	e8 fc ff ff ff       	call   2de4 <UpdateClientUCState+0x489>
				return;
    2de8:	e9 a7 01 00 00       	jmp    2f94 <UpdateClientUCState+0x639>
			}
			requestReleasedData(sk);
			break;
		}
		case UC_NEWCONT: {
			struct WireUC_NewContinuationResponse *newContResp =
    2ded:	8b 45 f8             	mov    0xfffffff8(%ebp),%eax
    2df0:	89 45 cc             	mov    %eax,0xffffffcc(%ebp)
				(struct WireUC_NewContinuationResponse *) hdr;
			struct UC_Continuation *ucont;
			if(ucont_len < sizeof(*newContResp)) {
    2df3:	83 7d e0 11          	cmpl   $0x11,0xffffffe0(%ebp)
    2df7:	77 11                	ja     2e0a <UpdateClientUCState+0x4af>
				printk("User continuation too short for UC_NEWCONT\n");
    2df9:	c7 04 24 40 14 00 00 	movl   $0x1440,(%esp,1)
    2e00:	e8 fc ff ff ff       	call   2e01 <UpdateClientUCState+0x4a6>
				return;
    2e05:	e9 8a 01 00 00       	jmp    2f94 <UpdateClientUCState+0x639>
			}
			ucont = unmarshallUC_Continuation(&newContResp->newCont,
    2e0a:	8b 55 cc             	mov    0xffffffcc(%ebp),%edx
    2e0d:	8b 45 e4             	mov    0xffffffe4(%ebp),%eax
    2e10:	29 d0                	sub    %edx,%eax
    2e12:	03 45 e0             	add    0xffffffe0(%ebp),%eax
    2e15:	83 e8 04             	sub    $0x4,%eax
    2e18:	89 44 24 04          	mov    %eax,0x4(%esp,1)
    2e1c:	8b 45 cc             	mov    0xffffffcc(%ebp),%eax
    2e1f:	83 c0 04             	add    $0x4,%eax
    2e22:	89 04 24             	mov    %eax,(%esp,1)
    2e25:	e8 e7 72 00 00       	call   a111 <unmarshallUC_Continuation>
    2e2a:	89 45 d0             	mov    %eax,0xffffffd0(%ebp)
							  ucont_len - ((char*)&newContResp->newCont - (char*)ucont_start));
			if(ucont == NULL) {
    2e2d:	83 7d d0 00          	cmpl   $0x0,0xffffffd0(%ebp)
